ARM GAS  C:\Users\Rick\AppData\Local\Temp\ccMNWg73.s 			page 1


   1              		.cpu cortex-m3
   2              		.arch armv7-m
   3              		.fpu softvfp
   4              		.eabi_attribute 20, 1
   5              		.eabi_attribute 21, 1
   6              		.eabi_attribute 23, 3
   7              		.eabi_attribute 24, 1
   8              		.eabi_attribute 25, 1
   9              		.eabi_attribute 26, 1
  10              		.eabi_attribute 30, 1
  11              		.eabi_attribute 34, 1
  12              		.eabi_attribute 18, 4
  13              		.file	"i2c.c"
  14              		.text
  15              	.Ltext0:
  16              		.cfi_sections	.debug_frame
  17              		.section	.text.MX_I2C1_Init,"ax",%progbits
  18              		.align	1
  19              		.global	MX_I2C1_Init
  20              		.syntax unified
  21              		.thumb
  22              		.thumb_func
  24              	MX_I2C1_Init:
  25              	.LFB65:
  26              		.file 1 "Core/Src/i2c.c"
   1:Core/Src/i2c.c **** /* USER CODE BEGIN Header */
   2:Core/Src/i2c.c **** /**
   3:Core/Src/i2c.c ****   ******************************************************************************
   4:Core/Src/i2c.c ****   * @file    i2c.c
   5:Core/Src/i2c.c ****   * @brief   This file provides code for the configuration
   6:Core/Src/i2c.c ****   *          of the I2C instances.
   7:Core/Src/i2c.c ****   ******************************************************************************
   8:Core/Src/i2c.c ****   * @attention
   9:Core/Src/i2c.c ****   *
  10:Core/Src/i2c.c ****   * Copyright (c) 2023 STMicroelectronics.
  11:Core/Src/i2c.c ****   * All rights reserved.
  12:Core/Src/i2c.c ****   *
  13:Core/Src/i2c.c ****   * This software is licensed under terms that can be found in the LICENSE file
  14:Core/Src/i2c.c ****   * in the root directory of this software component.
  15:Core/Src/i2c.c ****   * If no LICENSE file comes with this software, it is provided AS-IS.
  16:Core/Src/i2c.c ****   *
  17:Core/Src/i2c.c ****   ******************************************************************************
  18:Core/Src/i2c.c ****   */
  19:Core/Src/i2c.c **** /* USER CODE END Header */
  20:Core/Src/i2c.c **** /* Includes ------------------------------------------------------------------*/
  21:Core/Src/i2c.c **** #include "i2c.h"
  22:Core/Src/i2c.c **** 
  23:Core/Src/i2c.c **** /* USER CODE BEGIN 0 */
  24:Core/Src/i2c.c **** 
  25:Core/Src/i2c.c **** /* USER CODE END 0 */
  26:Core/Src/i2c.c **** 
  27:Core/Src/i2c.c **** I2C_HandleTypeDef hi2c1;
  28:Core/Src/i2c.c **** 
  29:Core/Src/i2c.c **** /* I2C1 init function */
  30:Core/Src/i2c.c **** void MX_I2C1_Init(void)
  31:Core/Src/i2c.c **** {
  27              		.loc 1 31 1 view -0
ARM GAS  C:\Users\Rick\AppData\Local\Temp\ccMNWg73.s 			page 2


  28              		.cfi_startproc
  29              		@ args = 0, pretend = 0, frame = 0
  30              		@ frame_needed = 0, uses_anonymous_args = 0
  31 0000 08B5     		push	{r3, lr}
  32              	.LCFI0:
  33              		.cfi_def_cfa_offset 8
  34              		.cfi_offset 3, -8
  35              		.cfi_offset 14, -4
  32:Core/Src/i2c.c **** 
  33:Core/Src/i2c.c ****   /* USER CODE BEGIN I2C1_Init 0 */
  34:Core/Src/i2c.c **** 
  35:Core/Src/i2c.c ****   /* USER CODE END I2C1_Init 0 */
  36:Core/Src/i2c.c **** 
  37:Core/Src/i2c.c ****   /* USER CODE BEGIN I2C1_Init 1 */
  38:Core/Src/i2c.c **** 
  39:Core/Src/i2c.c ****   /* USER CODE END I2C1_Init 1 */
  40:Core/Src/i2c.c ****   hi2c1.Instance = I2C1;
  36              		.loc 1 40 3 view .LVU1
  37              		.loc 1 40 18 is_stmt 0 view .LVU2
  38 0002 0B48     		ldr	r0, .L5
  39 0004 0B4B     		ldr	r3, .L5+4
  40 0006 0360     		str	r3, [r0]
  41:Core/Src/i2c.c ****   hi2c1.Init.ClockSpeed = 100000;
  41              		.loc 1 41 3 is_stmt 1 view .LVU3
  42              		.loc 1 41 25 is_stmt 0 view .LVU4
  43 0008 0B4B     		ldr	r3, .L5+8
  44 000a 4360     		str	r3, [r0, #4]
  42:Core/Src/i2c.c ****   hi2c1.Init.DutyCycle = I2C_DUTYCYCLE_2;
  45              		.loc 1 42 3 is_stmt 1 view .LVU5
  46              		.loc 1 42 24 is_stmt 0 view .LVU6
  47 000c 0023     		movs	r3, #0
  48 000e 8360     		str	r3, [r0, #8]
  43:Core/Src/i2c.c ****   hi2c1.Init.OwnAddress1 = 0;
  49              		.loc 1 43 3 is_stmt 1 view .LVU7
  50              		.loc 1 43 26 is_stmt 0 view .LVU8
  51 0010 C360     		str	r3, [r0, #12]
  44:Core/Src/i2c.c ****   hi2c1.Init.AddressingMode = I2C_ADDRESSINGMODE_7BIT;
  52              		.loc 1 44 3 is_stmt 1 view .LVU9
  53              		.loc 1 44 29 is_stmt 0 view .LVU10
  54 0012 4FF48042 		mov	r2, #16384
  55 0016 0261     		str	r2, [r0, #16]
  45:Core/Src/i2c.c ****   hi2c1.Init.DualAddressMode = I2C_DUALADDRESS_DISABLE;
  56              		.loc 1 45 3 is_stmt 1 view .LVU11
  57              		.loc 1 45 30 is_stmt 0 view .LVU12
  58 0018 4361     		str	r3, [r0, #20]
  46:Core/Src/i2c.c ****   hi2c1.Init.OwnAddress2 = 0;
  59              		.loc 1 46 3 is_stmt 1 view .LVU13
  60              		.loc 1 46 26 is_stmt 0 view .LVU14
  61 001a 8361     		str	r3, [r0, #24]
  47:Core/Src/i2c.c ****   hi2c1.Init.GeneralCallMode = I2C_GENERALCALL_DISABLE;
  62              		.loc 1 47 3 is_stmt 1 view .LVU15
  63              		.loc 1 47 30 is_stmt 0 view .LVU16
  64 001c C361     		str	r3, [r0, #28]
  48:Core/Src/i2c.c ****   hi2c1.Init.NoStretchMode = I2C_NOSTRETCH_DISABLE;
  65              		.loc 1 48 3 is_stmt 1 view .LVU17
  66              		.loc 1 48 28 is_stmt 0 view .LVU18
  67 001e 0362     		str	r3, [r0, #32]
ARM GAS  C:\Users\Rick\AppData\Local\Temp\ccMNWg73.s 			page 3


  49:Core/Src/i2c.c ****   if (HAL_I2C_Init(&hi2c1) != HAL_OK)
  68              		.loc 1 49 3 is_stmt 1 view .LVU19
  69              		.loc 1 49 7 is_stmt 0 view .LVU20
  70 0020 FFF7FEFF 		bl	HAL_I2C_Init
  71              	.LVL0:
  72              		.loc 1 49 6 view .LVU21
  73 0024 00B9     		cbnz	r0, .L4
  74              	.L1:
  50:Core/Src/i2c.c ****   {
  51:Core/Src/i2c.c ****     Error_Handler();
  52:Core/Src/i2c.c ****   }
  53:Core/Src/i2c.c ****   /* USER CODE BEGIN I2C1_Init 2 */
  54:Core/Src/i2c.c **** 
  55:Core/Src/i2c.c ****   /* USER CODE END I2C1_Init 2 */
  56:Core/Src/i2c.c **** 
  57:Core/Src/i2c.c **** }
  75              		.loc 1 57 1 view .LVU22
  76 0026 08BD     		pop	{r3, pc}
  77              	.L4:
  51:Core/Src/i2c.c ****   }
  78              		.loc 1 51 5 is_stmt 1 view .LVU23
  79 0028 FFF7FEFF 		bl	Error_Handler
  80              	.LVL1:
  81              		.loc 1 57 1 is_stmt 0 view .LVU24
  82 002c FBE7     		b	.L1
  83              	.L6:
  84 002e 00BF     		.align	2
  85              	.L5:
  86 0030 00000000 		.word	.LANCHOR0
  87 0034 00540040 		.word	1073763328
  88 0038 A0860100 		.word	100000
  89              		.cfi_endproc
  90              	.LFE65:
  92              		.section	.text.HAL_I2C_MspInit,"ax",%progbits
  93              		.align	1
  94              		.global	HAL_I2C_MspInit
  95              		.syntax unified
  96              		.thumb
  97              		.thumb_func
  99              	HAL_I2C_MspInit:
 100              	.LVL2:
 101              	.LFB66:
  58:Core/Src/i2c.c **** 
  59:Core/Src/i2c.c **** void HAL_I2C_MspInit(I2C_HandleTypeDef* i2cHandle)
  60:Core/Src/i2c.c **** {
 102              		.loc 1 60 1 is_stmt 1 view -0
 103              		.cfi_startproc
 104              		@ args = 0, pretend = 0, frame = 24
 105              		@ frame_needed = 0, uses_anonymous_args = 0
 106              		.loc 1 60 1 is_stmt 0 view .LVU26
 107 0000 10B5     		push	{r4, lr}
 108              	.LCFI1:
 109              		.cfi_def_cfa_offset 8
 110              		.cfi_offset 4, -8
 111              		.cfi_offset 14, -4
 112 0002 86B0     		sub	sp, sp, #24
 113              	.LCFI2:
ARM GAS  C:\Users\Rick\AppData\Local\Temp\ccMNWg73.s 			page 4


 114              		.cfi_def_cfa_offset 32
  61:Core/Src/i2c.c **** 
  62:Core/Src/i2c.c ****   GPIO_InitTypeDef GPIO_InitStruct = {0};
 115              		.loc 1 62 3 is_stmt 1 view .LVU27
 116              		.loc 1 62 20 is_stmt 0 view .LVU28
 117 0004 0023     		movs	r3, #0
 118 0006 0293     		str	r3, [sp, #8]
 119 0008 0393     		str	r3, [sp, #12]
 120 000a 0493     		str	r3, [sp, #16]
 121 000c 0593     		str	r3, [sp, #20]
  63:Core/Src/i2c.c ****   if(i2cHandle->Instance==I2C1)
 122              		.loc 1 63 3 is_stmt 1 view .LVU29
 123              		.loc 1 63 15 is_stmt 0 view .LVU30
 124 000e 0268     		ldr	r2, [r0]
 125              		.loc 1 63 5 view .LVU31
 126 0010 154B     		ldr	r3, .L11
 127 0012 9A42     		cmp	r2, r3
 128 0014 01D0     		beq	.L10
 129              	.LVL3:
 130              	.L7:
  64:Core/Src/i2c.c ****   {
  65:Core/Src/i2c.c ****   /* USER CODE BEGIN I2C1_MspInit 0 */
  66:Core/Src/i2c.c **** 
  67:Core/Src/i2c.c ****   /* USER CODE END I2C1_MspInit 0 */
  68:Core/Src/i2c.c **** 
  69:Core/Src/i2c.c ****     __HAL_RCC_GPIOB_CLK_ENABLE();
  70:Core/Src/i2c.c ****     /**I2C1 GPIO Configuration
  71:Core/Src/i2c.c ****     PB8     ------> I2C1_SCL
  72:Core/Src/i2c.c ****     PB9     ------> I2C1_SDA
  73:Core/Src/i2c.c ****     */
  74:Core/Src/i2c.c ****     GPIO_InitStruct.Pin = GPIO_PIN_8|GPIO_PIN_9;
  75:Core/Src/i2c.c ****     GPIO_InitStruct.Mode = GPIO_MODE_AF_OD;
  76:Core/Src/i2c.c ****     GPIO_InitStruct.Speed = GPIO_SPEED_FREQ_HIGH;
  77:Core/Src/i2c.c ****     HAL_GPIO_Init(GPIOB, &GPIO_InitStruct);
  78:Core/Src/i2c.c **** 
  79:Core/Src/i2c.c ****     __HAL_AFIO_REMAP_I2C1_ENABLE();
  80:Core/Src/i2c.c **** 
  81:Core/Src/i2c.c ****     /* I2C1 clock enable */
  82:Core/Src/i2c.c ****     __HAL_RCC_I2C1_CLK_ENABLE();
  83:Core/Src/i2c.c ****   /* USER CODE BEGIN I2C1_MspInit 1 */
  84:Core/Src/i2c.c **** 
  85:Core/Src/i2c.c ****   /* USER CODE END I2C1_MspInit 1 */
  86:Core/Src/i2c.c ****   }
  87:Core/Src/i2c.c **** }
 131              		.loc 1 87 1 view .LVU32
 132 0016 06B0     		add	sp, sp, #24
 133              	.LCFI3:
 134              		.cfi_remember_state
 135              		.cfi_def_cfa_offset 8
 136              		@ sp needed
 137 0018 10BD     		pop	{r4, pc}
 138              	.LVL4:
 139              	.L10:
 140              	.LCFI4:
 141              		.cfi_restore_state
  69:Core/Src/i2c.c ****     /**I2C1 GPIO Configuration
 142              		.loc 1 69 5 is_stmt 1 view .LVU33
ARM GAS  C:\Users\Rick\AppData\Local\Temp\ccMNWg73.s 			page 5


 143              	.LBB2:
  69:Core/Src/i2c.c ****     /**I2C1 GPIO Configuration
 144              		.loc 1 69 5 view .LVU34
  69:Core/Src/i2c.c ****     /**I2C1 GPIO Configuration
 145              		.loc 1 69 5 view .LVU35
 146 001a 144C     		ldr	r4, .L11+4
 147 001c A369     		ldr	r3, [r4, #24]
 148 001e 43F00803 		orr	r3, r3, #8
 149 0022 A361     		str	r3, [r4, #24]
  69:Core/Src/i2c.c ****     /**I2C1 GPIO Configuration
 150              		.loc 1 69 5 view .LVU36
 151 0024 A369     		ldr	r3, [r4, #24]
 152 0026 03F00803 		and	r3, r3, #8
 153 002a 0093     		str	r3, [sp]
  69:Core/Src/i2c.c ****     /**I2C1 GPIO Configuration
 154              		.loc 1 69 5 view .LVU37
 155 002c 009B     		ldr	r3, [sp]
 156              	.LBE2:
  69:Core/Src/i2c.c ****     /**I2C1 GPIO Configuration
 157              		.loc 1 69 5 view .LVU38
  74:Core/Src/i2c.c ****     GPIO_InitStruct.Mode = GPIO_MODE_AF_OD;
 158              		.loc 1 74 5 view .LVU39
  74:Core/Src/i2c.c ****     GPIO_InitStruct.Mode = GPIO_MODE_AF_OD;
 159              		.loc 1 74 25 is_stmt 0 view .LVU40
 160 002e 4FF44073 		mov	r3, #768
 161 0032 0293     		str	r3, [sp, #8]
  75:Core/Src/i2c.c ****     GPIO_InitStruct.Speed = GPIO_SPEED_FREQ_HIGH;
 162              		.loc 1 75 5 is_stmt 1 view .LVU41
  75:Core/Src/i2c.c ****     GPIO_InitStruct.Speed = GPIO_SPEED_FREQ_HIGH;
 163              		.loc 1 75 26 is_stmt 0 view .LVU42
 164 0034 1223     		movs	r3, #18
 165 0036 0393     		str	r3, [sp, #12]
  76:Core/Src/i2c.c ****     HAL_GPIO_Init(GPIOB, &GPIO_InitStruct);
 166              		.loc 1 76 5 is_stmt 1 view .LVU43
  76:Core/Src/i2c.c ****     HAL_GPIO_Init(GPIOB, &GPIO_InitStruct);
 167              		.loc 1 76 27 is_stmt 0 view .LVU44
 168 0038 0323     		movs	r3, #3
 169 003a 0593     		str	r3, [sp, #20]
  77:Core/Src/i2c.c **** 
 170              		.loc 1 77 5 is_stmt 1 view .LVU45
 171 003c 02A9     		add	r1, sp, #8
 172 003e 0C48     		ldr	r0, .L11+8
 173              	.LVL5:
  77:Core/Src/i2c.c **** 
 174              		.loc 1 77 5 is_stmt 0 view .LVU46
 175 0040 FFF7FEFF 		bl	HAL_GPIO_Init
 176              	.LVL6:
  79:Core/Src/i2c.c **** 
 177              		.loc 1 79 5 is_stmt 1 view .LVU47
 178              	.LBB3:
  79:Core/Src/i2c.c **** 
 179              		.loc 1 79 5 view .LVU48
 180 0044 0B4A     		ldr	r2, .L11+12
 181 0046 5368     		ldr	r3, [r2, #4]
 182              	.LVL7:
  79:Core/Src/i2c.c **** 
 183              		.loc 1 79 5 view .LVU49
ARM GAS  C:\Users\Rick\AppData\Local\Temp\ccMNWg73.s 			page 6


  79:Core/Src/i2c.c **** 
 184              		.loc 1 79 5 view .LVU50
 185 0048 43F0E063 		orr	r3, r3, #117440512
 186              	.LVL8:
  79:Core/Src/i2c.c **** 
 187              		.loc 1 79 5 is_stmt 0 view .LVU51
 188 004c 43F00203 		orr	r3, r3, #2
 189              	.LVL9:
  79:Core/Src/i2c.c **** 
 190              		.loc 1 79 5 is_stmt 1 view .LVU52
 191 0050 5360     		str	r3, [r2, #4]
 192              	.LBE3:
  79:Core/Src/i2c.c **** 
 193              		.loc 1 79 5 view .LVU53
  82:Core/Src/i2c.c ****   /* USER CODE BEGIN I2C1_MspInit 1 */
 194              		.loc 1 82 5 view .LVU54
 195              	.LBB4:
  82:Core/Src/i2c.c ****   /* USER CODE BEGIN I2C1_MspInit 1 */
 196              		.loc 1 82 5 view .LVU55
  82:Core/Src/i2c.c ****   /* USER CODE BEGIN I2C1_MspInit 1 */
 197              		.loc 1 82 5 view .LVU56
 198 0052 E369     		ldr	r3, [r4, #28]
 199              	.LVL10:
  82:Core/Src/i2c.c ****   /* USER CODE BEGIN I2C1_MspInit 1 */
 200              		.loc 1 82 5 is_stmt 0 view .LVU57
 201 0054 43F40013 		orr	r3, r3, #2097152
 202 0058 E361     		str	r3, [r4, #28]
 203              	.LVL11:
  82:Core/Src/i2c.c ****   /* USER CODE BEGIN I2C1_MspInit 1 */
 204              		.loc 1 82 5 is_stmt 1 view .LVU58
 205 005a E369     		ldr	r3, [r4, #28]
 206 005c 03F40013 		and	r3, r3, #2097152
 207 0060 0193     		str	r3, [sp, #4]
  82:Core/Src/i2c.c ****   /* USER CODE BEGIN I2C1_MspInit 1 */
 208              		.loc 1 82 5 view .LVU59
 209 0062 019B     		ldr	r3, [sp, #4]
 210              	.LBE4:
  82:Core/Src/i2c.c ****   /* USER CODE BEGIN I2C1_MspInit 1 */
 211              		.loc 1 82 5 view .LVU60
 212              		.loc 1 87 1 is_stmt 0 view .LVU61
 213 0064 D7E7     		b	.L7
 214              	.L12:
 215 0066 00BF     		.align	2
 216              	.L11:
 217 0068 00540040 		.word	1073763328
 218 006c 00100240 		.word	1073876992
 219 0070 000C0140 		.word	1073810432
 220 0074 00000140 		.word	1073807360
 221              		.cfi_endproc
 222              	.LFE66:
 224              		.section	.text.HAL_I2C_MspDeInit,"ax",%progbits
 225              		.align	1
 226              		.global	HAL_I2C_MspDeInit
 227              		.syntax unified
 228              		.thumb
 229              		.thumb_func
 231              	HAL_I2C_MspDeInit:
ARM GAS  C:\Users\Rick\AppData\Local\Temp\ccMNWg73.s 			page 7


 232              	.LVL12:
 233              	.LFB67:
  88:Core/Src/i2c.c **** 
  89:Core/Src/i2c.c **** void HAL_I2C_MspDeInit(I2C_HandleTypeDef* i2cHandle)
  90:Core/Src/i2c.c **** {
 234              		.loc 1 90 1 is_stmt 1 view -0
 235              		.cfi_startproc
 236              		@ args = 0, pretend = 0, frame = 0
 237              		@ frame_needed = 0, uses_anonymous_args = 0
  91:Core/Src/i2c.c **** 
  92:Core/Src/i2c.c ****   if(i2cHandle->Instance==I2C1)
 238              		.loc 1 92 3 view .LVU63
 239              		.loc 1 92 15 is_stmt 0 view .LVU64
 240 0000 0268     		ldr	r2, [r0]
 241              		.loc 1 92 5 view .LVU65
 242 0002 0B4B     		ldr	r3, .L20
 243 0004 9A42     		cmp	r2, r3
 244 0006 00D0     		beq	.L19
 245 0008 7047     		bx	lr
 246              	.L19:
  90:Core/Src/i2c.c **** 
 247              		.loc 1 90 1 view .LVU66
 248 000a 10B5     		push	{r4, lr}
 249              	.LCFI5:
 250              		.cfi_def_cfa_offset 8
 251              		.cfi_offset 4, -8
 252              		.cfi_offset 14, -4
  93:Core/Src/i2c.c ****   {
  94:Core/Src/i2c.c ****   /* USER CODE BEGIN I2C1_MspDeInit 0 */
  95:Core/Src/i2c.c **** 
  96:Core/Src/i2c.c ****   /* USER CODE END I2C1_MspDeInit 0 */
  97:Core/Src/i2c.c ****     /* Peripheral clock disable */
  98:Core/Src/i2c.c ****     __HAL_RCC_I2C1_CLK_DISABLE();
 253              		.loc 1 98 5 is_stmt 1 view .LVU67
 254 000c 094A     		ldr	r2, .L20+4
 255 000e D369     		ldr	r3, [r2, #28]
 256 0010 23F40013 		bic	r3, r3, #2097152
 257 0014 D361     		str	r3, [r2, #28]
  99:Core/Src/i2c.c **** 
 100:Core/Src/i2c.c ****     /**I2C1 GPIO Configuration
 101:Core/Src/i2c.c ****     PB8     ------> I2C1_SCL
 102:Core/Src/i2c.c ****     PB9     ------> I2C1_SDA
 103:Core/Src/i2c.c ****     */
 104:Core/Src/i2c.c ****     HAL_GPIO_DeInit(GPIOB, GPIO_PIN_8);
 258              		.loc 1 104 5 view .LVU68
 259 0016 084C     		ldr	r4, .L20+8
 260 0018 4FF48071 		mov	r1, #256
 261 001c 2046     		mov	r0, r4
 262              	.LVL13:
 263              		.loc 1 104 5 is_stmt 0 view .LVU69
 264 001e FFF7FEFF 		bl	HAL_GPIO_DeInit
 265              	.LVL14:
 105:Core/Src/i2c.c **** 
 106:Core/Src/i2c.c ****     HAL_GPIO_DeInit(GPIOB, GPIO_PIN_9);
 266              		.loc 1 106 5 is_stmt 1 view .LVU70
 267 0022 4FF40071 		mov	r1, #512
 268 0026 2046     		mov	r0, r4
ARM GAS  C:\Users\Rick\AppData\Local\Temp\ccMNWg73.s 			page 8


 269 0028 FFF7FEFF 		bl	HAL_GPIO_DeInit
 270              	.LVL15:
 107:Core/Src/i2c.c **** 
 108:Core/Src/i2c.c ****   /* USER CODE BEGIN I2C1_MspDeInit 1 */
 109:Core/Src/i2c.c **** 
 110:Core/Src/i2c.c ****   /* USER CODE END I2C1_MspDeInit 1 */
 111:Core/Src/i2c.c ****   }
 112:Core/Src/i2c.c **** }
 271              		.loc 1 112 1 is_stmt 0 view .LVU71
 272 002c 10BD     		pop	{r4, pc}
 273              	.L21:
 274 002e 00BF     		.align	2
 275              	.L20:
 276 0030 00540040 		.word	1073763328
 277 0034 00100240 		.word	1073876992
 278 0038 000C0140 		.word	1073810432
 279              		.cfi_endproc
 280              	.LFE67:
 282              		.global	hi2c1
 283              		.section	.bss.hi2c1,"aw",%nobits
 284              		.align	2
 285              		.set	.LANCHOR0,. + 0
 288              	hi2c1:
 289 0000 00000000 		.space	84
 289      00000000 
 289      00000000 
 289      00000000 
 289      00000000 
 290              		.text
 291              	.Letext0:
 292              		.file 2 "c:\\develop\\gnu arm embedded toolchain\\10 2021.10\\arm-none-eabi\\include\\machine\\_de
 293              		.file 3 "c:\\develop\\gnu arm embedded toolchain\\10 2021.10\\arm-none-eabi\\include\\sys\\_stdint
 294              		.file 4 "Drivers/CMSIS/Device/ST/STM32F1xx/Include/stm32f103xb.h"
 295              		.file 5 "Drivers/STM32F1xx_HAL_Driver/Inc/stm32f1xx_hal_def.h"
 296              		.file 6 "Drivers/STM32F1xx_HAL_Driver/Inc/stm32f1xx_hal_gpio.h"
 297              		.file 7 "Drivers/STM32F1xx_HAL_Driver/Inc/stm32f1xx_hal_dma.h"
 298              		.file 8 "Drivers/STM32F1xx_HAL_Driver/Inc/stm32f1xx_hal_i2c.h"
 299              		.file 9 "Core/Inc/i2c.h"
 300              		.file 10 "Core/Inc/main.h"
ARM GAS  C:\Users\Rick\AppData\Local\Temp\ccMNWg73.s 			page 9

