ARM GAS  C:\Users\Rick\AppData\Local\Temp\ccK0ATDb.s 			page 1


   1              		.cpu cortex-m3
   2              		.arch armv7-m
   3              		.fpu softvfp
   4              		.eabi_attribute 20, 1
   5              		.eabi_attribute 21, 1
   6              		.eabi_attribute 23, 3
   7              		.eabi_attribute 24, 1
   8              		.eabi_attribute 25, 1
   9              		.eabi_attribute 26, 1
  10              		.eabi_attribute 30, 1
  11              		.eabi_attribute 34, 1
  12              		.eabi_attribute 18, 4
  13              		.file	"stm32f1xx_it.c"
  14              		.text
  15              	.Ltext0:
  16              		.cfi_sections	.debug_frame
  17              		.section	.text.NMI_Handler,"ax",%progbits
  18              		.align	1
  19              		.global	NMI_Handler
  20              		.syntax unified
  21              		.thumb
  22              		.thumb_func
  24              	NMI_Handler:
  25              	.LFB65:
  26              		.file 1 "Core/Src/stm32f1xx_it.c"
   1:Core/Src/stm32f1xx_it.c **** /* USER CODE BEGIN Header */
   2:Core/Src/stm32f1xx_it.c **** /**
   3:Core/Src/stm32f1xx_it.c ****  ******************************************************************************
   4:Core/Src/stm32f1xx_it.c ****  * @file    stm32f1xx_it.c
   5:Core/Src/stm32f1xx_it.c ****  * @brief   Interrupt Service Routines.
   6:Core/Src/stm32f1xx_it.c ****  ******************************************************************************
   7:Core/Src/stm32f1xx_it.c ****  * @attention
   8:Core/Src/stm32f1xx_it.c ****  *
   9:Core/Src/stm32f1xx_it.c ****  * Copyright (c) 2023 STMicroelectronics.
  10:Core/Src/stm32f1xx_it.c ****  * All rights reserved.
  11:Core/Src/stm32f1xx_it.c ****  *
  12:Core/Src/stm32f1xx_it.c ****  * This software is licensed under terms that can be found in the LICENSE file
  13:Core/Src/stm32f1xx_it.c ****  * in the root directory of this software component.
  14:Core/Src/stm32f1xx_it.c ****  * If no LICENSE file comes with this software, it is provided AS-IS.
  15:Core/Src/stm32f1xx_it.c ****  *
  16:Core/Src/stm32f1xx_it.c ****  ******************************************************************************
  17:Core/Src/stm32f1xx_it.c ****  */
  18:Core/Src/stm32f1xx_it.c **** /* USER CODE END Header */
  19:Core/Src/stm32f1xx_it.c **** 
  20:Core/Src/stm32f1xx_it.c **** /* Includes ------------------------------------------------------------------*/
  21:Core/Src/stm32f1xx_it.c **** #include "stm32f1xx_it.h"
  22:Core/Src/stm32f1xx_it.c **** 
  23:Core/Src/stm32f1xx_it.c **** #include "main.h"
  24:Core/Src/stm32f1xx_it.c **** /* Private includes ----------------------------------------------------------*/
  25:Core/Src/stm32f1xx_it.c **** /* USER CODE BEGIN Includes */
  26:Core/Src/stm32f1xx_it.c **** #include "log.h"
  27:Core/Src/stm32f1xx_it.c **** /* USER CODE END Includes */
  28:Core/Src/stm32f1xx_it.c **** 
  29:Core/Src/stm32f1xx_it.c **** /* Private typedef -----------------------------------------------------------*/
  30:Core/Src/stm32f1xx_it.c **** /* USER CODE BEGIN TD */
  31:Core/Src/stm32f1xx_it.c **** 
  32:Core/Src/stm32f1xx_it.c **** /* USER CODE END TD */
ARM GAS  C:\Users\Rick\AppData\Local\Temp\ccK0ATDb.s 			page 2


  33:Core/Src/stm32f1xx_it.c **** 
  34:Core/Src/stm32f1xx_it.c **** /* Private define ------------------------------------------------------------*/
  35:Core/Src/stm32f1xx_it.c **** /* USER CODE BEGIN PD */
  36:Core/Src/stm32f1xx_it.c **** 
  37:Core/Src/stm32f1xx_it.c **** /* USER CODE END PD */
  38:Core/Src/stm32f1xx_it.c **** 
  39:Core/Src/stm32f1xx_it.c **** /* Private macro -------------------------------------------------------------*/
  40:Core/Src/stm32f1xx_it.c **** /* USER CODE BEGIN PM */
  41:Core/Src/stm32f1xx_it.c **** 
  42:Core/Src/stm32f1xx_it.c **** /* USER CODE END PM */
  43:Core/Src/stm32f1xx_it.c **** 
  44:Core/Src/stm32f1xx_it.c **** /* Private variables ---------------------------------------------------------*/
  45:Core/Src/stm32f1xx_it.c **** /* USER CODE BEGIN PV */
  46:Core/Src/stm32f1xx_it.c **** 
  47:Core/Src/stm32f1xx_it.c **** /* USER CODE END PV */
  48:Core/Src/stm32f1xx_it.c **** 
  49:Core/Src/stm32f1xx_it.c **** /* Private function prototypes -----------------------------------------------*/
  50:Core/Src/stm32f1xx_it.c **** /* USER CODE BEGIN PFP */
  51:Core/Src/stm32f1xx_it.c **** 
  52:Core/Src/stm32f1xx_it.c **** /* USER CODE END PFP */
  53:Core/Src/stm32f1xx_it.c **** 
  54:Core/Src/stm32f1xx_it.c **** /* Private user code ---------------------------------------------------------*/
  55:Core/Src/stm32f1xx_it.c **** /* USER CODE BEGIN 0 */
  56:Core/Src/stm32f1xx_it.c **** 
  57:Core/Src/stm32f1xx_it.c **** /* USER CODE END 0 */
  58:Core/Src/stm32f1xx_it.c **** 
  59:Core/Src/stm32f1xx_it.c **** /* External variables --------------------------------------------------------*/
  60:Core/Src/stm32f1xx_it.c **** 
  61:Core/Src/stm32f1xx_it.c **** /* USER CODE BEGIN EV */
  62:Core/Src/stm32f1xx_it.c **** 
  63:Core/Src/stm32f1xx_it.c **** /* USER CODE END EV */
  64:Core/Src/stm32f1xx_it.c **** 
  65:Core/Src/stm32f1xx_it.c **** /******************************************************************************/
  66:Core/Src/stm32f1xx_it.c **** /*           Cortex-M3 Processor Interruption and Exception Handlers          */
  67:Core/Src/stm32f1xx_it.c **** /******************************************************************************/
  68:Core/Src/stm32f1xx_it.c **** /**
  69:Core/Src/stm32f1xx_it.c ****  * @brief This function handles Non maskable interrupt.
  70:Core/Src/stm32f1xx_it.c ****  */
  71:Core/Src/stm32f1xx_it.c **** void NMI_Handler(void) {
  27              		.loc 1 71 24 view -0
  28              		.cfi_startproc
  29              		@ Volatile: function does not return.
  30              		@ args = 0, pretend = 0, frame = 0
  31              		@ frame_needed = 0, uses_anonymous_args = 0
  32              		@ link register save eliminated.
  33              	.L2:
  72:Core/Src/stm32f1xx_it.c ****   /* USER CODE BEGIN NonMaskableInt_IRQn 0 */
  73:Core/Src/stm32f1xx_it.c **** 
  74:Core/Src/stm32f1xx_it.c ****   /* USER CODE END NonMaskableInt_IRQn 0 */
  75:Core/Src/stm32f1xx_it.c ****   /* USER CODE BEGIN NonMaskableInt_IRQn 1 */
  76:Core/Src/stm32f1xx_it.c ****   while (1) {
  34              		.loc 1 76 3 discriminator 1 view .LVU1
  77:Core/Src/stm32f1xx_it.c ****   }
  35              		.loc 1 77 3 discriminator 1 view .LVU2
  76:Core/Src/stm32f1xx_it.c ****   }
  36              		.loc 1 76 9 discriminator 1 view .LVU3
  37 0000 FEE7     		b	.L2
ARM GAS  C:\Users\Rick\AppData\Local\Temp\ccK0ATDb.s 			page 3


  38              		.cfi_endproc
  39              	.LFE65:
  41              		.section	.text.HardFault_Handler,"ax",%progbits
  42              		.align	1
  43              		.global	HardFault_Handler
  44              		.syntax unified
  45              		.thumb
  46              		.thumb_func
  48              	HardFault_Handler:
  49              	.LFB66:
  78:Core/Src/stm32f1xx_it.c ****   /* USER CODE END NonMaskableInt_IRQn 1 */
  79:Core/Src/stm32f1xx_it.c **** }
  80:Core/Src/stm32f1xx_it.c **** 
  81:Core/Src/stm32f1xx_it.c **** /**
  82:Core/Src/stm32f1xx_it.c ****  * @brief This function handles Hard fault interrupt.
  83:Core/Src/stm32f1xx_it.c ****  */
  84:Core/Src/stm32f1xx_it.c **** void HardFault_Handler(void) {
  50              		.loc 1 84 30 view -0
  51              		.cfi_startproc
  52              		@ Volatile: function does not return.
  53              		@ args = 0, pretend = 0, frame = 0
  54              		@ frame_needed = 0, uses_anonymous_args = 0
  55              		@ link register save eliminated.
  56              	.L4:
  85:Core/Src/stm32f1xx_it.c ****   /* USER CODE BEGIN HardFault_IRQn 0 */
  86:Core/Src/stm32f1xx_it.c **** 
  87:Core/Src/stm32f1xx_it.c ****   /* USER CODE END HardFault_IRQn 0 */
  88:Core/Src/stm32f1xx_it.c ****   while (1) {
  57              		.loc 1 88 3 discriminator 1 view .LVU5
  89:Core/Src/stm32f1xx_it.c ****     /* USER CODE BEGIN W1_HardFault_IRQn 0 */
  90:Core/Src/stm32f1xx_it.c ****     /* USER CODE END W1_HardFault_IRQn 0 */
  91:Core/Src/stm32f1xx_it.c ****   }
  58              		.loc 1 91 3 discriminator 1 view .LVU6
  88:Core/Src/stm32f1xx_it.c ****     /* USER CODE BEGIN W1_HardFault_IRQn 0 */
  59              		.loc 1 88 9 discriminator 1 view .LVU7
  60 0000 FEE7     		b	.L4
  61              		.cfi_endproc
  62              	.LFE66:
  64              		.section	.text.MemManage_Handler,"ax",%progbits
  65              		.align	1
  66              		.global	MemManage_Handler
  67              		.syntax unified
  68              		.thumb
  69              		.thumb_func
  71              	MemManage_Handler:
  72              	.LFB67:
  92:Core/Src/stm32f1xx_it.c **** }
  93:Core/Src/stm32f1xx_it.c **** 
  94:Core/Src/stm32f1xx_it.c **** /**
  95:Core/Src/stm32f1xx_it.c ****  * @brief This function handles Memory management fault.
  96:Core/Src/stm32f1xx_it.c ****  */
  97:Core/Src/stm32f1xx_it.c **** void MemManage_Handler(void) {
  73              		.loc 1 97 30 view -0
  74              		.cfi_startproc
  75              		@ Volatile: function does not return.
  76              		@ args = 0, pretend = 0, frame = 0
  77              		@ frame_needed = 0, uses_anonymous_args = 0
ARM GAS  C:\Users\Rick\AppData\Local\Temp\ccK0ATDb.s 			page 4


  78              		@ link register save eliminated.
  79              	.L6:
  98:Core/Src/stm32f1xx_it.c ****   /* USER CODE BEGIN MemoryManagement_IRQn 0 */
  99:Core/Src/stm32f1xx_it.c **** 
 100:Core/Src/stm32f1xx_it.c ****   /* USER CODE END MemoryManagement_IRQn 0 */
 101:Core/Src/stm32f1xx_it.c ****   while (1) {
  80              		.loc 1 101 3 discriminator 1 view .LVU9
 102:Core/Src/stm32f1xx_it.c ****     /* USER CODE BEGIN W1_MemoryManagement_IRQn 0 */
 103:Core/Src/stm32f1xx_it.c ****     /* USER CODE END W1_MemoryManagement_IRQn 0 */
 104:Core/Src/stm32f1xx_it.c ****   }
  81              		.loc 1 104 3 discriminator 1 view .LVU10
 101:Core/Src/stm32f1xx_it.c ****     /* USER CODE BEGIN W1_MemoryManagement_IRQn 0 */
  82              		.loc 1 101 9 discriminator 1 view .LVU11
  83 0000 FEE7     		b	.L6
  84              		.cfi_endproc
  85              	.LFE67:
  87              		.section	.text.BusFault_Handler,"ax",%progbits
  88              		.align	1
  89              		.global	BusFault_Handler
  90              		.syntax unified
  91              		.thumb
  92              		.thumb_func
  94              	BusFault_Handler:
  95              	.LFB68:
 105:Core/Src/stm32f1xx_it.c **** }
 106:Core/Src/stm32f1xx_it.c **** 
 107:Core/Src/stm32f1xx_it.c **** /**
 108:Core/Src/stm32f1xx_it.c ****  * @brief This function handles Prefetch fault, memory access fault.
 109:Core/Src/stm32f1xx_it.c ****  */
 110:Core/Src/stm32f1xx_it.c **** void BusFault_Handler(void) {
  96              		.loc 1 110 29 view -0
  97              		.cfi_startproc
  98              		@ Volatile: function does not return.
  99              		@ args = 0, pretend = 0, frame = 0
 100              		@ frame_needed = 0, uses_anonymous_args = 0
 101              		@ link register save eliminated.
 102              	.L8:
 111:Core/Src/stm32f1xx_it.c ****   /* USER CODE BEGIN BusFault_IRQn 0 */
 112:Core/Src/stm32f1xx_it.c **** 
 113:Core/Src/stm32f1xx_it.c ****   /* USER CODE END BusFault_IRQn 0 */
 114:Core/Src/stm32f1xx_it.c ****   while (1) {
 103              		.loc 1 114 3 discriminator 1 view .LVU13
 115:Core/Src/stm32f1xx_it.c ****     /* USER CODE BEGIN W1_BusFault_IRQn 0 */
 116:Core/Src/stm32f1xx_it.c ****     /* USER CODE END W1_BusFault_IRQn 0 */
 117:Core/Src/stm32f1xx_it.c ****   }
 104              		.loc 1 117 3 discriminator 1 view .LVU14
 114:Core/Src/stm32f1xx_it.c ****     /* USER CODE BEGIN W1_BusFault_IRQn 0 */
 105              		.loc 1 114 9 discriminator 1 view .LVU15
 106 0000 FEE7     		b	.L8
 107              		.cfi_endproc
 108              	.LFE68:
 110              		.section	.text.UsageFault_Handler,"ax",%progbits
 111              		.align	1
 112              		.global	UsageFault_Handler
 113              		.syntax unified
 114              		.thumb
 115              		.thumb_func
ARM GAS  C:\Users\Rick\AppData\Local\Temp\ccK0ATDb.s 			page 5


 117              	UsageFault_Handler:
 118              	.LFB69:
 118:Core/Src/stm32f1xx_it.c **** }
 119:Core/Src/stm32f1xx_it.c **** 
 120:Core/Src/stm32f1xx_it.c **** /**
 121:Core/Src/stm32f1xx_it.c ****  * @brief This function handles Undefined instruction or illegal state.
 122:Core/Src/stm32f1xx_it.c ****  */
 123:Core/Src/stm32f1xx_it.c **** void UsageFault_Handler(void) {
 119              		.loc 1 123 31 view -0
 120              		.cfi_startproc
 121              		@ Volatile: function does not return.
 122              		@ args = 0, pretend = 0, frame = 0
 123              		@ frame_needed = 0, uses_anonymous_args = 0
 124              		@ link register save eliminated.
 125              	.L10:
 124:Core/Src/stm32f1xx_it.c ****   /* USER CODE BEGIN UsageFault_IRQn 0 */
 125:Core/Src/stm32f1xx_it.c **** 
 126:Core/Src/stm32f1xx_it.c ****   /* USER CODE END UsageFault_IRQn 0 */
 127:Core/Src/stm32f1xx_it.c ****   while (1) {
 126              		.loc 1 127 3 discriminator 1 view .LVU17
 128:Core/Src/stm32f1xx_it.c ****     /* USER CODE BEGIN W1_UsageFault_IRQn 0 */
 129:Core/Src/stm32f1xx_it.c ****     /* USER CODE END W1_UsageFault_IRQn 0 */
 130:Core/Src/stm32f1xx_it.c ****   }
 127              		.loc 1 130 3 discriminator 1 view .LVU18
 127:Core/Src/stm32f1xx_it.c ****     /* USER CODE BEGIN W1_UsageFault_IRQn 0 */
 128              		.loc 1 127 9 discriminator 1 view .LVU19
 129 0000 FEE7     		b	.L10
 130              		.cfi_endproc
 131              	.LFE69:
 133              		.section	.text.SVC_Handler,"ax",%progbits
 134              		.align	1
 135              		.global	SVC_Handler
 136              		.syntax unified
 137              		.thumb
 138              		.thumb_func
 140              	SVC_Handler:
 141              	.LFB70:
 131:Core/Src/stm32f1xx_it.c **** }
 132:Core/Src/stm32f1xx_it.c **** 
 133:Core/Src/stm32f1xx_it.c **** /**
 134:Core/Src/stm32f1xx_it.c ****  * @brief This function handles System service call via SWI instruction.
 135:Core/Src/stm32f1xx_it.c ****  */
 136:Core/Src/stm32f1xx_it.c **** void SVC_Handler(void) {
 142              		.loc 1 136 24 view -0
 143              		.cfi_startproc
 144              		@ args = 0, pretend = 0, frame = 0
 145              		@ frame_needed = 0, uses_anonymous_args = 0
 146              		@ link register save eliminated.
 137:Core/Src/stm32f1xx_it.c ****   /* USER CODE BEGIN SVCall_IRQn 0 */
 138:Core/Src/stm32f1xx_it.c **** 
 139:Core/Src/stm32f1xx_it.c ****   /* USER CODE END SVCall_IRQn 0 */
 140:Core/Src/stm32f1xx_it.c ****   /* USER CODE BEGIN SVCall_IRQn 1 */
 141:Core/Src/stm32f1xx_it.c **** 
 142:Core/Src/stm32f1xx_it.c ****   /* USER CODE END SVCall_IRQn 1 */
 143:Core/Src/stm32f1xx_it.c **** }
 147              		.loc 1 143 1 view .LVU21
 148 0000 7047     		bx	lr
ARM GAS  C:\Users\Rick\AppData\Local\Temp\ccK0ATDb.s 			page 6


 149              		.cfi_endproc
 150              	.LFE70:
 152              		.section	.text.DebugMon_Handler,"ax",%progbits
 153              		.align	1
 154              		.global	DebugMon_Handler
 155              		.syntax unified
 156              		.thumb
 157              		.thumb_func
 159              	DebugMon_Handler:
 160              	.LFB71:
 144:Core/Src/stm32f1xx_it.c **** 
 145:Core/Src/stm32f1xx_it.c **** /**
 146:Core/Src/stm32f1xx_it.c ****  * @brief This function handles Debug monitor.
 147:Core/Src/stm32f1xx_it.c ****  */
 148:Core/Src/stm32f1xx_it.c **** void DebugMon_Handler(void) {
 161              		.loc 1 148 29 view -0
 162              		.cfi_startproc
 163              		@ args = 0, pretend = 0, frame = 0
 164              		@ frame_needed = 0, uses_anonymous_args = 0
 165              		@ link register save eliminated.
 149:Core/Src/stm32f1xx_it.c ****   /* USER CODE BEGIN DebugMonitor_IRQn 0 */
 150:Core/Src/stm32f1xx_it.c **** 
 151:Core/Src/stm32f1xx_it.c ****   /* USER CODE END DebugMonitor_IRQn 0 */
 152:Core/Src/stm32f1xx_it.c ****   /* USER CODE BEGIN DebugMonitor_IRQn 1 */
 153:Core/Src/stm32f1xx_it.c **** 
 154:Core/Src/stm32f1xx_it.c ****   /* USER CODE END DebugMonitor_IRQn 1 */
 155:Core/Src/stm32f1xx_it.c **** }
 166              		.loc 1 155 1 view .LVU23
 167 0000 7047     		bx	lr
 168              		.cfi_endproc
 169              	.LFE71:
 171              		.section	.text.PendSV_Handler,"ax",%progbits
 172              		.align	1
 173              		.global	PendSV_Handler
 174              		.syntax unified
 175              		.thumb
 176              		.thumb_func
 178              	PendSV_Handler:
 179              	.LFB72:
 156:Core/Src/stm32f1xx_it.c **** 
 157:Core/Src/stm32f1xx_it.c **** /**
 158:Core/Src/stm32f1xx_it.c ****  * @brief This function handles Pendable request for system service.
 159:Core/Src/stm32f1xx_it.c ****  */
 160:Core/Src/stm32f1xx_it.c **** void PendSV_Handler(void) {
 180              		.loc 1 160 27 view -0
 181              		.cfi_startproc
 182              		@ args = 0, pretend = 0, frame = 0
 183              		@ frame_needed = 0, uses_anonymous_args = 0
 184              		@ link register save eliminated.
 161:Core/Src/stm32f1xx_it.c ****   /* USER CODE BEGIN PendSV_IRQn 0 */
 162:Core/Src/stm32f1xx_it.c **** 
 163:Core/Src/stm32f1xx_it.c ****   /* USER CODE END PendSV_IRQn 0 */
 164:Core/Src/stm32f1xx_it.c ****   /* USER CODE BEGIN PendSV_IRQn 1 */
 165:Core/Src/stm32f1xx_it.c **** 
 166:Core/Src/stm32f1xx_it.c ****   /* USER CODE END PendSV_IRQn 1 */
 167:Core/Src/stm32f1xx_it.c **** }
 185              		.loc 1 167 1 view .LVU25
ARM GAS  C:\Users\Rick\AppData\Local\Temp\ccK0ATDb.s 			page 7


 186 0000 7047     		bx	lr
 187              		.cfi_endproc
 188              	.LFE72:
 190              		.section	.text.SysTick_Handler,"ax",%progbits
 191              		.align	1
 192              		.global	SysTick_Handler
 193              		.syntax unified
 194              		.thumb
 195              		.thumb_func
 197              	SysTick_Handler:
 198              	.LFB73:
 168:Core/Src/stm32f1xx_it.c **** 
 169:Core/Src/stm32f1xx_it.c **** /**
 170:Core/Src/stm32f1xx_it.c ****  * @brief This function handles System tick timer.
 171:Core/Src/stm32f1xx_it.c ****  */
 172:Core/Src/stm32f1xx_it.c **** void SysTick_Handler(void) {
 199              		.loc 1 172 28 view -0
 200              		.cfi_startproc
 201              		@ args = 0, pretend = 0, frame = 0
 202              		@ frame_needed = 0, uses_anonymous_args = 0
 203 0000 08B5     		push	{r3, lr}
 204              	.LCFI0:
 205              		.cfi_def_cfa_offset 8
 206              		.cfi_offset 3, -8
 207              		.cfi_offset 14, -4
 173:Core/Src/stm32f1xx_it.c ****   /* USER CODE BEGIN SysTick_IRQn 0 */
 174:Core/Src/stm32f1xx_it.c **** 
 175:Core/Src/stm32f1xx_it.c ****   /* USER CODE END SysTick_IRQn 0 */
 176:Core/Src/stm32f1xx_it.c ****   HAL_IncTick();
 208              		.loc 1 176 3 view .LVU27
 209 0002 FFF7FEFF 		bl	HAL_IncTick
 210              	.LVL0:
 177:Core/Src/stm32f1xx_it.c ****   /* USER CODE BEGIN SysTick_IRQn 1 */
 178:Core/Src/stm32f1xx_it.c **** 
 179:Core/Src/stm32f1xx_it.c ****   /* USER CODE END SysTick_IRQn 1 */
 180:Core/Src/stm32f1xx_it.c **** }
 211              		.loc 1 180 1 is_stmt 0 view .LVU28
 212 0006 08BD     		pop	{r3, pc}
 213              		.cfi_endproc
 214              	.LFE73:
 216              		.section	.text.EXTI15_10_IRQHandler,"ax",%progbits
 217              		.align	1
 218              		.global	EXTI15_10_IRQHandler
 219              		.syntax unified
 220              		.thumb
 221              		.thumb_func
 223              	EXTI15_10_IRQHandler:
 224              	.LFB74:
 181:Core/Src/stm32f1xx_it.c **** 
 182:Core/Src/stm32f1xx_it.c **** /******************************************************************************/
 183:Core/Src/stm32f1xx_it.c **** /* STM32F1xx Peripheral Interrupt Handlers                                    */
 184:Core/Src/stm32f1xx_it.c **** /* Add here the Interrupt Handlers for the used peripherals.                  */
 185:Core/Src/stm32f1xx_it.c **** /* For the available peripheral interrupt handler names,                      */
 186:Core/Src/stm32f1xx_it.c **** /* please refer to the startup file (startup_stm32f1xx.s).                    */
 187:Core/Src/stm32f1xx_it.c **** /******************************************************************************/
 188:Core/Src/stm32f1xx_it.c **** 
 189:Core/Src/stm32f1xx_it.c **** /**
ARM GAS  C:\Users\Rick\AppData\Local\Temp\ccK0ATDb.s 			page 8


 190:Core/Src/stm32f1xx_it.c ****  * @brief This function handles EXTI line[15:10] interrupts.
 191:Core/Src/stm32f1xx_it.c ****  */
 192:Core/Src/stm32f1xx_it.c **** void EXTI15_10_IRQHandler(void) {
 225              		.loc 1 192 33 is_stmt 1 view -0
 226              		.cfi_startproc
 227              		@ args = 0, pretend = 0, frame = 0
 228              		@ frame_needed = 0, uses_anonymous_args = 0
 229 0000 08B5     		push	{r3, lr}
 230              	.LCFI1:
 231              		.cfi_def_cfa_offset 8
 232              		.cfi_offset 3, -8
 233              		.cfi_offset 14, -4
 193:Core/Src/stm32f1xx_it.c ****   /* USER CODE BEGIN EXTI15_10_IRQn 0 */
 194:Core/Src/stm32f1xx_it.c **** 
 195:Core/Src/stm32f1xx_it.c ****   /* USER CODE END EXTI15_10_IRQn 0 */
 196:Core/Src/stm32f1xx_it.c ****   HAL_GPIO_EXTI_IRQHandler(ALERT_Pin);
 234              		.loc 1 196 3 view .LVU30
 235 0002 4FF40050 		mov	r0, #8192
 236 0006 FFF7FEFF 		bl	HAL_GPIO_EXTI_IRQHandler
 237              	.LVL1:
 197:Core/Src/stm32f1xx_it.c ****   /* USER CODE BEGIN EXTI15_10_IRQn 1 */
 198:Core/Src/stm32f1xx_it.c **** 
 199:Core/Src/stm32f1xx_it.c ****   /* USER CODE END EXTI15_10_IRQn 1 */
 200:Core/Src/stm32f1xx_it.c **** }
 238              		.loc 1 200 1 is_stmt 0 view .LVU31
 239 000a 08BD     		pop	{r3, pc}
 240              		.cfi_endproc
 241              	.LFE74:
 243              		.section	.rodata.HAL_GPIO_EXTI_Callback.str1.4,"aMS",%progbits,1
 244              		.align	2
 245              	.LC0:
 246 0000 436F7265 		.ascii	"Core/Src/stm32f1xx_it.c\000"
 246      2F537263 
 246      2F73746D 
 246      33326631 
 246      78785F69 
 247              		.align	2
 248              	.LC1:
 249 0018 616C6572 		.ascii	"alert\000"
 249      7400
 250              		.section	.text.HAL_GPIO_EXTI_Callback,"ax",%progbits
 251              		.align	1
 252              		.global	HAL_GPIO_EXTI_Callback
 253              		.syntax unified
 254              		.thumb
 255              		.thumb_func
 257              	HAL_GPIO_EXTI_Callback:
 258              	.LVL2:
 259              	.LFB75:
 201:Core/Src/stm32f1xx_it.c **** 
 202:Core/Src/stm32f1xx_it.c **** /* USER CODE BEGIN 1 */
 203:Core/Src/stm32f1xx_it.c **** void HAL_GPIO_EXTI_Callback(uint16_t GPIO_Pin) {
 260              		.loc 1 203 48 is_stmt 1 view -0
 261              		.cfi_startproc
 262              		@ args = 0, pretend = 0, frame = 0
 263              		@ frame_needed = 0, uses_anonymous_args = 0
 204:Core/Src/stm32f1xx_it.c ****   if (GPIO_Pin == ALERT_Pin) {
ARM GAS  C:\Users\Rick\AppData\Local\Temp\ccK0ATDb.s 			page 9


 264              		.loc 1 204 3 view .LVU33
 265              		.loc 1 204 6 is_stmt 0 view .LVU34
 266 0000 B0F5005F 		cmp	r0, #8192
 267 0004 00D0     		beq	.L24
 268 0006 7047     		bx	lr
 269              	.L24:
 203:Core/Src/stm32f1xx_it.c ****   if (GPIO_Pin == ALERT_Pin) {
 270              		.loc 1 203 48 view .LVU35
 271 0008 00B5     		push	{lr}
 272              	.LCFI2:
 273              		.cfi_def_cfa_offset 4
 274              		.cfi_offset 14, -4
 275 000a 83B0     		sub	sp, sp, #12
 276              	.LCFI3:
 277              		.cfi_def_cfa_offset 16
 205:Core/Src/stm32f1xx_it.c ****     CAW_LOG_WARN("alert");
 278              		.loc 1 205 5 is_stmt 1 view .LVU36
 279 000c 054B     		ldr	r3, .L25
 280 000e 0093     		str	r3, [sp]
 281 0010 CD23     		movs	r3, #205
 282 0012 054A     		ldr	r2, .L25+4
 283 0014 41F20201 		movw	r1, #4098
 284 0018 0448     		ldr	r0, .L25+8
 285              	.LVL3:
 286              		.loc 1 205 5 is_stmt 0 view .LVU37
 287 001a FFF7FEFF 		bl	CAW_LOG_Write
 288              	.LVL4:
 206:Core/Src/stm32f1xx_it.c ****   }
 207:Core/Src/stm32f1xx_it.c **** }
 289              		.loc 1 207 1 view .LVU38
 290 001e 03B0     		add	sp, sp, #12
 291              	.LCFI4:
 292              		.cfi_def_cfa_offset 4
 293              		@ sp needed
 294 0020 5DF804FB 		ldr	pc, [sp], #4
 295              	.L26:
 296              		.align	2
 297              	.L25:
 298 0024 00000000 		.word	.LANCHOR0
 299 0028 00000000 		.word	.LC0
 300 002c 18000000 		.word	.LC1
 301              		.cfi_endproc
 302              	.LFE75:
 304              		.section	.rodata.__FUNCTION__.0,"a"
 305              		.align	2
 306              		.set	.LANCHOR0,. + 0
 309              	__FUNCTION__.0:
 310 0000 48414C5F 		.ascii	"HAL_GPIO_EXTI_Callback\000"
 310      4750494F 
 310      5F455854 
 310      495F4361 
 310      6C6C6261 
 311              		.text
 312              	.Letext0:
 313              		.file 2 "c:\\develop\\gnu arm embedded toolchain\\10 2021.10\\arm-none-eabi\\include\\machine\\_de
 314              		.file 3 "c:\\develop\\gnu arm embedded toolchain\\10 2021.10\\arm-none-eabi\\include\\sys\\_stdint
 315              		.file 4 "CAW-PACKAGES/Utils/Log/log.h"
ARM GAS  C:\Users\Rick\AppData\Local\Temp\ccK0ATDb.s 			page 10


 316              		.file 5 "Drivers/STM32F1xx_HAL_Driver/Inc/stm32f1xx_hal_gpio.h"
 317              		.file 6 "Drivers/STM32F1xx_HAL_Driver/Inc/stm32f1xx_hal.h"
ARM GAS  C:\Users\Rick\AppData\Local\Temp\ccK0ATDb.s 			page 11

