ARM GAS  C:\Users\Rick\AppData\Local\Temp\ccbuSalp.s 			page 1


   1              		.cpu cortex-m3
   2              		.arch armv7-m
   3              		.fpu softvfp
   4              		.eabi_attribute 20, 1
   5              		.eabi_attribute 21, 1
   6              		.eabi_attribute 23, 3
   7              		.eabi_attribute 24, 1
   8              		.eabi_attribute 25, 1
   9              		.eabi_attribute 26, 1
  10              		.eabi_attribute 30, 1
  11              		.eabi_attribute 34, 1
  12              		.eabi_attribute 18, 4
  13              		.file	"stm32f1xx_hal_can.c"
  14              		.text
  15              	.Ltext0:
  16              		.cfi_sections	.debug_frame
  17              		.section	.text.HAL_CAN_MspInit,"ax",%progbits
  18              		.align	1
  19              		.weak	HAL_CAN_MspInit
  20              		.syntax unified
  21              		.thumb
  22              		.thumb_func
  24              	HAL_CAN_MspInit:
  25              	.LVL0:
  26              	.LFB67:
  27              		.file 1 "Drivers/STM32F1xx_HAL_Driver/Src/stm32f1xx_hal_can.c"
   1:Drivers/STM32F1xx_HAL_Driver/Src/stm32f1xx_hal_can.c **** /**
   2:Drivers/STM32F1xx_HAL_Driver/Src/stm32f1xx_hal_can.c ****   ******************************************************************************
   3:Drivers/STM32F1xx_HAL_Driver/Src/stm32f1xx_hal_can.c ****   * @file    stm32f1xx_hal_can.c
   4:Drivers/STM32F1xx_HAL_Driver/Src/stm32f1xx_hal_can.c ****   * @author  MCD Application Team
   5:Drivers/STM32F1xx_HAL_Driver/Src/stm32f1xx_hal_can.c ****   * @brief   CAN HAL module driver.
   6:Drivers/STM32F1xx_HAL_Driver/Src/stm32f1xx_hal_can.c ****   *          This file provides firmware functions to manage the following
   7:Drivers/STM32F1xx_HAL_Driver/Src/stm32f1xx_hal_can.c ****   *          functionalities of the Controller Area Network (CAN) peripheral:
   8:Drivers/STM32F1xx_HAL_Driver/Src/stm32f1xx_hal_can.c ****   *           + Initialization and de-initialization functions
   9:Drivers/STM32F1xx_HAL_Driver/Src/stm32f1xx_hal_can.c ****   *           + Configuration functions
  10:Drivers/STM32F1xx_HAL_Driver/Src/stm32f1xx_hal_can.c ****   *           + Control functions
  11:Drivers/STM32F1xx_HAL_Driver/Src/stm32f1xx_hal_can.c ****   *           + Interrupts management
  12:Drivers/STM32F1xx_HAL_Driver/Src/stm32f1xx_hal_can.c ****   *           + Callbacks functions
  13:Drivers/STM32F1xx_HAL_Driver/Src/stm32f1xx_hal_can.c ****   *           + Peripheral State and Error functions
  14:Drivers/STM32F1xx_HAL_Driver/Src/stm32f1xx_hal_can.c ****   *
  15:Drivers/STM32F1xx_HAL_Driver/Src/stm32f1xx_hal_can.c ****   ******************************************************************************
  16:Drivers/STM32F1xx_HAL_Driver/Src/stm32f1xx_hal_can.c ****   * @attention
  17:Drivers/STM32F1xx_HAL_Driver/Src/stm32f1xx_hal_can.c ****   *
  18:Drivers/STM32F1xx_HAL_Driver/Src/stm32f1xx_hal_can.c ****   * Copyright (c) 2016 STMicroelectronics.
  19:Drivers/STM32F1xx_HAL_Driver/Src/stm32f1xx_hal_can.c ****   * All rights reserved.
  20:Drivers/STM32F1xx_HAL_Driver/Src/stm32f1xx_hal_can.c ****   *
  21:Drivers/STM32F1xx_HAL_Driver/Src/stm32f1xx_hal_can.c ****   * This software is licensed under terms that can be found in the LICENSE file
  22:Drivers/STM32F1xx_HAL_Driver/Src/stm32f1xx_hal_can.c ****   * in the root directory of this software component.
  23:Drivers/STM32F1xx_HAL_Driver/Src/stm32f1xx_hal_can.c ****   * If no LICENSE file comes with this software, it is provided AS-IS.
  24:Drivers/STM32F1xx_HAL_Driver/Src/stm32f1xx_hal_can.c ****   *
  25:Drivers/STM32F1xx_HAL_Driver/Src/stm32f1xx_hal_can.c ****   ******************************************************************************
  26:Drivers/STM32F1xx_HAL_Driver/Src/stm32f1xx_hal_can.c ****   @verbatim
  27:Drivers/STM32F1xx_HAL_Driver/Src/stm32f1xx_hal_can.c ****   ==============================================================================
  28:Drivers/STM32F1xx_HAL_Driver/Src/stm32f1xx_hal_can.c ****                         ##### How to use this driver #####
  29:Drivers/STM32F1xx_HAL_Driver/Src/stm32f1xx_hal_can.c ****   ==============================================================================
  30:Drivers/STM32F1xx_HAL_Driver/Src/stm32f1xx_hal_can.c ****     [..]
  31:Drivers/STM32F1xx_HAL_Driver/Src/stm32f1xx_hal_can.c ****       (#) Initialize the CAN low level resources by implementing the
ARM GAS  C:\Users\Rick\AppData\Local\Temp\ccbuSalp.s 			page 2


  32:Drivers/STM32F1xx_HAL_Driver/Src/stm32f1xx_hal_can.c ****           HAL_CAN_MspInit():
  33:Drivers/STM32F1xx_HAL_Driver/Src/stm32f1xx_hal_can.c ****          (++) Enable the CAN interface clock using __HAL_RCC_CANx_CLK_ENABLE()
  34:Drivers/STM32F1xx_HAL_Driver/Src/stm32f1xx_hal_can.c ****          (++) Configure CAN pins
  35:Drivers/STM32F1xx_HAL_Driver/Src/stm32f1xx_hal_can.c ****              (+++) Enable the clock for the CAN GPIOs
  36:Drivers/STM32F1xx_HAL_Driver/Src/stm32f1xx_hal_can.c ****              (+++) Configure CAN pins as alternate function open-drain
  37:Drivers/STM32F1xx_HAL_Driver/Src/stm32f1xx_hal_can.c ****          (++) In case of using interrupts (e.g. HAL_CAN_ActivateNotification())
  38:Drivers/STM32F1xx_HAL_Driver/Src/stm32f1xx_hal_can.c ****              (+++) Configure the CAN interrupt priority using
  39:Drivers/STM32F1xx_HAL_Driver/Src/stm32f1xx_hal_can.c ****                    HAL_NVIC_SetPriority()
  40:Drivers/STM32F1xx_HAL_Driver/Src/stm32f1xx_hal_can.c ****              (+++) Enable the CAN IRQ handler using HAL_NVIC_EnableIRQ()
  41:Drivers/STM32F1xx_HAL_Driver/Src/stm32f1xx_hal_can.c ****              (+++) In CAN IRQ handler, call HAL_CAN_IRQHandler()
  42:Drivers/STM32F1xx_HAL_Driver/Src/stm32f1xx_hal_can.c **** 
  43:Drivers/STM32F1xx_HAL_Driver/Src/stm32f1xx_hal_can.c ****       (#) Initialize the CAN peripheral using HAL_CAN_Init() function. This
  44:Drivers/STM32F1xx_HAL_Driver/Src/stm32f1xx_hal_can.c ****           function resorts to HAL_CAN_MspInit() for low-level initialization.
  45:Drivers/STM32F1xx_HAL_Driver/Src/stm32f1xx_hal_can.c **** 
  46:Drivers/STM32F1xx_HAL_Driver/Src/stm32f1xx_hal_can.c ****       (#) Configure the reception filters using the following configuration
  47:Drivers/STM32F1xx_HAL_Driver/Src/stm32f1xx_hal_can.c ****           functions:
  48:Drivers/STM32F1xx_HAL_Driver/Src/stm32f1xx_hal_can.c ****             (++) HAL_CAN_ConfigFilter()
  49:Drivers/STM32F1xx_HAL_Driver/Src/stm32f1xx_hal_can.c **** 
  50:Drivers/STM32F1xx_HAL_Driver/Src/stm32f1xx_hal_can.c ****       (#) Start the CAN module using HAL_CAN_Start() function. At this level
  51:Drivers/STM32F1xx_HAL_Driver/Src/stm32f1xx_hal_can.c ****           the node is active on the bus: it receive messages, and can send
  52:Drivers/STM32F1xx_HAL_Driver/Src/stm32f1xx_hal_can.c ****           messages.
  53:Drivers/STM32F1xx_HAL_Driver/Src/stm32f1xx_hal_can.c **** 
  54:Drivers/STM32F1xx_HAL_Driver/Src/stm32f1xx_hal_can.c ****       (#) To manage messages transmission, the following Tx control functions
  55:Drivers/STM32F1xx_HAL_Driver/Src/stm32f1xx_hal_can.c ****           can be used:
  56:Drivers/STM32F1xx_HAL_Driver/Src/stm32f1xx_hal_can.c ****             (++) HAL_CAN_AddTxMessage() to request transmission of a new
  57:Drivers/STM32F1xx_HAL_Driver/Src/stm32f1xx_hal_can.c ****                  message.
  58:Drivers/STM32F1xx_HAL_Driver/Src/stm32f1xx_hal_can.c ****             (++) HAL_CAN_AbortTxRequest() to abort transmission of a pending
  59:Drivers/STM32F1xx_HAL_Driver/Src/stm32f1xx_hal_can.c ****                  message.
  60:Drivers/STM32F1xx_HAL_Driver/Src/stm32f1xx_hal_can.c ****             (++) HAL_CAN_GetTxMailboxesFreeLevel() to get the number of free Tx
  61:Drivers/STM32F1xx_HAL_Driver/Src/stm32f1xx_hal_can.c ****                  mailboxes.
  62:Drivers/STM32F1xx_HAL_Driver/Src/stm32f1xx_hal_can.c ****             (++) HAL_CAN_IsTxMessagePending() to check if a message is pending
  63:Drivers/STM32F1xx_HAL_Driver/Src/stm32f1xx_hal_can.c ****                  in a Tx mailbox.
  64:Drivers/STM32F1xx_HAL_Driver/Src/stm32f1xx_hal_can.c ****             (++) HAL_CAN_GetTxTimestamp() to get the timestamp of Tx message
  65:Drivers/STM32F1xx_HAL_Driver/Src/stm32f1xx_hal_can.c ****                  sent, if time triggered communication mode is enabled.
  66:Drivers/STM32F1xx_HAL_Driver/Src/stm32f1xx_hal_can.c **** 
  67:Drivers/STM32F1xx_HAL_Driver/Src/stm32f1xx_hal_can.c ****       (#) When a message is received into the CAN Rx FIFOs, it can be retrieved
  68:Drivers/STM32F1xx_HAL_Driver/Src/stm32f1xx_hal_can.c ****           using the HAL_CAN_GetRxMessage() function. The function
  69:Drivers/STM32F1xx_HAL_Driver/Src/stm32f1xx_hal_can.c ****           HAL_CAN_GetRxFifoFillLevel() allows to know how many Rx message are
  70:Drivers/STM32F1xx_HAL_Driver/Src/stm32f1xx_hal_can.c ****           stored in the Rx Fifo.
  71:Drivers/STM32F1xx_HAL_Driver/Src/stm32f1xx_hal_can.c **** 
  72:Drivers/STM32F1xx_HAL_Driver/Src/stm32f1xx_hal_can.c ****       (#) Calling the HAL_CAN_Stop() function stops the CAN module.
  73:Drivers/STM32F1xx_HAL_Driver/Src/stm32f1xx_hal_can.c **** 
  74:Drivers/STM32F1xx_HAL_Driver/Src/stm32f1xx_hal_can.c ****       (#) The deinitialization is achieved with HAL_CAN_DeInit() function.
  75:Drivers/STM32F1xx_HAL_Driver/Src/stm32f1xx_hal_can.c **** 
  76:Drivers/STM32F1xx_HAL_Driver/Src/stm32f1xx_hal_can.c **** 
  77:Drivers/STM32F1xx_HAL_Driver/Src/stm32f1xx_hal_can.c ****       *** Polling mode operation ***
  78:Drivers/STM32F1xx_HAL_Driver/Src/stm32f1xx_hal_can.c ****       ==============================
  79:Drivers/STM32F1xx_HAL_Driver/Src/stm32f1xx_hal_can.c ****     [..]
  80:Drivers/STM32F1xx_HAL_Driver/Src/stm32f1xx_hal_can.c ****       (#) Reception:
  81:Drivers/STM32F1xx_HAL_Driver/Src/stm32f1xx_hal_can.c ****             (++) Monitor reception of message using HAL_CAN_GetRxFifoFillLevel()
  82:Drivers/STM32F1xx_HAL_Driver/Src/stm32f1xx_hal_can.c ****                  until at least one message is received.
  83:Drivers/STM32F1xx_HAL_Driver/Src/stm32f1xx_hal_can.c ****             (++) Then get the message using HAL_CAN_GetRxMessage().
  84:Drivers/STM32F1xx_HAL_Driver/Src/stm32f1xx_hal_can.c **** 
  85:Drivers/STM32F1xx_HAL_Driver/Src/stm32f1xx_hal_can.c ****       (#) Transmission:
  86:Drivers/STM32F1xx_HAL_Driver/Src/stm32f1xx_hal_can.c ****             (++) Monitor the Tx mailboxes availability until at least one Tx
  87:Drivers/STM32F1xx_HAL_Driver/Src/stm32f1xx_hal_can.c ****                  mailbox is free, using HAL_CAN_GetTxMailboxesFreeLevel().
  88:Drivers/STM32F1xx_HAL_Driver/Src/stm32f1xx_hal_can.c ****             (++) Then request transmission of a message using
ARM GAS  C:\Users\Rick\AppData\Local\Temp\ccbuSalp.s 			page 3


  89:Drivers/STM32F1xx_HAL_Driver/Src/stm32f1xx_hal_can.c ****                  HAL_CAN_AddTxMessage().
  90:Drivers/STM32F1xx_HAL_Driver/Src/stm32f1xx_hal_can.c **** 
  91:Drivers/STM32F1xx_HAL_Driver/Src/stm32f1xx_hal_can.c **** 
  92:Drivers/STM32F1xx_HAL_Driver/Src/stm32f1xx_hal_can.c ****       *** Interrupt mode operation ***
  93:Drivers/STM32F1xx_HAL_Driver/Src/stm32f1xx_hal_can.c ****       ================================
  94:Drivers/STM32F1xx_HAL_Driver/Src/stm32f1xx_hal_can.c ****     [..]
  95:Drivers/STM32F1xx_HAL_Driver/Src/stm32f1xx_hal_can.c ****       (#) Notifications are activated using HAL_CAN_ActivateNotification()
  96:Drivers/STM32F1xx_HAL_Driver/Src/stm32f1xx_hal_can.c ****           function. Then, the process can be controlled through the
  97:Drivers/STM32F1xx_HAL_Driver/Src/stm32f1xx_hal_can.c ****           available user callbacks: HAL_CAN_xxxCallback(), using same APIs
  98:Drivers/STM32F1xx_HAL_Driver/Src/stm32f1xx_hal_can.c ****           HAL_CAN_GetRxMessage() and HAL_CAN_AddTxMessage().
  99:Drivers/STM32F1xx_HAL_Driver/Src/stm32f1xx_hal_can.c **** 
 100:Drivers/STM32F1xx_HAL_Driver/Src/stm32f1xx_hal_can.c ****       (#) Notifications can be deactivated using
 101:Drivers/STM32F1xx_HAL_Driver/Src/stm32f1xx_hal_can.c ****           HAL_CAN_DeactivateNotification() function.
 102:Drivers/STM32F1xx_HAL_Driver/Src/stm32f1xx_hal_can.c **** 
 103:Drivers/STM32F1xx_HAL_Driver/Src/stm32f1xx_hal_can.c ****       (#) Special care should be taken for CAN_IT_RX_FIFO0_MSG_PENDING and
 104:Drivers/STM32F1xx_HAL_Driver/Src/stm32f1xx_hal_can.c ****           CAN_IT_RX_FIFO1_MSG_PENDING notifications. These notifications trig
 105:Drivers/STM32F1xx_HAL_Driver/Src/stm32f1xx_hal_can.c ****           the callbacks HAL_CAN_RxFIFO0MsgPendingCallback() and
 106:Drivers/STM32F1xx_HAL_Driver/Src/stm32f1xx_hal_can.c ****           HAL_CAN_RxFIFO1MsgPendingCallback(). User has two possible options
 107:Drivers/STM32F1xx_HAL_Driver/Src/stm32f1xx_hal_can.c ****           here.
 108:Drivers/STM32F1xx_HAL_Driver/Src/stm32f1xx_hal_can.c ****             (++) Directly get the Rx message in the callback, using
 109:Drivers/STM32F1xx_HAL_Driver/Src/stm32f1xx_hal_can.c ****                  HAL_CAN_GetRxMessage().
 110:Drivers/STM32F1xx_HAL_Driver/Src/stm32f1xx_hal_can.c ****             (++) Or deactivate the notification in the callback without
 111:Drivers/STM32F1xx_HAL_Driver/Src/stm32f1xx_hal_can.c ****                  getting the Rx message. The Rx message can then be got later
 112:Drivers/STM32F1xx_HAL_Driver/Src/stm32f1xx_hal_can.c ****                  using HAL_CAN_GetRxMessage(). Once the Rx message have been
 113:Drivers/STM32F1xx_HAL_Driver/Src/stm32f1xx_hal_can.c ****                  read, the notification can be activated again.
 114:Drivers/STM32F1xx_HAL_Driver/Src/stm32f1xx_hal_can.c **** 
 115:Drivers/STM32F1xx_HAL_Driver/Src/stm32f1xx_hal_can.c **** 
 116:Drivers/STM32F1xx_HAL_Driver/Src/stm32f1xx_hal_can.c ****       *** Sleep mode ***
 117:Drivers/STM32F1xx_HAL_Driver/Src/stm32f1xx_hal_can.c ****       ==================
 118:Drivers/STM32F1xx_HAL_Driver/Src/stm32f1xx_hal_can.c ****     [..]
 119:Drivers/STM32F1xx_HAL_Driver/Src/stm32f1xx_hal_can.c ****       (#) The CAN peripheral can be put in sleep mode (low power), using
 120:Drivers/STM32F1xx_HAL_Driver/Src/stm32f1xx_hal_can.c ****           HAL_CAN_RequestSleep(). The sleep mode will be entered as soon as the
 121:Drivers/STM32F1xx_HAL_Driver/Src/stm32f1xx_hal_can.c ****           current CAN activity (transmission or reception of a CAN frame) will
 122:Drivers/STM32F1xx_HAL_Driver/Src/stm32f1xx_hal_can.c ****           be completed.
 123:Drivers/STM32F1xx_HAL_Driver/Src/stm32f1xx_hal_can.c **** 
 124:Drivers/STM32F1xx_HAL_Driver/Src/stm32f1xx_hal_can.c ****       (#) A notification can be activated to be informed when the sleep mode
 125:Drivers/STM32F1xx_HAL_Driver/Src/stm32f1xx_hal_can.c ****           will be entered.
 126:Drivers/STM32F1xx_HAL_Driver/Src/stm32f1xx_hal_can.c **** 
 127:Drivers/STM32F1xx_HAL_Driver/Src/stm32f1xx_hal_can.c ****       (#) It can be checked if the sleep mode is entered using
 128:Drivers/STM32F1xx_HAL_Driver/Src/stm32f1xx_hal_can.c ****           HAL_CAN_IsSleepActive().
 129:Drivers/STM32F1xx_HAL_Driver/Src/stm32f1xx_hal_can.c ****           Note that the CAN state (accessible from the API HAL_CAN_GetState())
 130:Drivers/STM32F1xx_HAL_Driver/Src/stm32f1xx_hal_can.c ****           is HAL_CAN_STATE_SLEEP_PENDING as soon as the sleep mode request is
 131:Drivers/STM32F1xx_HAL_Driver/Src/stm32f1xx_hal_can.c ****           submitted (the sleep mode is not yet entered), and become
 132:Drivers/STM32F1xx_HAL_Driver/Src/stm32f1xx_hal_can.c ****           HAL_CAN_STATE_SLEEP_ACTIVE when the sleep mode is effective.
 133:Drivers/STM32F1xx_HAL_Driver/Src/stm32f1xx_hal_can.c **** 
 134:Drivers/STM32F1xx_HAL_Driver/Src/stm32f1xx_hal_can.c ****       (#) The wake-up from sleep mode can be triggered by two ways:
 135:Drivers/STM32F1xx_HAL_Driver/Src/stm32f1xx_hal_can.c ****             (++) Using HAL_CAN_WakeUp(). When returning from this function,
 136:Drivers/STM32F1xx_HAL_Driver/Src/stm32f1xx_hal_can.c ****                  the sleep mode is exited (if return status is HAL_OK).
 137:Drivers/STM32F1xx_HAL_Driver/Src/stm32f1xx_hal_can.c ****             (++) When a start of Rx CAN frame is detected by the CAN peripheral,
 138:Drivers/STM32F1xx_HAL_Driver/Src/stm32f1xx_hal_can.c ****                  if automatic wake up mode is enabled.
 139:Drivers/STM32F1xx_HAL_Driver/Src/stm32f1xx_hal_can.c **** 
 140:Drivers/STM32F1xx_HAL_Driver/Src/stm32f1xx_hal_can.c ****   *** Callback registration ***
 141:Drivers/STM32F1xx_HAL_Driver/Src/stm32f1xx_hal_can.c ****   =============================================
 142:Drivers/STM32F1xx_HAL_Driver/Src/stm32f1xx_hal_can.c **** 
 143:Drivers/STM32F1xx_HAL_Driver/Src/stm32f1xx_hal_can.c ****   The compilation define  USE_HAL_CAN_REGISTER_CALLBACKS when set to 1
 144:Drivers/STM32F1xx_HAL_Driver/Src/stm32f1xx_hal_can.c ****   allows the user to configure dynamically the driver callbacks.
 145:Drivers/STM32F1xx_HAL_Driver/Src/stm32f1xx_hal_can.c ****   Use Function HAL_CAN_RegisterCallback() to register an interrupt callback.
ARM GAS  C:\Users\Rick\AppData\Local\Temp\ccbuSalp.s 			page 4


 146:Drivers/STM32F1xx_HAL_Driver/Src/stm32f1xx_hal_can.c **** 
 147:Drivers/STM32F1xx_HAL_Driver/Src/stm32f1xx_hal_can.c ****   Function HAL_CAN_RegisterCallback() allows to register following callbacks:
 148:Drivers/STM32F1xx_HAL_Driver/Src/stm32f1xx_hal_can.c ****     (+) TxMailbox0CompleteCallback   : Tx Mailbox 0 Complete Callback.
 149:Drivers/STM32F1xx_HAL_Driver/Src/stm32f1xx_hal_can.c ****     (+) TxMailbox1CompleteCallback   : Tx Mailbox 1 Complete Callback.
 150:Drivers/STM32F1xx_HAL_Driver/Src/stm32f1xx_hal_can.c ****     (+) TxMailbox2CompleteCallback   : Tx Mailbox 2 Complete Callback.
 151:Drivers/STM32F1xx_HAL_Driver/Src/stm32f1xx_hal_can.c ****     (+) TxMailbox0AbortCallback      : Tx Mailbox 0 Abort Callback.
 152:Drivers/STM32F1xx_HAL_Driver/Src/stm32f1xx_hal_can.c ****     (+) TxMailbox1AbortCallback      : Tx Mailbox 1 Abort Callback.
 153:Drivers/STM32F1xx_HAL_Driver/Src/stm32f1xx_hal_can.c ****     (+) TxMailbox2AbortCallback      : Tx Mailbox 2 Abort Callback.
 154:Drivers/STM32F1xx_HAL_Driver/Src/stm32f1xx_hal_can.c ****     (+) RxFifo0MsgPendingCallback    : Rx Fifo 0 Message Pending Callback.
 155:Drivers/STM32F1xx_HAL_Driver/Src/stm32f1xx_hal_can.c ****     (+) RxFifo0FullCallback          : Rx Fifo 0 Full Callback.
 156:Drivers/STM32F1xx_HAL_Driver/Src/stm32f1xx_hal_can.c ****     (+) RxFifo1MsgPendingCallback    : Rx Fifo 1 Message Pending Callback.
 157:Drivers/STM32F1xx_HAL_Driver/Src/stm32f1xx_hal_can.c ****     (+) RxFifo1FullCallback          : Rx Fifo 1 Full Callback.
 158:Drivers/STM32F1xx_HAL_Driver/Src/stm32f1xx_hal_can.c ****     (+) SleepCallback                : Sleep Callback.
 159:Drivers/STM32F1xx_HAL_Driver/Src/stm32f1xx_hal_can.c ****     (+) WakeUpFromRxMsgCallback      : Wake Up From Rx Message Callback.
 160:Drivers/STM32F1xx_HAL_Driver/Src/stm32f1xx_hal_can.c ****     (+) ErrorCallback                : Error Callback.
 161:Drivers/STM32F1xx_HAL_Driver/Src/stm32f1xx_hal_can.c ****     (+) MspInitCallback              : CAN MspInit.
 162:Drivers/STM32F1xx_HAL_Driver/Src/stm32f1xx_hal_can.c ****     (+) MspDeInitCallback            : CAN MspDeInit.
 163:Drivers/STM32F1xx_HAL_Driver/Src/stm32f1xx_hal_can.c ****   This function takes as parameters the HAL peripheral handle, the Callback ID
 164:Drivers/STM32F1xx_HAL_Driver/Src/stm32f1xx_hal_can.c ****   and a pointer to the user callback function.
 165:Drivers/STM32F1xx_HAL_Driver/Src/stm32f1xx_hal_can.c **** 
 166:Drivers/STM32F1xx_HAL_Driver/Src/stm32f1xx_hal_can.c ****   Use function HAL_CAN_UnRegisterCallback() to reset a callback to the default
 167:Drivers/STM32F1xx_HAL_Driver/Src/stm32f1xx_hal_can.c ****   weak function.
 168:Drivers/STM32F1xx_HAL_Driver/Src/stm32f1xx_hal_can.c ****   HAL_CAN_UnRegisterCallback takes as parameters the HAL peripheral handle,
 169:Drivers/STM32F1xx_HAL_Driver/Src/stm32f1xx_hal_can.c ****   and the Callback ID.
 170:Drivers/STM32F1xx_HAL_Driver/Src/stm32f1xx_hal_can.c ****   This function allows to reset following callbacks:
 171:Drivers/STM32F1xx_HAL_Driver/Src/stm32f1xx_hal_can.c ****     (+) TxMailbox0CompleteCallback   : Tx Mailbox 0 Complete Callback.
 172:Drivers/STM32F1xx_HAL_Driver/Src/stm32f1xx_hal_can.c ****     (+) TxMailbox1CompleteCallback   : Tx Mailbox 1 Complete Callback.
 173:Drivers/STM32F1xx_HAL_Driver/Src/stm32f1xx_hal_can.c ****     (+) TxMailbox2CompleteCallback   : Tx Mailbox 2 Complete Callback.
 174:Drivers/STM32F1xx_HAL_Driver/Src/stm32f1xx_hal_can.c ****     (+) TxMailbox0AbortCallback      : Tx Mailbox 0 Abort Callback.
 175:Drivers/STM32F1xx_HAL_Driver/Src/stm32f1xx_hal_can.c ****     (+) TxMailbox1AbortCallback      : Tx Mailbox 1 Abort Callback.
 176:Drivers/STM32F1xx_HAL_Driver/Src/stm32f1xx_hal_can.c ****     (+) TxMailbox2AbortCallback      : Tx Mailbox 2 Abort Callback.
 177:Drivers/STM32F1xx_HAL_Driver/Src/stm32f1xx_hal_can.c ****     (+) RxFifo0MsgPendingCallback    : Rx Fifo 0 Message Pending Callback.
 178:Drivers/STM32F1xx_HAL_Driver/Src/stm32f1xx_hal_can.c ****     (+) RxFifo0FullCallback          : Rx Fifo 0 Full Callback.
 179:Drivers/STM32F1xx_HAL_Driver/Src/stm32f1xx_hal_can.c ****     (+) RxFifo1MsgPendingCallback    : Rx Fifo 1 Message Pending Callback.
 180:Drivers/STM32F1xx_HAL_Driver/Src/stm32f1xx_hal_can.c ****     (+) RxFifo1FullCallback          : Rx Fifo 1 Full Callback.
 181:Drivers/STM32F1xx_HAL_Driver/Src/stm32f1xx_hal_can.c ****     (+) SleepCallback                : Sleep Callback.
 182:Drivers/STM32F1xx_HAL_Driver/Src/stm32f1xx_hal_can.c ****     (+) WakeUpFromRxMsgCallback      : Wake Up From Rx Message Callback.
 183:Drivers/STM32F1xx_HAL_Driver/Src/stm32f1xx_hal_can.c ****     (+) ErrorCallback                : Error Callback.
 184:Drivers/STM32F1xx_HAL_Driver/Src/stm32f1xx_hal_can.c ****     (+) MspInitCallback              : CAN MspInit.
 185:Drivers/STM32F1xx_HAL_Driver/Src/stm32f1xx_hal_can.c ****     (+) MspDeInitCallback            : CAN MspDeInit.
 186:Drivers/STM32F1xx_HAL_Driver/Src/stm32f1xx_hal_can.c **** 
 187:Drivers/STM32F1xx_HAL_Driver/Src/stm32f1xx_hal_can.c ****   By default, after the HAL_CAN_Init() and when the state is HAL_CAN_STATE_RESET,
 188:Drivers/STM32F1xx_HAL_Driver/Src/stm32f1xx_hal_can.c ****   all callbacks are set to the corresponding weak functions:
 189:Drivers/STM32F1xx_HAL_Driver/Src/stm32f1xx_hal_can.c ****   example HAL_CAN_ErrorCallback().
 190:Drivers/STM32F1xx_HAL_Driver/Src/stm32f1xx_hal_can.c ****   Exception done for MspInit and MspDeInit functions that are
 191:Drivers/STM32F1xx_HAL_Driver/Src/stm32f1xx_hal_can.c ****   reset to the legacy weak function in the HAL_CAN_Init()/ HAL_CAN_DeInit() only when
 192:Drivers/STM32F1xx_HAL_Driver/Src/stm32f1xx_hal_can.c ****   these callbacks are null (not registered beforehand).
 193:Drivers/STM32F1xx_HAL_Driver/Src/stm32f1xx_hal_can.c ****   if not, MspInit or MspDeInit are not null, the HAL_CAN_Init()/ HAL_CAN_DeInit()
 194:Drivers/STM32F1xx_HAL_Driver/Src/stm32f1xx_hal_can.c ****   keep and use the user MspInit/MspDeInit callbacks (registered beforehand)
 195:Drivers/STM32F1xx_HAL_Driver/Src/stm32f1xx_hal_can.c **** 
 196:Drivers/STM32F1xx_HAL_Driver/Src/stm32f1xx_hal_can.c ****   Callbacks can be registered/unregistered in HAL_CAN_STATE_READY state only.
 197:Drivers/STM32F1xx_HAL_Driver/Src/stm32f1xx_hal_can.c ****   Exception done MspInit/MspDeInit that can be registered/unregistered
 198:Drivers/STM32F1xx_HAL_Driver/Src/stm32f1xx_hal_can.c ****   in HAL_CAN_STATE_READY or HAL_CAN_STATE_RESET state,
 199:Drivers/STM32F1xx_HAL_Driver/Src/stm32f1xx_hal_can.c ****   thus registered (user) MspInit/DeInit callbacks can be used during the Init/DeInit.
 200:Drivers/STM32F1xx_HAL_Driver/Src/stm32f1xx_hal_can.c ****   In that case first register the MspInit/MspDeInit user callbacks
 201:Drivers/STM32F1xx_HAL_Driver/Src/stm32f1xx_hal_can.c ****   using HAL_CAN_RegisterCallback() before calling HAL_CAN_DeInit()
 202:Drivers/STM32F1xx_HAL_Driver/Src/stm32f1xx_hal_can.c ****   or HAL_CAN_Init() function.
ARM GAS  C:\Users\Rick\AppData\Local\Temp\ccbuSalp.s 			page 5


 203:Drivers/STM32F1xx_HAL_Driver/Src/stm32f1xx_hal_can.c **** 
 204:Drivers/STM32F1xx_HAL_Driver/Src/stm32f1xx_hal_can.c ****   When The compilation define USE_HAL_CAN_REGISTER_CALLBACKS is set to 0 or
 205:Drivers/STM32F1xx_HAL_Driver/Src/stm32f1xx_hal_can.c ****   not defined, the callback registration feature is not available and all callbacks
 206:Drivers/STM32F1xx_HAL_Driver/Src/stm32f1xx_hal_can.c ****   are set to the corresponding weak functions.
 207:Drivers/STM32F1xx_HAL_Driver/Src/stm32f1xx_hal_can.c **** 
 208:Drivers/STM32F1xx_HAL_Driver/Src/stm32f1xx_hal_can.c ****   @endverbatim
 209:Drivers/STM32F1xx_HAL_Driver/Src/stm32f1xx_hal_can.c ****   ******************************************************************************
 210:Drivers/STM32F1xx_HAL_Driver/Src/stm32f1xx_hal_can.c ****   */
 211:Drivers/STM32F1xx_HAL_Driver/Src/stm32f1xx_hal_can.c **** 
 212:Drivers/STM32F1xx_HAL_Driver/Src/stm32f1xx_hal_can.c **** /* Includes ------------------------------------------------------------------*/
 213:Drivers/STM32F1xx_HAL_Driver/Src/stm32f1xx_hal_can.c **** #include "stm32f1xx_hal.h"
 214:Drivers/STM32F1xx_HAL_Driver/Src/stm32f1xx_hal_can.c **** 
 215:Drivers/STM32F1xx_HAL_Driver/Src/stm32f1xx_hal_can.c **** /** @addtogroup STM32F1xx_HAL_Driver
 216:Drivers/STM32F1xx_HAL_Driver/Src/stm32f1xx_hal_can.c ****   * @{
 217:Drivers/STM32F1xx_HAL_Driver/Src/stm32f1xx_hal_can.c ****   */
 218:Drivers/STM32F1xx_HAL_Driver/Src/stm32f1xx_hal_can.c **** 
 219:Drivers/STM32F1xx_HAL_Driver/Src/stm32f1xx_hal_can.c **** #if defined(CAN1)
 220:Drivers/STM32F1xx_HAL_Driver/Src/stm32f1xx_hal_can.c **** 
 221:Drivers/STM32F1xx_HAL_Driver/Src/stm32f1xx_hal_can.c **** /** @defgroup CAN CAN
 222:Drivers/STM32F1xx_HAL_Driver/Src/stm32f1xx_hal_can.c ****   * @brief CAN driver modules
 223:Drivers/STM32F1xx_HAL_Driver/Src/stm32f1xx_hal_can.c ****   * @{
 224:Drivers/STM32F1xx_HAL_Driver/Src/stm32f1xx_hal_can.c ****   */
 225:Drivers/STM32F1xx_HAL_Driver/Src/stm32f1xx_hal_can.c **** 
 226:Drivers/STM32F1xx_HAL_Driver/Src/stm32f1xx_hal_can.c **** #ifdef HAL_CAN_MODULE_ENABLED
 227:Drivers/STM32F1xx_HAL_Driver/Src/stm32f1xx_hal_can.c **** 
 228:Drivers/STM32F1xx_HAL_Driver/Src/stm32f1xx_hal_can.c **** #ifdef HAL_CAN_LEGACY_MODULE_ENABLED
 229:Drivers/STM32F1xx_HAL_Driver/Src/stm32f1xx_hal_can.c **** #error "The CAN driver cannot be used with its legacy, Please enable only one CAN module at once"
 230:Drivers/STM32F1xx_HAL_Driver/Src/stm32f1xx_hal_can.c **** #endif /* HAL_CAN_LEGACY_MODULE_ENABLED */
 231:Drivers/STM32F1xx_HAL_Driver/Src/stm32f1xx_hal_can.c **** 
 232:Drivers/STM32F1xx_HAL_Driver/Src/stm32f1xx_hal_can.c **** /* Private typedef -----------------------------------------------------------*/
 233:Drivers/STM32F1xx_HAL_Driver/Src/stm32f1xx_hal_can.c **** /* Private define ------------------------------------------------------------*/
 234:Drivers/STM32F1xx_HAL_Driver/Src/stm32f1xx_hal_can.c **** /** @defgroup CAN_Private_Constants CAN Private Constants
 235:Drivers/STM32F1xx_HAL_Driver/Src/stm32f1xx_hal_can.c ****   * @{
 236:Drivers/STM32F1xx_HAL_Driver/Src/stm32f1xx_hal_can.c ****   */
 237:Drivers/STM32F1xx_HAL_Driver/Src/stm32f1xx_hal_can.c **** #define CAN_TIMEOUT_VALUE 10U
 238:Drivers/STM32F1xx_HAL_Driver/Src/stm32f1xx_hal_can.c **** /**
 239:Drivers/STM32F1xx_HAL_Driver/Src/stm32f1xx_hal_can.c ****   * @}
 240:Drivers/STM32F1xx_HAL_Driver/Src/stm32f1xx_hal_can.c ****   */
 241:Drivers/STM32F1xx_HAL_Driver/Src/stm32f1xx_hal_can.c **** /* Private macro -------------------------------------------------------------*/
 242:Drivers/STM32F1xx_HAL_Driver/Src/stm32f1xx_hal_can.c **** /* Private variables ---------------------------------------------------------*/
 243:Drivers/STM32F1xx_HAL_Driver/Src/stm32f1xx_hal_can.c **** /* Private function prototypes -----------------------------------------------*/
 244:Drivers/STM32F1xx_HAL_Driver/Src/stm32f1xx_hal_can.c **** /* Exported functions --------------------------------------------------------*/
 245:Drivers/STM32F1xx_HAL_Driver/Src/stm32f1xx_hal_can.c **** 
 246:Drivers/STM32F1xx_HAL_Driver/Src/stm32f1xx_hal_can.c **** /** @defgroup CAN_Exported_Functions CAN Exported Functions
 247:Drivers/STM32F1xx_HAL_Driver/Src/stm32f1xx_hal_can.c ****   * @{
 248:Drivers/STM32F1xx_HAL_Driver/Src/stm32f1xx_hal_can.c ****   */
 249:Drivers/STM32F1xx_HAL_Driver/Src/stm32f1xx_hal_can.c **** 
 250:Drivers/STM32F1xx_HAL_Driver/Src/stm32f1xx_hal_can.c **** /** @defgroup CAN_Exported_Functions_Group1 Initialization and de-initialization functions
 251:Drivers/STM32F1xx_HAL_Driver/Src/stm32f1xx_hal_can.c ****  *  @brief    Initialization and Configuration functions
 252:Drivers/STM32F1xx_HAL_Driver/Src/stm32f1xx_hal_can.c ****  *
 253:Drivers/STM32F1xx_HAL_Driver/Src/stm32f1xx_hal_can.c **** @verbatim
 254:Drivers/STM32F1xx_HAL_Driver/Src/stm32f1xx_hal_can.c ****   ==============================================================================
 255:Drivers/STM32F1xx_HAL_Driver/Src/stm32f1xx_hal_can.c ****               ##### Initialization and de-initialization functions #####
 256:Drivers/STM32F1xx_HAL_Driver/Src/stm32f1xx_hal_can.c ****   ==============================================================================
 257:Drivers/STM32F1xx_HAL_Driver/Src/stm32f1xx_hal_can.c ****     [..]  This section provides functions allowing to:
 258:Drivers/STM32F1xx_HAL_Driver/Src/stm32f1xx_hal_can.c ****       (+) HAL_CAN_Init                       : Initialize and configure the CAN.
 259:Drivers/STM32F1xx_HAL_Driver/Src/stm32f1xx_hal_can.c ****       (+) HAL_CAN_DeInit                     : De-initialize the CAN.
ARM GAS  C:\Users\Rick\AppData\Local\Temp\ccbuSalp.s 			page 6


 260:Drivers/STM32F1xx_HAL_Driver/Src/stm32f1xx_hal_can.c ****       (+) HAL_CAN_MspInit                    : Initialize the CAN MSP.
 261:Drivers/STM32F1xx_HAL_Driver/Src/stm32f1xx_hal_can.c ****       (+) HAL_CAN_MspDeInit                  : DeInitialize the CAN MSP.
 262:Drivers/STM32F1xx_HAL_Driver/Src/stm32f1xx_hal_can.c **** 
 263:Drivers/STM32F1xx_HAL_Driver/Src/stm32f1xx_hal_can.c **** @endverbatim
 264:Drivers/STM32F1xx_HAL_Driver/Src/stm32f1xx_hal_can.c ****   * @{
 265:Drivers/STM32F1xx_HAL_Driver/Src/stm32f1xx_hal_can.c ****   */
 266:Drivers/STM32F1xx_HAL_Driver/Src/stm32f1xx_hal_can.c **** 
 267:Drivers/STM32F1xx_HAL_Driver/Src/stm32f1xx_hal_can.c **** /**
 268:Drivers/STM32F1xx_HAL_Driver/Src/stm32f1xx_hal_can.c ****   * @brief  Initializes the CAN peripheral according to the specified
 269:Drivers/STM32F1xx_HAL_Driver/Src/stm32f1xx_hal_can.c ****   *         parameters in the CAN_InitStruct.
 270:Drivers/STM32F1xx_HAL_Driver/Src/stm32f1xx_hal_can.c ****   * @param  hcan pointer to a CAN_HandleTypeDef structure that contains
 271:Drivers/STM32F1xx_HAL_Driver/Src/stm32f1xx_hal_can.c ****   *         the configuration information for the specified CAN.
 272:Drivers/STM32F1xx_HAL_Driver/Src/stm32f1xx_hal_can.c ****   * @retval HAL status
 273:Drivers/STM32F1xx_HAL_Driver/Src/stm32f1xx_hal_can.c ****   */
 274:Drivers/STM32F1xx_HAL_Driver/Src/stm32f1xx_hal_can.c **** HAL_StatusTypeDef HAL_CAN_Init(CAN_HandleTypeDef *hcan)
 275:Drivers/STM32F1xx_HAL_Driver/Src/stm32f1xx_hal_can.c **** {
 276:Drivers/STM32F1xx_HAL_Driver/Src/stm32f1xx_hal_can.c ****   uint32_t tickstart;
 277:Drivers/STM32F1xx_HAL_Driver/Src/stm32f1xx_hal_can.c **** 
 278:Drivers/STM32F1xx_HAL_Driver/Src/stm32f1xx_hal_can.c ****   /* Check CAN handle */
 279:Drivers/STM32F1xx_HAL_Driver/Src/stm32f1xx_hal_can.c ****   if (hcan == NULL)
 280:Drivers/STM32F1xx_HAL_Driver/Src/stm32f1xx_hal_can.c ****   {
 281:Drivers/STM32F1xx_HAL_Driver/Src/stm32f1xx_hal_can.c ****     return HAL_ERROR;
 282:Drivers/STM32F1xx_HAL_Driver/Src/stm32f1xx_hal_can.c ****   }
 283:Drivers/STM32F1xx_HAL_Driver/Src/stm32f1xx_hal_can.c **** 
 284:Drivers/STM32F1xx_HAL_Driver/Src/stm32f1xx_hal_can.c ****   /* Check the parameters */
 285:Drivers/STM32F1xx_HAL_Driver/Src/stm32f1xx_hal_can.c ****   assert_param(IS_CAN_ALL_INSTANCE(hcan->Instance));
 286:Drivers/STM32F1xx_HAL_Driver/Src/stm32f1xx_hal_can.c ****   assert_param(IS_FUNCTIONAL_STATE(hcan->Init.TimeTriggeredMode));
 287:Drivers/STM32F1xx_HAL_Driver/Src/stm32f1xx_hal_can.c ****   assert_param(IS_FUNCTIONAL_STATE(hcan->Init.AutoBusOff));
 288:Drivers/STM32F1xx_HAL_Driver/Src/stm32f1xx_hal_can.c ****   assert_param(IS_FUNCTIONAL_STATE(hcan->Init.AutoWakeUp));
 289:Drivers/STM32F1xx_HAL_Driver/Src/stm32f1xx_hal_can.c ****   assert_param(IS_FUNCTIONAL_STATE(hcan->Init.AutoRetransmission));
 290:Drivers/STM32F1xx_HAL_Driver/Src/stm32f1xx_hal_can.c ****   assert_param(IS_FUNCTIONAL_STATE(hcan->Init.ReceiveFifoLocked));
 291:Drivers/STM32F1xx_HAL_Driver/Src/stm32f1xx_hal_can.c ****   assert_param(IS_FUNCTIONAL_STATE(hcan->Init.TransmitFifoPriority));
 292:Drivers/STM32F1xx_HAL_Driver/Src/stm32f1xx_hal_can.c ****   assert_param(IS_CAN_MODE(hcan->Init.Mode));
 293:Drivers/STM32F1xx_HAL_Driver/Src/stm32f1xx_hal_can.c ****   assert_param(IS_CAN_SJW(hcan->Init.SyncJumpWidth));
 294:Drivers/STM32F1xx_HAL_Driver/Src/stm32f1xx_hal_can.c ****   assert_param(IS_CAN_BS1(hcan->Init.TimeSeg1));
 295:Drivers/STM32F1xx_HAL_Driver/Src/stm32f1xx_hal_can.c ****   assert_param(IS_CAN_BS2(hcan->Init.TimeSeg2));
 296:Drivers/STM32F1xx_HAL_Driver/Src/stm32f1xx_hal_can.c ****   assert_param(IS_CAN_PRESCALER(hcan->Init.Prescaler));
 297:Drivers/STM32F1xx_HAL_Driver/Src/stm32f1xx_hal_can.c **** 
 298:Drivers/STM32F1xx_HAL_Driver/Src/stm32f1xx_hal_can.c **** #if USE_HAL_CAN_REGISTER_CALLBACKS == 1
 299:Drivers/STM32F1xx_HAL_Driver/Src/stm32f1xx_hal_can.c ****   if (hcan->State == HAL_CAN_STATE_RESET)
 300:Drivers/STM32F1xx_HAL_Driver/Src/stm32f1xx_hal_can.c ****   {
 301:Drivers/STM32F1xx_HAL_Driver/Src/stm32f1xx_hal_can.c ****     /* Reset callbacks to legacy functions */
 302:Drivers/STM32F1xx_HAL_Driver/Src/stm32f1xx_hal_can.c ****     hcan->RxFifo0MsgPendingCallback  =  HAL_CAN_RxFifo0MsgPendingCallback;  /* Legacy weak RxFifo0M
 303:Drivers/STM32F1xx_HAL_Driver/Src/stm32f1xx_hal_can.c ****     hcan->RxFifo0FullCallback        =  HAL_CAN_RxFifo0FullCallback;        /* Legacy weak RxFifo0F
 304:Drivers/STM32F1xx_HAL_Driver/Src/stm32f1xx_hal_can.c ****     hcan->RxFifo1MsgPendingCallback  =  HAL_CAN_RxFifo1MsgPendingCallback;  /* Legacy weak RxFifo1M
 305:Drivers/STM32F1xx_HAL_Driver/Src/stm32f1xx_hal_can.c ****     hcan->RxFifo1FullCallback        =  HAL_CAN_RxFifo1FullCallback;        /* Legacy weak RxFifo1F
 306:Drivers/STM32F1xx_HAL_Driver/Src/stm32f1xx_hal_can.c ****     hcan->TxMailbox0CompleteCallback =  HAL_CAN_TxMailbox0CompleteCallback; /* Legacy weak TxMailbo
 307:Drivers/STM32F1xx_HAL_Driver/Src/stm32f1xx_hal_can.c ****     hcan->TxMailbox1CompleteCallback =  HAL_CAN_TxMailbox1CompleteCallback; /* Legacy weak TxMailbo
 308:Drivers/STM32F1xx_HAL_Driver/Src/stm32f1xx_hal_can.c ****     hcan->TxMailbox2CompleteCallback =  HAL_CAN_TxMailbox2CompleteCallback; /* Legacy weak TxMailbo
 309:Drivers/STM32F1xx_HAL_Driver/Src/stm32f1xx_hal_can.c ****     hcan->TxMailbox0AbortCallback    =  HAL_CAN_TxMailbox0AbortCallback;    /* Legacy weak TxMailbo
 310:Drivers/STM32F1xx_HAL_Driver/Src/stm32f1xx_hal_can.c ****     hcan->TxMailbox1AbortCallback    =  HAL_CAN_TxMailbox1AbortCallback;    /* Legacy weak TxMailbo
 311:Drivers/STM32F1xx_HAL_Driver/Src/stm32f1xx_hal_can.c ****     hcan->TxMailbox2AbortCallback    =  HAL_CAN_TxMailbox2AbortCallback;    /* Legacy weak TxMailbo
 312:Drivers/STM32F1xx_HAL_Driver/Src/stm32f1xx_hal_can.c ****     hcan->SleepCallback              =  HAL_CAN_SleepCallback;              /* Legacy weak SleepCal
 313:Drivers/STM32F1xx_HAL_Driver/Src/stm32f1xx_hal_can.c ****     hcan->WakeUpFromRxMsgCallback    =  HAL_CAN_WakeUpFromRxMsgCallback;    /* Legacy weak WakeUpFr
 314:Drivers/STM32F1xx_HAL_Driver/Src/stm32f1xx_hal_can.c ****     hcan->ErrorCallback              =  HAL_CAN_ErrorCallback;              /* Legacy weak ErrorCal
 315:Drivers/STM32F1xx_HAL_Driver/Src/stm32f1xx_hal_can.c **** 
 316:Drivers/STM32F1xx_HAL_Driver/Src/stm32f1xx_hal_can.c ****     if (hcan->MspInitCallback == NULL)
ARM GAS  C:\Users\Rick\AppData\Local\Temp\ccbuSalp.s 			page 7


 317:Drivers/STM32F1xx_HAL_Driver/Src/stm32f1xx_hal_can.c ****     {
 318:Drivers/STM32F1xx_HAL_Driver/Src/stm32f1xx_hal_can.c ****       hcan->MspInitCallback = HAL_CAN_MspInit; /* Legacy weak MspInit */
 319:Drivers/STM32F1xx_HAL_Driver/Src/stm32f1xx_hal_can.c ****     }
 320:Drivers/STM32F1xx_HAL_Driver/Src/stm32f1xx_hal_can.c **** 
 321:Drivers/STM32F1xx_HAL_Driver/Src/stm32f1xx_hal_can.c ****     /* Init the low level hardware: CLOCK, NVIC */
 322:Drivers/STM32F1xx_HAL_Driver/Src/stm32f1xx_hal_can.c ****     hcan->MspInitCallback(hcan);
 323:Drivers/STM32F1xx_HAL_Driver/Src/stm32f1xx_hal_can.c ****   }
 324:Drivers/STM32F1xx_HAL_Driver/Src/stm32f1xx_hal_can.c **** 
 325:Drivers/STM32F1xx_HAL_Driver/Src/stm32f1xx_hal_can.c **** #else
 326:Drivers/STM32F1xx_HAL_Driver/Src/stm32f1xx_hal_can.c ****   if (hcan->State == HAL_CAN_STATE_RESET)
 327:Drivers/STM32F1xx_HAL_Driver/Src/stm32f1xx_hal_can.c ****   {
 328:Drivers/STM32F1xx_HAL_Driver/Src/stm32f1xx_hal_can.c ****     /* Init the low level hardware: CLOCK, NVIC */
 329:Drivers/STM32F1xx_HAL_Driver/Src/stm32f1xx_hal_can.c ****     HAL_CAN_MspInit(hcan);
 330:Drivers/STM32F1xx_HAL_Driver/Src/stm32f1xx_hal_can.c ****   }
 331:Drivers/STM32F1xx_HAL_Driver/Src/stm32f1xx_hal_can.c **** #endif /* (USE_HAL_CAN_REGISTER_CALLBACKS) */
 332:Drivers/STM32F1xx_HAL_Driver/Src/stm32f1xx_hal_can.c **** 
 333:Drivers/STM32F1xx_HAL_Driver/Src/stm32f1xx_hal_can.c ****   /* Request initialisation */
 334:Drivers/STM32F1xx_HAL_Driver/Src/stm32f1xx_hal_can.c ****   SET_BIT(hcan->Instance->MCR, CAN_MCR_INRQ);
 335:Drivers/STM32F1xx_HAL_Driver/Src/stm32f1xx_hal_can.c **** 
 336:Drivers/STM32F1xx_HAL_Driver/Src/stm32f1xx_hal_can.c ****   /* Get tick */
 337:Drivers/STM32F1xx_HAL_Driver/Src/stm32f1xx_hal_can.c ****   tickstart = HAL_GetTick();
 338:Drivers/STM32F1xx_HAL_Driver/Src/stm32f1xx_hal_can.c **** 
 339:Drivers/STM32F1xx_HAL_Driver/Src/stm32f1xx_hal_can.c ****   /* Wait initialisation acknowledge */
 340:Drivers/STM32F1xx_HAL_Driver/Src/stm32f1xx_hal_can.c ****   while ((hcan->Instance->MSR & CAN_MSR_INAK) == 0U)
 341:Drivers/STM32F1xx_HAL_Driver/Src/stm32f1xx_hal_can.c ****   {
 342:Drivers/STM32F1xx_HAL_Driver/Src/stm32f1xx_hal_can.c ****     if ((HAL_GetTick() - tickstart) > CAN_TIMEOUT_VALUE)
 343:Drivers/STM32F1xx_HAL_Driver/Src/stm32f1xx_hal_can.c ****     {
 344:Drivers/STM32F1xx_HAL_Driver/Src/stm32f1xx_hal_can.c ****       /* Update error code */
 345:Drivers/STM32F1xx_HAL_Driver/Src/stm32f1xx_hal_can.c ****       hcan->ErrorCode |= HAL_CAN_ERROR_TIMEOUT;
 346:Drivers/STM32F1xx_HAL_Driver/Src/stm32f1xx_hal_can.c **** 
 347:Drivers/STM32F1xx_HAL_Driver/Src/stm32f1xx_hal_can.c ****       /* Change CAN state */
 348:Drivers/STM32F1xx_HAL_Driver/Src/stm32f1xx_hal_can.c ****       hcan->State = HAL_CAN_STATE_ERROR;
 349:Drivers/STM32F1xx_HAL_Driver/Src/stm32f1xx_hal_can.c **** 
 350:Drivers/STM32F1xx_HAL_Driver/Src/stm32f1xx_hal_can.c ****       return HAL_ERROR;
 351:Drivers/STM32F1xx_HAL_Driver/Src/stm32f1xx_hal_can.c ****     }
 352:Drivers/STM32F1xx_HAL_Driver/Src/stm32f1xx_hal_can.c ****   }
 353:Drivers/STM32F1xx_HAL_Driver/Src/stm32f1xx_hal_can.c **** 
 354:Drivers/STM32F1xx_HAL_Driver/Src/stm32f1xx_hal_can.c ****   /* Exit from sleep mode */
 355:Drivers/STM32F1xx_HAL_Driver/Src/stm32f1xx_hal_can.c ****   CLEAR_BIT(hcan->Instance->MCR, CAN_MCR_SLEEP);
 356:Drivers/STM32F1xx_HAL_Driver/Src/stm32f1xx_hal_can.c **** 
 357:Drivers/STM32F1xx_HAL_Driver/Src/stm32f1xx_hal_can.c ****   /* Get tick */
 358:Drivers/STM32F1xx_HAL_Driver/Src/stm32f1xx_hal_can.c ****   tickstart = HAL_GetTick();
 359:Drivers/STM32F1xx_HAL_Driver/Src/stm32f1xx_hal_can.c **** 
 360:Drivers/STM32F1xx_HAL_Driver/Src/stm32f1xx_hal_can.c ****   /* Check Sleep mode leave acknowledge */
 361:Drivers/STM32F1xx_HAL_Driver/Src/stm32f1xx_hal_can.c ****   while ((hcan->Instance->MSR & CAN_MSR_SLAK) != 0U)
 362:Drivers/STM32F1xx_HAL_Driver/Src/stm32f1xx_hal_can.c ****   {
 363:Drivers/STM32F1xx_HAL_Driver/Src/stm32f1xx_hal_can.c ****     if ((HAL_GetTick() - tickstart) > CAN_TIMEOUT_VALUE)
 364:Drivers/STM32F1xx_HAL_Driver/Src/stm32f1xx_hal_can.c ****     {
 365:Drivers/STM32F1xx_HAL_Driver/Src/stm32f1xx_hal_can.c ****       /* Update error code */
 366:Drivers/STM32F1xx_HAL_Driver/Src/stm32f1xx_hal_can.c ****       hcan->ErrorCode |= HAL_CAN_ERROR_TIMEOUT;
 367:Drivers/STM32F1xx_HAL_Driver/Src/stm32f1xx_hal_can.c **** 
 368:Drivers/STM32F1xx_HAL_Driver/Src/stm32f1xx_hal_can.c ****       /* Change CAN state */
 369:Drivers/STM32F1xx_HAL_Driver/Src/stm32f1xx_hal_can.c ****       hcan->State = HAL_CAN_STATE_ERROR;
 370:Drivers/STM32F1xx_HAL_Driver/Src/stm32f1xx_hal_can.c **** 
 371:Drivers/STM32F1xx_HAL_Driver/Src/stm32f1xx_hal_can.c ****       return HAL_ERROR;
 372:Drivers/STM32F1xx_HAL_Driver/Src/stm32f1xx_hal_can.c ****     }
 373:Drivers/STM32F1xx_HAL_Driver/Src/stm32f1xx_hal_can.c ****   }
ARM GAS  C:\Users\Rick\AppData\Local\Temp\ccbuSalp.s 			page 8


 374:Drivers/STM32F1xx_HAL_Driver/Src/stm32f1xx_hal_can.c **** 
 375:Drivers/STM32F1xx_HAL_Driver/Src/stm32f1xx_hal_can.c ****   /* Set the time triggered communication mode */
 376:Drivers/STM32F1xx_HAL_Driver/Src/stm32f1xx_hal_can.c ****   if (hcan->Init.TimeTriggeredMode == ENABLE)
 377:Drivers/STM32F1xx_HAL_Driver/Src/stm32f1xx_hal_can.c ****   {
 378:Drivers/STM32F1xx_HAL_Driver/Src/stm32f1xx_hal_can.c ****     SET_BIT(hcan->Instance->MCR, CAN_MCR_TTCM);
 379:Drivers/STM32F1xx_HAL_Driver/Src/stm32f1xx_hal_can.c ****   }
 380:Drivers/STM32F1xx_HAL_Driver/Src/stm32f1xx_hal_can.c ****   else
 381:Drivers/STM32F1xx_HAL_Driver/Src/stm32f1xx_hal_can.c ****   {
 382:Drivers/STM32F1xx_HAL_Driver/Src/stm32f1xx_hal_can.c ****     CLEAR_BIT(hcan->Instance->MCR, CAN_MCR_TTCM);
 383:Drivers/STM32F1xx_HAL_Driver/Src/stm32f1xx_hal_can.c ****   }
 384:Drivers/STM32F1xx_HAL_Driver/Src/stm32f1xx_hal_can.c **** 
 385:Drivers/STM32F1xx_HAL_Driver/Src/stm32f1xx_hal_can.c ****   /* Set the automatic bus-off management */
 386:Drivers/STM32F1xx_HAL_Driver/Src/stm32f1xx_hal_can.c ****   if (hcan->Init.AutoBusOff == ENABLE)
 387:Drivers/STM32F1xx_HAL_Driver/Src/stm32f1xx_hal_can.c ****   {
 388:Drivers/STM32F1xx_HAL_Driver/Src/stm32f1xx_hal_can.c ****     SET_BIT(hcan->Instance->MCR, CAN_MCR_ABOM);
 389:Drivers/STM32F1xx_HAL_Driver/Src/stm32f1xx_hal_can.c ****   }
 390:Drivers/STM32F1xx_HAL_Driver/Src/stm32f1xx_hal_can.c ****   else
 391:Drivers/STM32F1xx_HAL_Driver/Src/stm32f1xx_hal_can.c ****   {
 392:Drivers/STM32F1xx_HAL_Driver/Src/stm32f1xx_hal_can.c ****     CLEAR_BIT(hcan->Instance->MCR, CAN_MCR_ABOM);
 393:Drivers/STM32F1xx_HAL_Driver/Src/stm32f1xx_hal_can.c ****   }
 394:Drivers/STM32F1xx_HAL_Driver/Src/stm32f1xx_hal_can.c **** 
 395:Drivers/STM32F1xx_HAL_Driver/Src/stm32f1xx_hal_can.c ****   /* Set the automatic wake-up mode */
 396:Drivers/STM32F1xx_HAL_Driver/Src/stm32f1xx_hal_can.c ****   if (hcan->Init.AutoWakeUp == ENABLE)
 397:Drivers/STM32F1xx_HAL_Driver/Src/stm32f1xx_hal_can.c ****   {
 398:Drivers/STM32F1xx_HAL_Driver/Src/stm32f1xx_hal_can.c ****     SET_BIT(hcan->Instance->MCR, CAN_MCR_AWUM);
 399:Drivers/STM32F1xx_HAL_Driver/Src/stm32f1xx_hal_can.c ****   }
 400:Drivers/STM32F1xx_HAL_Driver/Src/stm32f1xx_hal_can.c ****   else
 401:Drivers/STM32F1xx_HAL_Driver/Src/stm32f1xx_hal_can.c ****   {
 402:Drivers/STM32F1xx_HAL_Driver/Src/stm32f1xx_hal_can.c ****     CLEAR_BIT(hcan->Instance->MCR, CAN_MCR_AWUM);
 403:Drivers/STM32F1xx_HAL_Driver/Src/stm32f1xx_hal_can.c ****   }
 404:Drivers/STM32F1xx_HAL_Driver/Src/stm32f1xx_hal_can.c **** 
 405:Drivers/STM32F1xx_HAL_Driver/Src/stm32f1xx_hal_can.c ****   /* Set the automatic retransmission */
 406:Drivers/STM32F1xx_HAL_Driver/Src/stm32f1xx_hal_can.c ****   if (hcan->Init.AutoRetransmission == ENABLE)
 407:Drivers/STM32F1xx_HAL_Driver/Src/stm32f1xx_hal_can.c ****   {
 408:Drivers/STM32F1xx_HAL_Driver/Src/stm32f1xx_hal_can.c ****     CLEAR_BIT(hcan->Instance->MCR, CAN_MCR_NART);
 409:Drivers/STM32F1xx_HAL_Driver/Src/stm32f1xx_hal_can.c ****   }
 410:Drivers/STM32F1xx_HAL_Driver/Src/stm32f1xx_hal_can.c ****   else
 411:Drivers/STM32F1xx_HAL_Driver/Src/stm32f1xx_hal_can.c ****   {
 412:Drivers/STM32F1xx_HAL_Driver/Src/stm32f1xx_hal_can.c ****     SET_BIT(hcan->Instance->MCR, CAN_MCR_NART);
 413:Drivers/STM32F1xx_HAL_Driver/Src/stm32f1xx_hal_can.c ****   }
 414:Drivers/STM32F1xx_HAL_Driver/Src/stm32f1xx_hal_can.c **** 
 415:Drivers/STM32F1xx_HAL_Driver/Src/stm32f1xx_hal_can.c ****   /* Set the receive FIFO locked mode */
 416:Drivers/STM32F1xx_HAL_Driver/Src/stm32f1xx_hal_can.c ****   if (hcan->Init.ReceiveFifoLocked == ENABLE)
 417:Drivers/STM32F1xx_HAL_Driver/Src/stm32f1xx_hal_can.c ****   {
 418:Drivers/STM32F1xx_HAL_Driver/Src/stm32f1xx_hal_can.c ****     SET_BIT(hcan->Instance->MCR, CAN_MCR_RFLM);
 419:Drivers/STM32F1xx_HAL_Driver/Src/stm32f1xx_hal_can.c ****   }
 420:Drivers/STM32F1xx_HAL_Driver/Src/stm32f1xx_hal_can.c ****   else
 421:Drivers/STM32F1xx_HAL_Driver/Src/stm32f1xx_hal_can.c ****   {
 422:Drivers/STM32F1xx_HAL_Driver/Src/stm32f1xx_hal_can.c ****     CLEAR_BIT(hcan->Instance->MCR, CAN_MCR_RFLM);
 423:Drivers/STM32F1xx_HAL_Driver/Src/stm32f1xx_hal_can.c ****   }
 424:Drivers/STM32F1xx_HAL_Driver/Src/stm32f1xx_hal_can.c **** 
 425:Drivers/STM32F1xx_HAL_Driver/Src/stm32f1xx_hal_can.c ****   /* Set the transmit FIFO priority */
 426:Drivers/STM32F1xx_HAL_Driver/Src/stm32f1xx_hal_can.c ****   if (hcan->Init.TransmitFifoPriority == ENABLE)
 427:Drivers/STM32F1xx_HAL_Driver/Src/stm32f1xx_hal_can.c ****   {
 428:Drivers/STM32F1xx_HAL_Driver/Src/stm32f1xx_hal_can.c ****     SET_BIT(hcan->Instance->MCR, CAN_MCR_TXFP);
 429:Drivers/STM32F1xx_HAL_Driver/Src/stm32f1xx_hal_can.c ****   }
 430:Drivers/STM32F1xx_HAL_Driver/Src/stm32f1xx_hal_can.c ****   else
ARM GAS  C:\Users\Rick\AppData\Local\Temp\ccbuSalp.s 			page 9


 431:Drivers/STM32F1xx_HAL_Driver/Src/stm32f1xx_hal_can.c ****   {
 432:Drivers/STM32F1xx_HAL_Driver/Src/stm32f1xx_hal_can.c ****     CLEAR_BIT(hcan->Instance->MCR, CAN_MCR_TXFP);
 433:Drivers/STM32F1xx_HAL_Driver/Src/stm32f1xx_hal_can.c ****   }
 434:Drivers/STM32F1xx_HAL_Driver/Src/stm32f1xx_hal_can.c **** 
 435:Drivers/STM32F1xx_HAL_Driver/Src/stm32f1xx_hal_can.c ****   /* Set the bit timing register */
 436:Drivers/STM32F1xx_HAL_Driver/Src/stm32f1xx_hal_can.c ****   WRITE_REG(hcan->Instance->BTR, (uint32_t)(hcan->Init.Mode           |
 437:Drivers/STM32F1xx_HAL_Driver/Src/stm32f1xx_hal_can.c ****                                             hcan->Init.SyncJumpWidth  |
 438:Drivers/STM32F1xx_HAL_Driver/Src/stm32f1xx_hal_can.c ****                                             hcan->Init.TimeSeg1       |
 439:Drivers/STM32F1xx_HAL_Driver/Src/stm32f1xx_hal_can.c ****                                             hcan->Init.TimeSeg2       |
 440:Drivers/STM32F1xx_HAL_Driver/Src/stm32f1xx_hal_can.c ****                                             (hcan->Init.Prescaler - 1U)));
 441:Drivers/STM32F1xx_HAL_Driver/Src/stm32f1xx_hal_can.c **** 
 442:Drivers/STM32F1xx_HAL_Driver/Src/stm32f1xx_hal_can.c ****   /* Initialize the error code */
 443:Drivers/STM32F1xx_HAL_Driver/Src/stm32f1xx_hal_can.c ****   hcan->ErrorCode = HAL_CAN_ERROR_NONE;
 444:Drivers/STM32F1xx_HAL_Driver/Src/stm32f1xx_hal_can.c **** 
 445:Drivers/STM32F1xx_HAL_Driver/Src/stm32f1xx_hal_can.c ****   /* Initialize the CAN state */
 446:Drivers/STM32F1xx_HAL_Driver/Src/stm32f1xx_hal_can.c ****   hcan->State = HAL_CAN_STATE_READY;
 447:Drivers/STM32F1xx_HAL_Driver/Src/stm32f1xx_hal_can.c **** 
 448:Drivers/STM32F1xx_HAL_Driver/Src/stm32f1xx_hal_can.c ****   /* Return function status */
 449:Drivers/STM32F1xx_HAL_Driver/Src/stm32f1xx_hal_can.c ****   return HAL_OK;
 450:Drivers/STM32F1xx_HAL_Driver/Src/stm32f1xx_hal_can.c **** }
 451:Drivers/STM32F1xx_HAL_Driver/Src/stm32f1xx_hal_can.c **** 
 452:Drivers/STM32F1xx_HAL_Driver/Src/stm32f1xx_hal_can.c **** /**
 453:Drivers/STM32F1xx_HAL_Driver/Src/stm32f1xx_hal_can.c ****   * @brief  Deinitializes the CAN peripheral registers to their default
 454:Drivers/STM32F1xx_HAL_Driver/Src/stm32f1xx_hal_can.c ****   *         reset values.
 455:Drivers/STM32F1xx_HAL_Driver/Src/stm32f1xx_hal_can.c ****   * @param  hcan pointer to a CAN_HandleTypeDef structure that contains
 456:Drivers/STM32F1xx_HAL_Driver/Src/stm32f1xx_hal_can.c ****   *         the configuration information for the specified CAN.
 457:Drivers/STM32F1xx_HAL_Driver/Src/stm32f1xx_hal_can.c ****   * @retval HAL status
 458:Drivers/STM32F1xx_HAL_Driver/Src/stm32f1xx_hal_can.c ****   */
 459:Drivers/STM32F1xx_HAL_Driver/Src/stm32f1xx_hal_can.c **** HAL_StatusTypeDef HAL_CAN_DeInit(CAN_HandleTypeDef *hcan)
 460:Drivers/STM32F1xx_HAL_Driver/Src/stm32f1xx_hal_can.c **** {
 461:Drivers/STM32F1xx_HAL_Driver/Src/stm32f1xx_hal_can.c ****   /* Check CAN handle */
 462:Drivers/STM32F1xx_HAL_Driver/Src/stm32f1xx_hal_can.c ****   if (hcan == NULL)
 463:Drivers/STM32F1xx_HAL_Driver/Src/stm32f1xx_hal_can.c ****   {
 464:Drivers/STM32F1xx_HAL_Driver/Src/stm32f1xx_hal_can.c ****     return HAL_ERROR;
 465:Drivers/STM32F1xx_HAL_Driver/Src/stm32f1xx_hal_can.c ****   }
 466:Drivers/STM32F1xx_HAL_Driver/Src/stm32f1xx_hal_can.c **** 
 467:Drivers/STM32F1xx_HAL_Driver/Src/stm32f1xx_hal_can.c ****   /* Check the parameters */
 468:Drivers/STM32F1xx_HAL_Driver/Src/stm32f1xx_hal_can.c ****   assert_param(IS_CAN_ALL_INSTANCE(hcan->Instance));
 469:Drivers/STM32F1xx_HAL_Driver/Src/stm32f1xx_hal_can.c **** 
 470:Drivers/STM32F1xx_HAL_Driver/Src/stm32f1xx_hal_can.c ****   /* Stop the CAN module */
 471:Drivers/STM32F1xx_HAL_Driver/Src/stm32f1xx_hal_can.c ****   (void)HAL_CAN_Stop(hcan);
 472:Drivers/STM32F1xx_HAL_Driver/Src/stm32f1xx_hal_can.c **** 
 473:Drivers/STM32F1xx_HAL_Driver/Src/stm32f1xx_hal_can.c **** #if USE_HAL_CAN_REGISTER_CALLBACKS == 1
 474:Drivers/STM32F1xx_HAL_Driver/Src/stm32f1xx_hal_can.c ****   if (hcan->MspDeInitCallback == NULL)
 475:Drivers/STM32F1xx_HAL_Driver/Src/stm32f1xx_hal_can.c ****   {
 476:Drivers/STM32F1xx_HAL_Driver/Src/stm32f1xx_hal_can.c ****     hcan->MspDeInitCallback = HAL_CAN_MspDeInit; /* Legacy weak MspDeInit */
 477:Drivers/STM32F1xx_HAL_Driver/Src/stm32f1xx_hal_can.c ****   }
 478:Drivers/STM32F1xx_HAL_Driver/Src/stm32f1xx_hal_can.c **** 
 479:Drivers/STM32F1xx_HAL_Driver/Src/stm32f1xx_hal_can.c ****   /* DeInit the low level hardware: CLOCK, NVIC */
 480:Drivers/STM32F1xx_HAL_Driver/Src/stm32f1xx_hal_can.c ****   hcan->MspDeInitCallback(hcan);
 481:Drivers/STM32F1xx_HAL_Driver/Src/stm32f1xx_hal_can.c **** 
 482:Drivers/STM32F1xx_HAL_Driver/Src/stm32f1xx_hal_can.c **** #else
 483:Drivers/STM32F1xx_HAL_Driver/Src/stm32f1xx_hal_can.c ****   /* DeInit the low level hardware: CLOCK, NVIC */
 484:Drivers/STM32F1xx_HAL_Driver/Src/stm32f1xx_hal_can.c ****   HAL_CAN_MspDeInit(hcan);
 485:Drivers/STM32F1xx_HAL_Driver/Src/stm32f1xx_hal_can.c **** #endif /* (USE_HAL_CAN_REGISTER_CALLBACKS) */
 486:Drivers/STM32F1xx_HAL_Driver/Src/stm32f1xx_hal_can.c **** 
 487:Drivers/STM32F1xx_HAL_Driver/Src/stm32f1xx_hal_can.c ****   /* Reset the CAN peripheral */
ARM GAS  C:\Users\Rick\AppData\Local\Temp\ccbuSalp.s 			page 10


 488:Drivers/STM32F1xx_HAL_Driver/Src/stm32f1xx_hal_can.c ****   SET_BIT(hcan->Instance->MCR, CAN_MCR_RESET);
 489:Drivers/STM32F1xx_HAL_Driver/Src/stm32f1xx_hal_can.c **** 
 490:Drivers/STM32F1xx_HAL_Driver/Src/stm32f1xx_hal_can.c ****   /* Reset the CAN ErrorCode */
 491:Drivers/STM32F1xx_HAL_Driver/Src/stm32f1xx_hal_can.c ****   hcan->ErrorCode = HAL_CAN_ERROR_NONE;
 492:Drivers/STM32F1xx_HAL_Driver/Src/stm32f1xx_hal_can.c **** 
 493:Drivers/STM32F1xx_HAL_Driver/Src/stm32f1xx_hal_can.c ****   /* Change CAN state */
 494:Drivers/STM32F1xx_HAL_Driver/Src/stm32f1xx_hal_can.c ****   hcan->State = HAL_CAN_STATE_RESET;
 495:Drivers/STM32F1xx_HAL_Driver/Src/stm32f1xx_hal_can.c **** 
 496:Drivers/STM32F1xx_HAL_Driver/Src/stm32f1xx_hal_can.c ****   /* Return function status */
 497:Drivers/STM32F1xx_HAL_Driver/Src/stm32f1xx_hal_can.c ****   return HAL_OK;
 498:Drivers/STM32F1xx_HAL_Driver/Src/stm32f1xx_hal_can.c **** }
 499:Drivers/STM32F1xx_HAL_Driver/Src/stm32f1xx_hal_can.c **** 
 500:Drivers/STM32F1xx_HAL_Driver/Src/stm32f1xx_hal_can.c **** /**
 501:Drivers/STM32F1xx_HAL_Driver/Src/stm32f1xx_hal_can.c ****   * @brief  Initializes the CAN MSP.
 502:Drivers/STM32F1xx_HAL_Driver/Src/stm32f1xx_hal_can.c ****   * @param  hcan pointer to a CAN_HandleTypeDef structure that contains
 503:Drivers/STM32F1xx_HAL_Driver/Src/stm32f1xx_hal_can.c ****   *         the configuration information for the specified CAN.
 504:Drivers/STM32F1xx_HAL_Driver/Src/stm32f1xx_hal_can.c ****   * @retval None
 505:Drivers/STM32F1xx_HAL_Driver/Src/stm32f1xx_hal_can.c ****   */
 506:Drivers/STM32F1xx_HAL_Driver/Src/stm32f1xx_hal_can.c **** __weak void HAL_CAN_MspInit(CAN_HandleTypeDef *hcan)
 507:Drivers/STM32F1xx_HAL_Driver/Src/stm32f1xx_hal_can.c **** {
  28              		.loc 1 507 1 view -0
  29              		.cfi_startproc
  30              		@ args = 0, pretend = 0, frame = 0
  31              		@ frame_needed = 0, uses_anonymous_args = 0
  32              		@ link register save eliminated.
 508:Drivers/STM32F1xx_HAL_Driver/Src/stm32f1xx_hal_can.c ****   /* Prevent unused argument(s) compilation warning */
 509:Drivers/STM32F1xx_HAL_Driver/Src/stm32f1xx_hal_can.c ****   UNUSED(hcan);
  33              		.loc 1 509 3 view .LVU1
 510:Drivers/STM32F1xx_HAL_Driver/Src/stm32f1xx_hal_can.c **** 
 511:Drivers/STM32F1xx_HAL_Driver/Src/stm32f1xx_hal_can.c ****   /* NOTE : This function Should not be modified, when the callback is needed,
 512:Drivers/STM32F1xx_HAL_Driver/Src/stm32f1xx_hal_can.c ****             the HAL_CAN_MspInit could be implemented in the user file
 513:Drivers/STM32F1xx_HAL_Driver/Src/stm32f1xx_hal_can.c ****    */
 514:Drivers/STM32F1xx_HAL_Driver/Src/stm32f1xx_hal_can.c **** }
  34              		.loc 1 514 1 is_stmt 0 view .LVU2
  35 0000 7047     		bx	lr
  36              		.cfi_endproc
  37              	.LFE67:
  39              		.section	.text.HAL_CAN_Init,"ax",%progbits
  40              		.align	1
  41              		.global	HAL_CAN_Init
  42              		.syntax unified
  43              		.thumb
  44              		.thumb_func
  46              	HAL_CAN_Init:
  47              	.LVL1:
  48              	.LFB65:
 275:Drivers/STM32F1xx_HAL_Driver/Src/stm32f1xx_hal_can.c ****   uint32_t tickstart;
  49              		.loc 1 275 1 is_stmt 1 view -0
  50              		.cfi_startproc
  51              		@ args = 0, pretend = 0, frame = 0
  52              		@ frame_needed = 0, uses_anonymous_args = 0
 276:Drivers/STM32F1xx_HAL_Driver/Src/stm32f1xx_hal_can.c **** 
  53              		.loc 1 276 3 view .LVU4
 279:Drivers/STM32F1xx_HAL_Driver/Src/stm32f1xx_hal_can.c ****   {
  54              		.loc 1 279 3 view .LVU5
 279:Drivers/STM32F1xx_HAL_Driver/Src/stm32f1xx_hal_can.c ****   {
  55              		.loc 1 279 6 is_stmt 0 view .LVU6
ARM GAS  C:\Users\Rick\AppData\Local\Temp\ccbuSalp.s 			page 11


  56 0000 0028     		cmp	r0, #0
  57 0002 00F0A180 		beq	.L21
 275:Drivers/STM32F1xx_HAL_Driver/Src/stm32f1xx_hal_can.c ****   uint32_t tickstart;
  58              		.loc 1 275 1 view .LVU7
  59 0006 38B5     		push	{r3, r4, r5, lr}
  60              	.LCFI0:
  61              		.cfi_def_cfa_offset 16
  62              		.cfi_offset 3, -16
  63              		.cfi_offset 4, -12
  64              		.cfi_offset 5, -8
  65              		.cfi_offset 14, -4
  66 0008 0446     		mov	r4, r0
 285:Drivers/STM32F1xx_HAL_Driver/Src/stm32f1xx_hal_can.c ****   assert_param(IS_FUNCTIONAL_STATE(hcan->Init.TimeTriggeredMode));
  67              		.loc 1 285 3 is_stmt 1 view .LVU8
 286:Drivers/STM32F1xx_HAL_Driver/Src/stm32f1xx_hal_can.c ****   assert_param(IS_FUNCTIONAL_STATE(hcan->Init.AutoBusOff));
  68              		.loc 1 286 3 view .LVU9
 287:Drivers/STM32F1xx_HAL_Driver/Src/stm32f1xx_hal_can.c ****   assert_param(IS_FUNCTIONAL_STATE(hcan->Init.AutoWakeUp));
  69              		.loc 1 287 3 view .LVU10
 288:Drivers/STM32F1xx_HAL_Driver/Src/stm32f1xx_hal_can.c ****   assert_param(IS_FUNCTIONAL_STATE(hcan->Init.AutoRetransmission));
  70              		.loc 1 288 3 view .LVU11
 289:Drivers/STM32F1xx_HAL_Driver/Src/stm32f1xx_hal_can.c ****   assert_param(IS_FUNCTIONAL_STATE(hcan->Init.ReceiveFifoLocked));
  71              		.loc 1 289 3 view .LVU12
 290:Drivers/STM32F1xx_HAL_Driver/Src/stm32f1xx_hal_can.c ****   assert_param(IS_FUNCTIONAL_STATE(hcan->Init.TransmitFifoPriority));
  72              		.loc 1 290 3 view .LVU13
 291:Drivers/STM32F1xx_HAL_Driver/Src/stm32f1xx_hal_can.c ****   assert_param(IS_CAN_MODE(hcan->Init.Mode));
  73              		.loc 1 291 3 view .LVU14
 292:Drivers/STM32F1xx_HAL_Driver/Src/stm32f1xx_hal_can.c ****   assert_param(IS_CAN_SJW(hcan->Init.SyncJumpWidth));
  74              		.loc 1 292 3 view .LVU15
 293:Drivers/STM32F1xx_HAL_Driver/Src/stm32f1xx_hal_can.c ****   assert_param(IS_CAN_BS1(hcan->Init.TimeSeg1));
  75              		.loc 1 293 3 view .LVU16
 294:Drivers/STM32F1xx_HAL_Driver/Src/stm32f1xx_hal_can.c ****   assert_param(IS_CAN_BS2(hcan->Init.TimeSeg2));
  76              		.loc 1 294 3 view .LVU17
 295:Drivers/STM32F1xx_HAL_Driver/Src/stm32f1xx_hal_can.c ****   assert_param(IS_CAN_PRESCALER(hcan->Init.Prescaler));
  77              		.loc 1 295 3 view .LVU18
 296:Drivers/STM32F1xx_HAL_Driver/Src/stm32f1xx_hal_can.c **** 
  78              		.loc 1 296 3 view .LVU19
 326:Drivers/STM32F1xx_HAL_Driver/Src/stm32f1xx_hal_can.c ****   {
  79              		.loc 1 326 3 view .LVU20
 326:Drivers/STM32F1xx_HAL_Driver/Src/stm32f1xx_hal_can.c ****   {
  80              		.loc 1 326 11 is_stmt 0 view .LVU21
  81 000a 90F82030 		ldrb	r3, [r0, #32]	@ zero_extendqisi2
 326:Drivers/STM32F1xx_HAL_Driver/Src/stm32f1xx_hal_can.c ****   {
  82              		.loc 1 326 6 view .LVU22
  83 000e D3B1     		cbz	r3, .L26
  84              	.LVL2:
  85              	.L4:
 334:Drivers/STM32F1xx_HAL_Driver/Src/stm32f1xx_hal_can.c **** 
  86              		.loc 1 334 3 is_stmt 1 view .LVU23
  87 0010 2268     		ldr	r2, [r4]
  88 0012 1368     		ldr	r3, [r2]
  89 0014 43F00103 		orr	r3, r3, #1
  90 0018 1360     		str	r3, [r2]
 337:Drivers/STM32F1xx_HAL_Driver/Src/stm32f1xx_hal_can.c **** 
  91              		.loc 1 337 3 view .LVU24
 337:Drivers/STM32F1xx_HAL_Driver/Src/stm32f1xx_hal_can.c **** 
  92              		.loc 1 337 15 is_stmt 0 view .LVU25
  93 001a FFF7FEFF 		bl	HAL_GetTick
ARM GAS  C:\Users\Rick\AppData\Local\Temp\ccbuSalp.s 			page 12


  94              	.LVL3:
  95 001e 0546     		mov	r5, r0
  96              	.LVL4:
 340:Drivers/STM32F1xx_HAL_Driver/Src/stm32f1xx_hal_can.c ****   {
  97              		.loc 1 340 3 is_stmt 1 view .LVU26
  98              	.L5:
 340:Drivers/STM32F1xx_HAL_Driver/Src/stm32f1xx_hal_can.c ****   {
  99              		.loc 1 340 9 view .LVU27
 340:Drivers/STM32F1xx_HAL_Driver/Src/stm32f1xx_hal_can.c ****   {
 100              		.loc 1 340 15 is_stmt 0 view .LVU28
 101 0020 2368     		ldr	r3, [r4]
 340:Drivers/STM32F1xx_HAL_Driver/Src/stm32f1xx_hal_can.c ****   {
 102              		.loc 1 340 25 view .LVU29
 103 0022 5A68     		ldr	r2, [r3, #4]
 340:Drivers/STM32F1xx_HAL_Driver/Src/stm32f1xx_hal_can.c ****   {
 104              		.loc 1 340 9 view .LVU30
 105 0024 12F0010F 		tst	r2, #1
 106 0028 10D1     		bne	.L27
 342:Drivers/STM32F1xx_HAL_Driver/Src/stm32f1xx_hal_can.c ****     {
 107              		.loc 1 342 5 is_stmt 1 view .LVU31
 342:Drivers/STM32F1xx_HAL_Driver/Src/stm32f1xx_hal_can.c ****     {
 108              		.loc 1 342 10 is_stmt 0 view .LVU32
 109 002a FFF7FEFF 		bl	HAL_GetTick
 110              	.LVL5:
 342:Drivers/STM32F1xx_HAL_Driver/Src/stm32f1xx_hal_can.c ****     {
 111              		.loc 1 342 24 view .LVU33
 112 002e 401B     		subs	r0, r0, r5
 342:Drivers/STM32F1xx_HAL_Driver/Src/stm32f1xx_hal_can.c ****     {
 113              		.loc 1 342 8 view .LVU34
 114 0030 0A28     		cmp	r0, #10
 115 0032 F5D9     		bls	.L5
 345:Drivers/STM32F1xx_HAL_Driver/Src/stm32f1xx_hal_can.c **** 
 116              		.loc 1 345 7 is_stmt 1 view .LVU35
 345:Drivers/STM32F1xx_HAL_Driver/Src/stm32f1xx_hal_can.c **** 
 117              		.loc 1 345 23 is_stmt 0 view .LVU36
 118 0034 636A     		ldr	r3, [r4, #36]
 119 0036 43F40033 		orr	r3, r3, #131072
 120 003a 6362     		str	r3, [r4, #36]
 348:Drivers/STM32F1xx_HAL_Driver/Src/stm32f1xx_hal_can.c **** 
 121              		.loc 1 348 7 is_stmt 1 view .LVU37
 348:Drivers/STM32F1xx_HAL_Driver/Src/stm32f1xx_hal_can.c **** 
 122              		.loc 1 348 19 is_stmt 0 view .LVU38
 123 003c 0523     		movs	r3, #5
 124 003e 84F82030 		strb	r3, [r4, #32]
 350:Drivers/STM32F1xx_HAL_Driver/Src/stm32f1xx_hal_can.c ****     }
 125              		.loc 1 350 7 is_stmt 1 view .LVU39
 350:Drivers/STM32F1xx_HAL_Driver/Src/stm32f1xx_hal_can.c ****     }
 126              		.loc 1 350 14 is_stmt 0 view .LVU40
 127 0042 0120     		movs	r0, #1
 128              	.L3:
 450:Drivers/STM32F1xx_HAL_Driver/Src/stm32f1xx_hal_can.c **** 
 129              		.loc 1 450 1 view .LVU41
 130 0044 38BD     		pop	{r3, r4, r5, pc}
 131              	.LVL6:
 132              	.L26:
 329:Drivers/STM32F1xx_HAL_Driver/Src/stm32f1xx_hal_can.c ****   }
 133              		.loc 1 329 5 is_stmt 1 view .LVU42
ARM GAS  C:\Users\Rick\AppData\Local\Temp\ccbuSalp.s 			page 13


 134 0046 FFF7FEFF 		bl	HAL_CAN_MspInit
 135              	.LVL7:
 329:Drivers/STM32F1xx_HAL_Driver/Src/stm32f1xx_hal_can.c ****   }
 136              		.loc 1 329 5 is_stmt 0 view .LVU43
 137 004a E1E7     		b	.L4
 138              	.LVL8:
 139              	.L27:
 355:Drivers/STM32F1xx_HAL_Driver/Src/stm32f1xx_hal_can.c **** 
 140              		.loc 1 355 3 is_stmt 1 view .LVU44
 141 004c 1A68     		ldr	r2, [r3]
 142 004e 22F00202 		bic	r2, r2, #2
 143 0052 1A60     		str	r2, [r3]
 358:Drivers/STM32F1xx_HAL_Driver/Src/stm32f1xx_hal_can.c **** 
 144              		.loc 1 358 3 view .LVU45
 358:Drivers/STM32F1xx_HAL_Driver/Src/stm32f1xx_hal_can.c **** 
 145              		.loc 1 358 15 is_stmt 0 view .LVU46
 146 0054 FFF7FEFF 		bl	HAL_GetTick
 147              	.LVL9:
 148 0058 0546     		mov	r5, r0
 149              	.LVL10:
 361:Drivers/STM32F1xx_HAL_Driver/Src/stm32f1xx_hal_can.c ****   {
 150              		.loc 1 361 3 is_stmt 1 view .LVU47
 151              	.L7:
 361:Drivers/STM32F1xx_HAL_Driver/Src/stm32f1xx_hal_can.c ****   {
 152              		.loc 1 361 9 view .LVU48
 361:Drivers/STM32F1xx_HAL_Driver/Src/stm32f1xx_hal_can.c ****   {
 153              		.loc 1 361 15 is_stmt 0 view .LVU49
 154 005a 2368     		ldr	r3, [r4]
 361:Drivers/STM32F1xx_HAL_Driver/Src/stm32f1xx_hal_can.c ****   {
 155              		.loc 1 361 25 view .LVU50
 156 005c 5A68     		ldr	r2, [r3, #4]
 361:Drivers/STM32F1xx_HAL_Driver/Src/stm32f1xx_hal_can.c ****   {
 157              		.loc 1 361 9 view .LVU51
 158 005e 12F0020F 		tst	r2, #2
 159 0062 0DD0     		beq	.L28
 363:Drivers/STM32F1xx_HAL_Driver/Src/stm32f1xx_hal_can.c ****     {
 160              		.loc 1 363 5 is_stmt 1 view .LVU52
 363:Drivers/STM32F1xx_HAL_Driver/Src/stm32f1xx_hal_can.c ****     {
 161              		.loc 1 363 10 is_stmt 0 view .LVU53
 162 0064 FFF7FEFF 		bl	HAL_GetTick
 163              	.LVL11:
 363:Drivers/STM32F1xx_HAL_Driver/Src/stm32f1xx_hal_can.c ****     {
 164              		.loc 1 363 24 view .LVU54
 165 0068 401B     		subs	r0, r0, r5
 363:Drivers/STM32F1xx_HAL_Driver/Src/stm32f1xx_hal_can.c ****     {
 166              		.loc 1 363 8 view .LVU55
 167 006a 0A28     		cmp	r0, #10
 168 006c F5D9     		bls	.L7
 366:Drivers/STM32F1xx_HAL_Driver/Src/stm32f1xx_hal_can.c **** 
 169              		.loc 1 366 7 is_stmt 1 view .LVU56
 366:Drivers/STM32F1xx_HAL_Driver/Src/stm32f1xx_hal_can.c **** 
 170              		.loc 1 366 23 is_stmt 0 view .LVU57
 171 006e 636A     		ldr	r3, [r4, #36]
 172 0070 43F40033 		orr	r3, r3, #131072
 173 0074 6362     		str	r3, [r4, #36]
 369:Drivers/STM32F1xx_HAL_Driver/Src/stm32f1xx_hal_can.c **** 
 174              		.loc 1 369 7 is_stmt 1 view .LVU58
ARM GAS  C:\Users\Rick\AppData\Local\Temp\ccbuSalp.s 			page 14


 369:Drivers/STM32F1xx_HAL_Driver/Src/stm32f1xx_hal_can.c **** 
 175              		.loc 1 369 19 is_stmt 0 view .LVU59
 176 0076 0523     		movs	r3, #5
 177 0078 84F82030 		strb	r3, [r4, #32]
 371:Drivers/STM32F1xx_HAL_Driver/Src/stm32f1xx_hal_can.c ****     }
 178              		.loc 1 371 7 is_stmt 1 view .LVU60
 371:Drivers/STM32F1xx_HAL_Driver/Src/stm32f1xx_hal_can.c ****     }
 179              		.loc 1 371 14 is_stmt 0 view .LVU61
 180 007c 0120     		movs	r0, #1
 181 007e E1E7     		b	.L3
 182              	.L28:
 376:Drivers/STM32F1xx_HAL_Driver/Src/stm32f1xx_hal_can.c ****   {
 183              		.loc 1 376 3 is_stmt 1 view .LVU62
 376:Drivers/STM32F1xx_HAL_Driver/Src/stm32f1xx_hal_can.c ****   {
 184              		.loc 1 376 17 is_stmt 0 view .LVU63
 185 0080 227E     		ldrb	r2, [r4, #24]	@ zero_extendqisi2
 376:Drivers/STM32F1xx_HAL_Driver/Src/stm32f1xx_hal_can.c ****   {
 186              		.loc 1 376 6 view .LVU64
 187 0082 012A     		cmp	r2, #1
 188 0084 3DD0     		beq	.L29
 382:Drivers/STM32F1xx_HAL_Driver/Src/stm32f1xx_hal_can.c ****   }
 189              		.loc 1 382 5 is_stmt 1 view .LVU65
 190 0086 1A68     		ldr	r2, [r3]
 191 0088 22F08002 		bic	r2, r2, #128
 192 008c 1A60     		str	r2, [r3]
 193              	.L10:
 386:Drivers/STM32F1xx_HAL_Driver/Src/stm32f1xx_hal_can.c ****   {
 194              		.loc 1 386 3 view .LVU66
 386:Drivers/STM32F1xx_HAL_Driver/Src/stm32f1xx_hal_can.c ****   {
 195              		.loc 1 386 17 is_stmt 0 view .LVU67
 196 008e 637E     		ldrb	r3, [r4, #25]	@ zero_extendqisi2
 386:Drivers/STM32F1xx_HAL_Driver/Src/stm32f1xx_hal_can.c ****   {
 197              		.loc 1 386 6 view .LVU68
 198 0090 012B     		cmp	r3, #1
 199 0092 3BD0     		beq	.L30
 392:Drivers/STM32F1xx_HAL_Driver/Src/stm32f1xx_hal_can.c ****   }
 200              		.loc 1 392 5 is_stmt 1 view .LVU69
 201 0094 2268     		ldr	r2, [r4]
 202 0096 1368     		ldr	r3, [r2]
 203 0098 23F04003 		bic	r3, r3, #64
 204 009c 1360     		str	r3, [r2]
 205              	.L12:
 396:Drivers/STM32F1xx_HAL_Driver/Src/stm32f1xx_hal_can.c ****   {
 206              		.loc 1 396 3 view .LVU70
 396:Drivers/STM32F1xx_HAL_Driver/Src/stm32f1xx_hal_can.c ****   {
 207              		.loc 1 396 17 is_stmt 0 view .LVU71
 208 009e A37E     		ldrb	r3, [r4, #26]	@ zero_extendqisi2
 396:Drivers/STM32F1xx_HAL_Driver/Src/stm32f1xx_hal_can.c ****   {
 209              		.loc 1 396 6 view .LVU72
 210 00a0 012B     		cmp	r3, #1
 211 00a2 39D0     		beq	.L31
 402:Drivers/STM32F1xx_HAL_Driver/Src/stm32f1xx_hal_can.c ****   }
 212              		.loc 1 402 5 is_stmt 1 view .LVU73
 213 00a4 2268     		ldr	r2, [r4]
 214 00a6 1368     		ldr	r3, [r2]
 215 00a8 23F02003 		bic	r3, r3, #32
 216 00ac 1360     		str	r3, [r2]
ARM GAS  C:\Users\Rick\AppData\Local\Temp\ccbuSalp.s 			page 15


 217              	.L14:
 406:Drivers/STM32F1xx_HAL_Driver/Src/stm32f1xx_hal_can.c ****   {
 218              		.loc 1 406 3 view .LVU74
 406:Drivers/STM32F1xx_HAL_Driver/Src/stm32f1xx_hal_can.c ****   {
 219              		.loc 1 406 17 is_stmt 0 view .LVU75
 220 00ae E37E     		ldrb	r3, [r4, #27]	@ zero_extendqisi2
 406:Drivers/STM32F1xx_HAL_Driver/Src/stm32f1xx_hal_can.c ****   {
 221              		.loc 1 406 6 view .LVU76
 222 00b0 012B     		cmp	r3, #1
 223 00b2 37D0     		beq	.L32
 412:Drivers/STM32F1xx_HAL_Driver/Src/stm32f1xx_hal_can.c ****   }
 224              		.loc 1 412 5 is_stmt 1 view .LVU77
 225 00b4 2268     		ldr	r2, [r4]
 226 00b6 1368     		ldr	r3, [r2]
 227 00b8 43F01003 		orr	r3, r3, #16
 228 00bc 1360     		str	r3, [r2]
 229              	.L16:
 416:Drivers/STM32F1xx_HAL_Driver/Src/stm32f1xx_hal_can.c ****   {
 230              		.loc 1 416 3 view .LVU78
 416:Drivers/STM32F1xx_HAL_Driver/Src/stm32f1xx_hal_can.c ****   {
 231              		.loc 1 416 17 is_stmt 0 view .LVU79
 232 00be 237F     		ldrb	r3, [r4, #28]	@ zero_extendqisi2
 416:Drivers/STM32F1xx_HAL_Driver/Src/stm32f1xx_hal_can.c ****   {
 233              		.loc 1 416 6 view .LVU80
 234 00c0 012B     		cmp	r3, #1
 235 00c2 35D0     		beq	.L33
 422:Drivers/STM32F1xx_HAL_Driver/Src/stm32f1xx_hal_can.c ****   }
 236              		.loc 1 422 5 is_stmt 1 view .LVU81
 237 00c4 2268     		ldr	r2, [r4]
 238 00c6 1368     		ldr	r3, [r2]
 239 00c8 23F00803 		bic	r3, r3, #8
 240 00cc 1360     		str	r3, [r2]
 241              	.L18:
 426:Drivers/STM32F1xx_HAL_Driver/Src/stm32f1xx_hal_can.c ****   {
 242              		.loc 1 426 3 view .LVU82
 426:Drivers/STM32F1xx_HAL_Driver/Src/stm32f1xx_hal_can.c ****   {
 243              		.loc 1 426 17 is_stmt 0 view .LVU83
 244 00ce 637F     		ldrb	r3, [r4, #29]	@ zero_extendqisi2
 426:Drivers/STM32F1xx_HAL_Driver/Src/stm32f1xx_hal_can.c ****   {
 245              		.loc 1 426 6 view .LVU84
 246 00d0 012B     		cmp	r3, #1
 247 00d2 33D0     		beq	.L34
 432:Drivers/STM32F1xx_HAL_Driver/Src/stm32f1xx_hal_can.c ****   }
 248              		.loc 1 432 5 is_stmt 1 view .LVU85
 249 00d4 2268     		ldr	r2, [r4]
 250 00d6 1368     		ldr	r3, [r2]
 251 00d8 23F00403 		bic	r3, r3, #4
 252 00dc 1360     		str	r3, [r2]
 253              	.L20:
 436:Drivers/STM32F1xx_HAL_Driver/Src/stm32f1xx_hal_can.c ****                                             hcan->Init.SyncJumpWidth  |
 254              		.loc 1 436 3 view .LVU86
 255 00de A368     		ldr	r3, [r4, #8]
 256 00e0 E268     		ldr	r2, [r4, #12]
 257 00e2 1343     		orrs	r3, r3, r2
 258 00e4 2269     		ldr	r2, [r4, #16]
 259 00e6 1343     		orrs	r3, r3, r2
 260 00e8 6269     		ldr	r2, [r4, #20]
ARM GAS  C:\Users\Rick\AppData\Local\Temp\ccbuSalp.s 			page 16


 261 00ea 1343     		orrs	r3, r3, r2
 262 00ec 6268     		ldr	r2, [r4, #4]
 263 00ee 013A     		subs	r2, r2, #1
 264 00f0 2168     		ldr	r1, [r4]
 265 00f2 1343     		orrs	r3, r3, r2
 266 00f4 CB61     		str	r3, [r1, #28]
 443:Drivers/STM32F1xx_HAL_Driver/Src/stm32f1xx_hal_can.c **** 
 267              		.loc 1 443 3 view .LVU87
 443:Drivers/STM32F1xx_HAL_Driver/Src/stm32f1xx_hal_can.c **** 
 268              		.loc 1 443 19 is_stmt 0 view .LVU88
 269 00f6 0020     		movs	r0, #0
 270 00f8 6062     		str	r0, [r4, #36]
 446:Drivers/STM32F1xx_HAL_Driver/Src/stm32f1xx_hal_can.c **** 
 271              		.loc 1 446 3 is_stmt 1 view .LVU89
 446:Drivers/STM32F1xx_HAL_Driver/Src/stm32f1xx_hal_can.c **** 
 272              		.loc 1 446 15 is_stmt 0 view .LVU90
 273 00fa 0123     		movs	r3, #1
 274 00fc 84F82030 		strb	r3, [r4, #32]
 449:Drivers/STM32F1xx_HAL_Driver/Src/stm32f1xx_hal_can.c **** }
 275              		.loc 1 449 3 is_stmt 1 view .LVU91
 449:Drivers/STM32F1xx_HAL_Driver/Src/stm32f1xx_hal_can.c **** }
 276              		.loc 1 449 10 is_stmt 0 view .LVU92
 277 0100 A0E7     		b	.L3
 278              	.L29:
 378:Drivers/STM32F1xx_HAL_Driver/Src/stm32f1xx_hal_can.c ****   }
 279              		.loc 1 378 5 is_stmt 1 view .LVU93
 280 0102 1A68     		ldr	r2, [r3]
 281 0104 42F08002 		orr	r2, r2, #128
 282 0108 1A60     		str	r2, [r3]
 283 010a C0E7     		b	.L10
 284              	.L30:
 388:Drivers/STM32F1xx_HAL_Driver/Src/stm32f1xx_hal_can.c ****   }
 285              		.loc 1 388 5 view .LVU94
 286 010c 2268     		ldr	r2, [r4]
 287 010e 1368     		ldr	r3, [r2]
 288 0110 43F04003 		orr	r3, r3, #64
 289 0114 1360     		str	r3, [r2]
 290 0116 C2E7     		b	.L12
 291              	.L31:
 398:Drivers/STM32F1xx_HAL_Driver/Src/stm32f1xx_hal_can.c ****   }
 292              		.loc 1 398 5 view .LVU95
 293 0118 2268     		ldr	r2, [r4]
 294 011a 1368     		ldr	r3, [r2]
 295 011c 43F02003 		orr	r3, r3, #32
 296 0120 1360     		str	r3, [r2]
 297 0122 C4E7     		b	.L14
 298              	.L32:
 408:Drivers/STM32F1xx_HAL_Driver/Src/stm32f1xx_hal_can.c ****   }
 299              		.loc 1 408 5 view .LVU96
 300 0124 2268     		ldr	r2, [r4]
 301 0126 1368     		ldr	r3, [r2]
 302 0128 23F01003 		bic	r3, r3, #16
 303 012c 1360     		str	r3, [r2]
 304 012e C6E7     		b	.L16
 305              	.L33:
 418:Drivers/STM32F1xx_HAL_Driver/Src/stm32f1xx_hal_can.c ****   }
 306              		.loc 1 418 5 view .LVU97
ARM GAS  C:\Users\Rick\AppData\Local\Temp\ccbuSalp.s 			page 17


 307 0130 2268     		ldr	r2, [r4]
 308 0132 1368     		ldr	r3, [r2]
 309 0134 43F00803 		orr	r3, r3, #8
 310 0138 1360     		str	r3, [r2]
 311 013a C8E7     		b	.L18
 312              	.L34:
 428:Drivers/STM32F1xx_HAL_Driver/Src/stm32f1xx_hal_can.c ****   }
 313              		.loc 1 428 5 view .LVU98
 314 013c 2268     		ldr	r2, [r4]
 315 013e 1368     		ldr	r3, [r2]
 316 0140 43F00403 		orr	r3, r3, #4
 317 0144 1360     		str	r3, [r2]
 318 0146 CAE7     		b	.L20
 319              	.LVL12:
 320              	.L21:
 321              	.LCFI1:
 322              		.cfi_def_cfa_offset 0
 323              		.cfi_restore 3
 324              		.cfi_restore 4
 325              		.cfi_restore 5
 326              		.cfi_restore 14
 281:Drivers/STM32F1xx_HAL_Driver/Src/stm32f1xx_hal_can.c ****   }
 327              		.loc 1 281 12 is_stmt 0 view .LVU99
 328 0148 0120     		movs	r0, #1
 329              	.LVL13:
 450:Drivers/STM32F1xx_HAL_Driver/Src/stm32f1xx_hal_can.c **** 
 330              		.loc 1 450 1 view .LVU100
 331 014a 7047     		bx	lr
 332              		.cfi_endproc
 333              	.LFE65:
 335              		.section	.text.HAL_CAN_MspDeInit,"ax",%progbits
 336              		.align	1
 337              		.weak	HAL_CAN_MspDeInit
 338              		.syntax unified
 339              		.thumb
 340              		.thumb_func
 342              	HAL_CAN_MspDeInit:
 343              	.LVL14:
 344              	.LFB68:
 515:Drivers/STM32F1xx_HAL_Driver/Src/stm32f1xx_hal_can.c **** 
 516:Drivers/STM32F1xx_HAL_Driver/Src/stm32f1xx_hal_can.c **** /**
 517:Drivers/STM32F1xx_HAL_Driver/Src/stm32f1xx_hal_can.c ****   * @brief  DeInitializes the CAN MSP.
 518:Drivers/STM32F1xx_HAL_Driver/Src/stm32f1xx_hal_can.c ****   * @param  hcan pointer to a CAN_HandleTypeDef structure that contains
 519:Drivers/STM32F1xx_HAL_Driver/Src/stm32f1xx_hal_can.c ****   *         the configuration information for the specified CAN.
 520:Drivers/STM32F1xx_HAL_Driver/Src/stm32f1xx_hal_can.c ****   * @retval None
 521:Drivers/STM32F1xx_HAL_Driver/Src/stm32f1xx_hal_can.c ****   */
 522:Drivers/STM32F1xx_HAL_Driver/Src/stm32f1xx_hal_can.c **** __weak void HAL_CAN_MspDeInit(CAN_HandleTypeDef *hcan)
 523:Drivers/STM32F1xx_HAL_Driver/Src/stm32f1xx_hal_can.c **** {
 345              		.loc 1 523 1 is_stmt 1 view -0
 346              		.cfi_startproc
 347              		@ args = 0, pretend = 0, frame = 0
 348              		@ frame_needed = 0, uses_anonymous_args = 0
 349              		@ link register save eliminated.
 524:Drivers/STM32F1xx_HAL_Driver/Src/stm32f1xx_hal_can.c ****   /* Prevent unused argument(s) compilation warning */
 525:Drivers/STM32F1xx_HAL_Driver/Src/stm32f1xx_hal_can.c ****   UNUSED(hcan);
 350              		.loc 1 525 3 view .LVU102
 526:Drivers/STM32F1xx_HAL_Driver/Src/stm32f1xx_hal_can.c **** 
ARM GAS  C:\Users\Rick\AppData\Local\Temp\ccbuSalp.s 			page 18


 527:Drivers/STM32F1xx_HAL_Driver/Src/stm32f1xx_hal_can.c ****   /* NOTE : This function Should not be modified, when the callback is needed,
 528:Drivers/STM32F1xx_HAL_Driver/Src/stm32f1xx_hal_can.c ****             the HAL_CAN_MspDeInit could be implemented in the user file
 529:Drivers/STM32F1xx_HAL_Driver/Src/stm32f1xx_hal_can.c ****    */
 530:Drivers/STM32F1xx_HAL_Driver/Src/stm32f1xx_hal_can.c **** }
 351              		.loc 1 530 1 is_stmt 0 view .LVU103
 352 0000 7047     		bx	lr
 353              		.cfi_endproc
 354              	.LFE68:
 356              		.section	.text.HAL_CAN_ConfigFilter,"ax",%progbits
 357              		.align	1
 358              		.global	HAL_CAN_ConfigFilter
 359              		.syntax unified
 360              		.thumb
 361              		.thumb_func
 363              	HAL_CAN_ConfigFilter:
 364              	.LVL15:
 365              	.LFB69:
 531:Drivers/STM32F1xx_HAL_Driver/Src/stm32f1xx_hal_can.c **** 
 532:Drivers/STM32F1xx_HAL_Driver/Src/stm32f1xx_hal_can.c **** #if USE_HAL_CAN_REGISTER_CALLBACKS == 1
 533:Drivers/STM32F1xx_HAL_Driver/Src/stm32f1xx_hal_can.c **** /**
 534:Drivers/STM32F1xx_HAL_Driver/Src/stm32f1xx_hal_can.c ****   * @brief  Register a CAN CallBack.
 535:Drivers/STM32F1xx_HAL_Driver/Src/stm32f1xx_hal_can.c ****   *         To be used instead of the weak predefined callback
 536:Drivers/STM32F1xx_HAL_Driver/Src/stm32f1xx_hal_can.c ****   * @param  hcan pointer to a CAN_HandleTypeDef structure that contains
 537:Drivers/STM32F1xx_HAL_Driver/Src/stm32f1xx_hal_can.c ****   *         the configuration information for CAN module
 538:Drivers/STM32F1xx_HAL_Driver/Src/stm32f1xx_hal_can.c ****   * @param  CallbackID ID of the callback to be registered
 539:Drivers/STM32F1xx_HAL_Driver/Src/stm32f1xx_hal_can.c ****   *         This parameter can be one of the following values:
 540:Drivers/STM32F1xx_HAL_Driver/Src/stm32f1xx_hal_can.c ****   *           @arg @ref HAL_CAN_TX_MAILBOX0_COMPLETE_CB_ID Tx Mailbox 0 Complete callback ID
 541:Drivers/STM32F1xx_HAL_Driver/Src/stm32f1xx_hal_can.c ****   *           @arg @ref HAL_CAN_TX_MAILBOX1_COMPLETE_CB_ID Tx Mailbox 1 Complete callback ID
 542:Drivers/STM32F1xx_HAL_Driver/Src/stm32f1xx_hal_can.c ****   *           @arg @ref HAL_CAN_TX_MAILBOX2_COMPLETE_CB_ID Tx Mailbox 2 Complete callback ID
 543:Drivers/STM32F1xx_HAL_Driver/Src/stm32f1xx_hal_can.c ****   *           @arg @ref HAL_CAN_TX_MAILBOX0_ABORT_CB_ID Tx Mailbox 0 Abort callback ID
 544:Drivers/STM32F1xx_HAL_Driver/Src/stm32f1xx_hal_can.c ****   *           @arg @ref HAL_CAN_TX_MAILBOX1_ABORT_CB_ID Tx Mailbox 1 Abort callback ID
 545:Drivers/STM32F1xx_HAL_Driver/Src/stm32f1xx_hal_can.c ****   *           @arg @ref HAL_CAN_TX_MAILBOX2_ABORT_CB_ID Tx Mailbox 2 Abort callback ID
 546:Drivers/STM32F1xx_HAL_Driver/Src/stm32f1xx_hal_can.c ****   *           @arg @ref HAL_CAN_RX_FIFO0_MSG_PENDING_CB_ID Rx Fifo 0 message pending callback ID
 547:Drivers/STM32F1xx_HAL_Driver/Src/stm32f1xx_hal_can.c ****   *           @arg @ref HAL_CAN_RX_FIFO0_FULL_CB_ID Rx Fifo 0 full callback ID
 548:Drivers/STM32F1xx_HAL_Driver/Src/stm32f1xx_hal_can.c ****   *           @arg @ref HAL_CAN_RX_FIFO1_MSG_PENDING_CB_ID Rx Fifo 1 message pending callback ID
 549:Drivers/STM32F1xx_HAL_Driver/Src/stm32f1xx_hal_can.c ****   *           @arg @ref HAL_CAN_RX_FIFO1_FULL_CB_ID Rx Fifo 1 full callback ID
 550:Drivers/STM32F1xx_HAL_Driver/Src/stm32f1xx_hal_can.c ****   *           @arg @ref HAL_CAN_SLEEP_CB_ID Sleep callback ID
 551:Drivers/STM32F1xx_HAL_Driver/Src/stm32f1xx_hal_can.c ****   *           @arg @ref HAL_CAN_WAKEUP_FROM_RX_MSG_CB_ID Wake Up from Rx message callback ID
 552:Drivers/STM32F1xx_HAL_Driver/Src/stm32f1xx_hal_can.c ****   *           @arg @ref HAL_CAN_ERROR_CB_ID Error callback ID
 553:Drivers/STM32F1xx_HAL_Driver/Src/stm32f1xx_hal_can.c ****   *           @arg @ref HAL_CAN_MSPINIT_CB_ID MspInit callback ID
 554:Drivers/STM32F1xx_HAL_Driver/Src/stm32f1xx_hal_can.c ****   *           @arg @ref HAL_CAN_MSPDEINIT_CB_ID MspDeInit callback ID
 555:Drivers/STM32F1xx_HAL_Driver/Src/stm32f1xx_hal_can.c ****   * @param  pCallback pointer to the Callback function
 556:Drivers/STM32F1xx_HAL_Driver/Src/stm32f1xx_hal_can.c ****   * @retval HAL status
 557:Drivers/STM32F1xx_HAL_Driver/Src/stm32f1xx_hal_can.c ****   */
 558:Drivers/STM32F1xx_HAL_Driver/Src/stm32f1xx_hal_can.c **** HAL_StatusTypeDef HAL_CAN_RegisterCallback(CAN_HandleTypeDef *hcan, HAL_CAN_CallbackIDTypeDef Callb
 559:Drivers/STM32F1xx_HAL_Driver/Src/stm32f1xx_hal_can.c ****                                            void (* pCallback)(CAN_HandleTypeDef *_hcan))
 560:Drivers/STM32F1xx_HAL_Driver/Src/stm32f1xx_hal_can.c **** {
 561:Drivers/STM32F1xx_HAL_Driver/Src/stm32f1xx_hal_can.c ****   HAL_StatusTypeDef status = HAL_OK;
 562:Drivers/STM32F1xx_HAL_Driver/Src/stm32f1xx_hal_can.c **** 
 563:Drivers/STM32F1xx_HAL_Driver/Src/stm32f1xx_hal_can.c ****   if (pCallback == NULL)
 564:Drivers/STM32F1xx_HAL_Driver/Src/stm32f1xx_hal_can.c ****   {
 565:Drivers/STM32F1xx_HAL_Driver/Src/stm32f1xx_hal_can.c ****     /* Update the error code */
 566:Drivers/STM32F1xx_HAL_Driver/Src/stm32f1xx_hal_can.c ****     hcan->ErrorCode |= HAL_CAN_ERROR_INVALID_CALLBACK;
 567:Drivers/STM32F1xx_HAL_Driver/Src/stm32f1xx_hal_can.c **** 
 568:Drivers/STM32F1xx_HAL_Driver/Src/stm32f1xx_hal_can.c ****     return HAL_ERROR;
 569:Drivers/STM32F1xx_HAL_Driver/Src/stm32f1xx_hal_can.c ****   }
 570:Drivers/STM32F1xx_HAL_Driver/Src/stm32f1xx_hal_can.c **** 
ARM GAS  C:\Users\Rick\AppData\Local\Temp\ccbuSalp.s 			page 19


 571:Drivers/STM32F1xx_HAL_Driver/Src/stm32f1xx_hal_can.c ****   if (hcan->State == HAL_CAN_STATE_READY)
 572:Drivers/STM32F1xx_HAL_Driver/Src/stm32f1xx_hal_can.c ****   {
 573:Drivers/STM32F1xx_HAL_Driver/Src/stm32f1xx_hal_can.c ****     switch (CallbackID)
 574:Drivers/STM32F1xx_HAL_Driver/Src/stm32f1xx_hal_can.c ****     {
 575:Drivers/STM32F1xx_HAL_Driver/Src/stm32f1xx_hal_can.c ****       case HAL_CAN_TX_MAILBOX0_COMPLETE_CB_ID :
 576:Drivers/STM32F1xx_HAL_Driver/Src/stm32f1xx_hal_can.c ****         hcan->TxMailbox0CompleteCallback = pCallback;
 577:Drivers/STM32F1xx_HAL_Driver/Src/stm32f1xx_hal_can.c ****         break;
 578:Drivers/STM32F1xx_HAL_Driver/Src/stm32f1xx_hal_can.c **** 
 579:Drivers/STM32F1xx_HAL_Driver/Src/stm32f1xx_hal_can.c ****       case HAL_CAN_TX_MAILBOX1_COMPLETE_CB_ID :
 580:Drivers/STM32F1xx_HAL_Driver/Src/stm32f1xx_hal_can.c ****         hcan->TxMailbox1CompleteCallback = pCallback;
 581:Drivers/STM32F1xx_HAL_Driver/Src/stm32f1xx_hal_can.c ****         break;
 582:Drivers/STM32F1xx_HAL_Driver/Src/stm32f1xx_hal_can.c **** 
 583:Drivers/STM32F1xx_HAL_Driver/Src/stm32f1xx_hal_can.c ****       case HAL_CAN_TX_MAILBOX2_COMPLETE_CB_ID :
 584:Drivers/STM32F1xx_HAL_Driver/Src/stm32f1xx_hal_can.c ****         hcan->TxMailbox2CompleteCallback = pCallback;
 585:Drivers/STM32F1xx_HAL_Driver/Src/stm32f1xx_hal_can.c ****         break;
 586:Drivers/STM32F1xx_HAL_Driver/Src/stm32f1xx_hal_can.c **** 
 587:Drivers/STM32F1xx_HAL_Driver/Src/stm32f1xx_hal_can.c ****       case HAL_CAN_TX_MAILBOX0_ABORT_CB_ID :
 588:Drivers/STM32F1xx_HAL_Driver/Src/stm32f1xx_hal_can.c ****         hcan->TxMailbox0AbortCallback = pCallback;
 589:Drivers/STM32F1xx_HAL_Driver/Src/stm32f1xx_hal_can.c ****         break;
 590:Drivers/STM32F1xx_HAL_Driver/Src/stm32f1xx_hal_can.c **** 
 591:Drivers/STM32F1xx_HAL_Driver/Src/stm32f1xx_hal_can.c ****       case HAL_CAN_TX_MAILBOX1_ABORT_CB_ID :
 592:Drivers/STM32F1xx_HAL_Driver/Src/stm32f1xx_hal_can.c ****         hcan->TxMailbox1AbortCallback = pCallback;
 593:Drivers/STM32F1xx_HAL_Driver/Src/stm32f1xx_hal_can.c ****         break;
 594:Drivers/STM32F1xx_HAL_Driver/Src/stm32f1xx_hal_can.c **** 
 595:Drivers/STM32F1xx_HAL_Driver/Src/stm32f1xx_hal_can.c ****       case HAL_CAN_TX_MAILBOX2_ABORT_CB_ID :
 596:Drivers/STM32F1xx_HAL_Driver/Src/stm32f1xx_hal_can.c ****         hcan->TxMailbox2AbortCallback = pCallback;
 597:Drivers/STM32F1xx_HAL_Driver/Src/stm32f1xx_hal_can.c ****         break;
 598:Drivers/STM32F1xx_HAL_Driver/Src/stm32f1xx_hal_can.c **** 
 599:Drivers/STM32F1xx_HAL_Driver/Src/stm32f1xx_hal_can.c ****       case HAL_CAN_RX_FIFO0_MSG_PENDING_CB_ID :
 600:Drivers/STM32F1xx_HAL_Driver/Src/stm32f1xx_hal_can.c ****         hcan->RxFifo0MsgPendingCallback = pCallback;
 601:Drivers/STM32F1xx_HAL_Driver/Src/stm32f1xx_hal_can.c ****         break;
 602:Drivers/STM32F1xx_HAL_Driver/Src/stm32f1xx_hal_can.c **** 
 603:Drivers/STM32F1xx_HAL_Driver/Src/stm32f1xx_hal_can.c ****       case HAL_CAN_RX_FIFO0_FULL_CB_ID :
 604:Drivers/STM32F1xx_HAL_Driver/Src/stm32f1xx_hal_can.c ****         hcan->RxFifo0FullCallback = pCallback;
 605:Drivers/STM32F1xx_HAL_Driver/Src/stm32f1xx_hal_can.c ****         break;
 606:Drivers/STM32F1xx_HAL_Driver/Src/stm32f1xx_hal_can.c **** 
 607:Drivers/STM32F1xx_HAL_Driver/Src/stm32f1xx_hal_can.c ****       case HAL_CAN_RX_FIFO1_MSG_PENDING_CB_ID :
 608:Drivers/STM32F1xx_HAL_Driver/Src/stm32f1xx_hal_can.c ****         hcan->RxFifo1MsgPendingCallback = pCallback;
 609:Drivers/STM32F1xx_HAL_Driver/Src/stm32f1xx_hal_can.c ****         break;
 610:Drivers/STM32F1xx_HAL_Driver/Src/stm32f1xx_hal_can.c **** 
 611:Drivers/STM32F1xx_HAL_Driver/Src/stm32f1xx_hal_can.c ****       case HAL_CAN_RX_FIFO1_FULL_CB_ID :
 612:Drivers/STM32F1xx_HAL_Driver/Src/stm32f1xx_hal_can.c ****         hcan->RxFifo1FullCallback = pCallback;
 613:Drivers/STM32F1xx_HAL_Driver/Src/stm32f1xx_hal_can.c ****         break;
 614:Drivers/STM32F1xx_HAL_Driver/Src/stm32f1xx_hal_can.c **** 
 615:Drivers/STM32F1xx_HAL_Driver/Src/stm32f1xx_hal_can.c ****       case HAL_CAN_SLEEP_CB_ID :
 616:Drivers/STM32F1xx_HAL_Driver/Src/stm32f1xx_hal_can.c ****         hcan->SleepCallback = pCallback;
 617:Drivers/STM32F1xx_HAL_Driver/Src/stm32f1xx_hal_can.c ****         break;
 618:Drivers/STM32F1xx_HAL_Driver/Src/stm32f1xx_hal_can.c **** 
 619:Drivers/STM32F1xx_HAL_Driver/Src/stm32f1xx_hal_can.c ****       case HAL_CAN_WAKEUP_FROM_RX_MSG_CB_ID :
 620:Drivers/STM32F1xx_HAL_Driver/Src/stm32f1xx_hal_can.c ****         hcan->WakeUpFromRxMsgCallback = pCallback;
 621:Drivers/STM32F1xx_HAL_Driver/Src/stm32f1xx_hal_can.c ****         break;
 622:Drivers/STM32F1xx_HAL_Driver/Src/stm32f1xx_hal_can.c **** 
 623:Drivers/STM32F1xx_HAL_Driver/Src/stm32f1xx_hal_can.c ****       case HAL_CAN_ERROR_CB_ID :
 624:Drivers/STM32F1xx_HAL_Driver/Src/stm32f1xx_hal_can.c ****         hcan->ErrorCallback = pCallback;
 625:Drivers/STM32F1xx_HAL_Driver/Src/stm32f1xx_hal_can.c ****         break;
 626:Drivers/STM32F1xx_HAL_Driver/Src/stm32f1xx_hal_can.c **** 
 627:Drivers/STM32F1xx_HAL_Driver/Src/stm32f1xx_hal_can.c ****       case HAL_CAN_MSPINIT_CB_ID :
ARM GAS  C:\Users\Rick\AppData\Local\Temp\ccbuSalp.s 			page 20


 628:Drivers/STM32F1xx_HAL_Driver/Src/stm32f1xx_hal_can.c ****         hcan->MspInitCallback = pCallback;
 629:Drivers/STM32F1xx_HAL_Driver/Src/stm32f1xx_hal_can.c ****         break;
 630:Drivers/STM32F1xx_HAL_Driver/Src/stm32f1xx_hal_can.c **** 
 631:Drivers/STM32F1xx_HAL_Driver/Src/stm32f1xx_hal_can.c ****       case HAL_CAN_MSPDEINIT_CB_ID :
 632:Drivers/STM32F1xx_HAL_Driver/Src/stm32f1xx_hal_can.c ****         hcan->MspDeInitCallback = pCallback;
 633:Drivers/STM32F1xx_HAL_Driver/Src/stm32f1xx_hal_can.c ****         break;
 634:Drivers/STM32F1xx_HAL_Driver/Src/stm32f1xx_hal_can.c **** 
 635:Drivers/STM32F1xx_HAL_Driver/Src/stm32f1xx_hal_can.c ****       default :
 636:Drivers/STM32F1xx_HAL_Driver/Src/stm32f1xx_hal_can.c ****         /* Update the error code */
 637:Drivers/STM32F1xx_HAL_Driver/Src/stm32f1xx_hal_can.c ****         hcan->ErrorCode |= HAL_CAN_ERROR_INVALID_CALLBACK;
 638:Drivers/STM32F1xx_HAL_Driver/Src/stm32f1xx_hal_can.c **** 
 639:Drivers/STM32F1xx_HAL_Driver/Src/stm32f1xx_hal_can.c ****         /* Return error status */
 640:Drivers/STM32F1xx_HAL_Driver/Src/stm32f1xx_hal_can.c ****         status =  HAL_ERROR;
 641:Drivers/STM32F1xx_HAL_Driver/Src/stm32f1xx_hal_can.c ****         break;
 642:Drivers/STM32F1xx_HAL_Driver/Src/stm32f1xx_hal_can.c ****     }
 643:Drivers/STM32F1xx_HAL_Driver/Src/stm32f1xx_hal_can.c ****   }
 644:Drivers/STM32F1xx_HAL_Driver/Src/stm32f1xx_hal_can.c ****   else if (hcan->State == HAL_CAN_STATE_RESET)
 645:Drivers/STM32F1xx_HAL_Driver/Src/stm32f1xx_hal_can.c ****   {
 646:Drivers/STM32F1xx_HAL_Driver/Src/stm32f1xx_hal_can.c ****     switch (CallbackID)
 647:Drivers/STM32F1xx_HAL_Driver/Src/stm32f1xx_hal_can.c ****     {
 648:Drivers/STM32F1xx_HAL_Driver/Src/stm32f1xx_hal_can.c ****       case HAL_CAN_MSPINIT_CB_ID :
 649:Drivers/STM32F1xx_HAL_Driver/Src/stm32f1xx_hal_can.c ****         hcan->MspInitCallback = pCallback;
 650:Drivers/STM32F1xx_HAL_Driver/Src/stm32f1xx_hal_can.c ****         break;
 651:Drivers/STM32F1xx_HAL_Driver/Src/stm32f1xx_hal_can.c **** 
 652:Drivers/STM32F1xx_HAL_Driver/Src/stm32f1xx_hal_can.c ****       case HAL_CAN_MSPDEINIT_CB_ID :
 653:Drivers/STM32F1xx_HAL_Driver/Src/stm32f1xx_hal_can.c ****         hcan->MspDeInitCallback = pCallback;
 654:Drivers/STM32F1xx_HAL_Driver/Src/stm32f1xx_hal_can.c ****         break;
 655:Drivers/STM32F1xx_HAL_Driver/Src/stm32f1xx_hal_can.c **** 
 656:Drivers/STM32F1xx_HAL_Driver/Src/stm32f1xx_hal_can.c ****       default :
 657:Drivers/STM32F1xx_HAL_Driver/Src/stm32f1xx_hal_can.c ****         /* Update the error code */
 658:Drivers/STM32F1xx_HAL_Driver/Src/stm32f1xx_hal_can.c ****         hcan->ErrorCode |= HAL_CAN_ERROR_INVALID_CALLBACK;
 659:Drivers/STM32F1xx_HAL_Driver/Src/stm32f1xx_hal_can.c **** 
 660:Drivers/STM32F1xx_HAL_Driver/Src/stm32f1xx_hal_can.c ****         /* Return error status */
 661:Drivers/STM32F1xx_HAL_Driver/Src/stm32f1xx_hal_can.c ****         status =  HAL_ERROR;
 662:Drivers/STM32F1xx_HAL_Driver/Src/stm32f1xx_hal_can.c ****         break;
 663:Drivers/STM32F1xx_HAL_Driver/Src/stm32f1xx_hal_can.c ****     }
 664:Drivers/STM32F1xx_HAL_Driver/Src/stm32f1xx_hal_can.c ****   }
 665:Drivers/STM32F1xx_HAL_Driver/Src/stm32f1xx_hal_can.c ****   else
 666:Drivers/STM32F1xx_HAL_Driver/Src/stm32f1xx_hal_can.c ****   {
 667:Drivers/STM32F1xx_HAL_Driver/Src/stm32f1xx_hal_can.c ****     /* Update the error code */
 668:Drivers/STM32F1xx_HAL_Driver/Src/stm32f1xx_hal_can.c ****     hcan->ErrorCode |= HAL_CAN_ERROR_INVALID_CALLBACK;
 669:Drivers/STM32F1xx_HAL_Driver/Src/stm32f1xx_hal_can.c **** 
 670:Drivers/STM32F1xx_HAL_Driver/Src/stm32f1xx_hal_can.c ****     /* Return error status */
 671:Drivers/STM32F1xx_HAL_Driver/Src/stm32f1xx_hal_can.c ****     status =  HAL_ERROR;
 672:Drivers/STM32F1xx_HAL_Driver/Src/stm32f1xx_hal_can.c ****   }
 673:Drivers/STM32F1xx_HAL_Driver/Src/stm32f1xx_hal_can.c **** 
 674:Drivers/STM32F1xx_HAL_Driver/Src/stm32f1xx_hal_can.c ****   return status;
 675:Drivers/STM32F1xx_HAL_Driver/Src/stm32f1xx_hal_can.c **** }
 676:Drivers/STM32F1xx_HAL_Driver/Src/stm32f1xx_hal_can.c **** 
 677:Drivers/STM32F1xx_HAL_Driver/Src/stm32f1xx_hal_can.c **** /**
 678:Drivers/STM32F1xx_HAL_Driver/Src/stm32f1xx_hal_can.c ****   * @brief  Unregister a CAN CallBack.
 679:Drivers/STM32F1xx_HAL_Driver/Src/stm32f1xx_hal_can.c ****   *         CAN callback is redirected to the weak predefined callback
 680:Drivers/STM32F1xx_HAL_Driver/Src/stm32f1xx_hal_can.c ****   * @param  hcan pointer to a CAN_HandleTypeDef structure that contains
 681:Drivers/STM32F1xx_HAL_Driver/Src/stm32f1xx_hal_can.c ****   *         the configuration information for CAN module
 682:Drivers/STM32F1xx_HAL_Driver/Src/stm32f1xx_hal_can.c ****   * @param  CallbackID ID of the callback to be unregistered
 683:Drivers/STM32F1xx_HAL_Driver/Src/stm32f1xx_hal_can.c ****   *         This parameter can be one of the following values:
 684:Drivers/STM32F1xx_HAL_Driver/Src/stm32f1xx_hal_can.c ****   *           @arg @ref HAL_CAN_TX_MAILBOX0_COMPLETE_CB_ID Tx Mailbox 0 Complete callback ID
ARM GAS  C:\Users\Rick\AppData\Local\Temp\ccbuSalp.s 			page 21


 685:Drivers/STM32F1xx_HAL_Driver/Src/stm32f1xx_hal_can.c ****   *           @arg @ref HAL_CAN_TX_MAILBOX1_COMPLETE_CB_ID Tx Mailbox 1 Complete callback ID
 686:Drivers/STM32F1xx_HAL_Driver/Src/stm32f1xx_hal_can.c ****   *           @arg @ref HAL_CAN_TX_MAILBOX2_COMPLETE_CB_ID Tx Mailbox 2 Complete callback ID
 687:Drivers/STM32F1xx_HAL_Driver/Src/stm32f1xx_hal_can.c ****   *           @arg @ref HAL_CAN_TX_MAILBOX0_ABORT_CB_ID Tx Mailbox 0 Abort callback ID
 688:Drivers/STM32F1xx_HAL_Driver/Src/stm32f1xx_hal_can.c ****   *           @arg @ref HAL_CAN_TX_MAILBOX1_ABORT_CB_ID Tx Mailbox 1 Abort callback ID
 689:Drivers/STM32F1xx_HAL_Driver/Src/stm32f1xx_hal_can.c ****   *           @arg @ref HAL_CAN_TX_MAILBOX2_ABORT_CB_ID Tx Mailbox 2 Abort callback ID
 690:Drivers/STM32F1xx_HAL_Driver/Src/stm32f1xx_hal_can.c ****   *           @arg @ref HAL_CAN_RX_FIFO0_MSG_PENDING_CB_ID Rx Fifo 0 message pending callback ID
 691:Drivers/STM32F1xx_HAL_Driver/Src/stm32f1xx_hal_can.c ****   *           @arg @ref HAL_CAN_RX_FIFO0_FULL_CB_ID Rx Fifo 0 full callback ID
 692:Drivers/STM32F1xx_HAL_Driver/Src/stm32f1xx_hal_can.c ****   *           @arg @ref HAL_CAN_RX_FIFO1_MSG_PENDING_CB_ID Rx Fifo 1 message pending callback ID
 693:Drivers/STM32F1xx_HAL_Driver/Src/stm32f1xx_hal_can.c ****   *           @arg @ref HAL_CAN_RX_FIFO1_FULL_CB_ID Rx Fifo 1 full callback ID
 694:Drivers/STM32F1xx_HAL_Driver/Src/stm32f1xx_hal_can.c ****   *           @arg @ref HAL_CAN_SLEEP_CB_ID Sleep callback ID
 695:Drivers/STM32F1xx_HAL_Driver/Src/stm32f1xx_hal_can.c ****   *           @arg @ref HAL_CAN_WAKEUP_FROM_RX_MSG_CB_ID Wake Up from Rx message callback ID
 696:Drivers/STM32F1xx_HAL_Driver/Src/stm32f1xx_hal_can.c ****   *           @arg @ref HAL_CAN_ERROR_CB_ID Error callback ID
 697:Drivers/STM32F1xx_HAL_Driver/Src/stm32f1xx_hal_can.c ****   *           @arg @ref HAL_CAN_MSPINIT_CB_ID MspInit callback ID
 698:Drivers/STM32F1xx_HAL_Driver/Src/stm32f1xx_hal_can.c ****   *           @arg @ref HAL_CAN_MSPDEINIT_CB_ID MspDeInit callback ID
 699:Drivers/STM32F1xx_HAL_Driver/Src/stm32f1xx_hal_can.c ****   * @retval HAL status
 700:Drivers/STM32F1xx_HAL_Driver/Src/stm32f1xx_hal_can.c ****   */
 701:Drivers/STM32F1xx_HAL_Driver/Src/stm32f1xx_hal_can.c **** HAL_StatusTypeDef HAL_CAN_UnRegisterCallback(CAN_HandleTypeDef *hcan, HAL_CAN_CallbackIDTypeDef Cal
 702:Drivers/STM32F1xx_HAL_Driver/Src/stm32f1xx_hal_can.c **** {
 703:Drivers/STM32F1xx_HAL_Driver/Src/stm32f1xx_hal_can.c ****   HAL_StatusTypeDef status = HAL_OK;
 704:Drivers/STM32F1xx_HAL_Driver/Src/stm32f1xx_hal_can.c **** 
 705:Drivers/STM32F1xx_HAL_Driver/Src/stm32f1xx_hal_can.c ****   if (hcan->State == HAL_CAN_STATE_READY)
 706:Drivers/STM32F1xx_HAL_Driver/Src/stm32f1xx_hal_can.c ****   {
 707:Drivers/STM32F1xx_HAL_Driver/Src/stm32f1xx_hal_can.c ****     switch (CallbackID)
 708:Drivers/STM32F1xx_HAL_Driver/Src/stm32f1xx_hal_can.c ****     {
 709:Drivers/STM32F1xx_HAL_Driver/Src/stm32f1xx_hal_can.c ****       case HAL_CAN_TX_MAILBOX0_COMPLETE_CB_ID :
 710:Drivers/STM32F1xx_HAL_Driver/Src/stm32f1xx_hal_can.c ****         hcan->TxMailbox0CompleteCallback = HAL_CAN_TxMailbox0CompleteCallback;
 711:Drivers/STM32F1xx_HAL_Driver/Src/stm32f1xx_hal_can.c ****         break;
 712:Drivers/STM32F1xx_HAL_Driver/Src/stm32f1xx_hal_can.c **** 
 713:Drivers/STM32F1xx_HAL_Driver/Src/stm32f1xx_hal_can.c ****       case HAL_CAN_TX_MAILBOX1_COMPLETE_CB_ID :
 714:Drivers/STM32F1xx_HAL_Driver/Src/stm32f1xx_hal_can.c ****         hcan->TxMailbox1CompleteCallback = HAL_CAN_TxMailbox1CompleteCallback;
 715:Drivers/STM32F1xx_HAL_Driver/Src/stm32f1xx_hal_can.c ****         break;
 716:Drivers/STM32F1xx_HAL_Driver/Src/stm32f1xx_hal_can.c **** 
 717:Drivers/STM32F1xx_HAL_Driver/Src/stm32f1xx_hal_can.c ****       case HAL_CAN_TX_MAILBOX2_COMPLETE_CB_ID :
 718:Drivers/STM32F1xx_HAL_Driver/Src/stm32f1xx_hal_can.c ****         hcan->TxMailbox2CompleteCallback = HAL_CAN_TxMailbox2CompleteCallback;
 719:Drivers/STM32F1xx_HAL_Driver/Src/stm32f1xx_hal_can.c ****         break;
 720:Drivers/STM32F1xx_HAL_Driver/Src/stm32f1xx_hal_can.c **** 
 721:Drivers/STM32F1xx_HAL_Driver/Src/stm32f1xx_hal_can.c ****       case HAL_CAN_TX_MAILBOX0_ABORT_CB_ID :
 722:Drivers/STM32F1xx_HAL_Driver/Src/stm32f1xx_hal_can.c ****         hcan->TxMailbox0AbortCallback = HAL_CAN_TxMailbox0AbortCallback;
 723:Drivers/STM32F1xx_HAL_Driver/Src/stm32f1xx_hal_can.c ****         break;
 724:Drivers/STM32F1xx_HAL_Driver/Src/stm32f1xx_hal_can.c **** 
 725:Drivers/STM32F1xx_HAL_Driver/Src/stm32f1xx_hal_can.c ****       case HAL_CAN_TX_MAILBOX1_ABORT_CB_ID :
 726:Drivers/STM32F1xx_HAL_Driver/Src/stm32f1xx_hal_can.c ****         hcan->TxMailbox1AbortCallback = HAL_CAN_TxMailbox1AbortCallback;
 727:Drivers/STM32F1xx_HAL_Driver/Src/stm32f1xx_hal_can.c ****         break;
 728:Drivers/STM32F1xx_HAL_Driver/Src/stm32f1xx_hal_can.c **** 
 729:Drivers/STM32F1xx_HAL_Driver/Src/stm32f1xx_hal_can.c ****       case HAL_CAN_TX_MAILBOX2_ABORT_CB_ID :
 730:Drivers/STM32F1xx_HAL_Driver/Src/stm32f1xx_hal_can.c ****         hcan->TxMailbox2AbortCallback = HAL_CAN_TxMailbox2AbortCallback;
 731:Drivers/STM32F1xx_HAL_Driver/Src/stm32f1xx_hal_can.c ****         break;
 732:Drivers/STM32F1xx_HAL_Driver/Src/stm32f1xx_hal_can.c **** 
 733:Drivers/STM32F1xx_HAL_Driver/Src/stm32f1xx_hal_can.c ****       case HAL_CAN_RX_FIFO0_MSG_PENDING_CB_ID :
 734:Drivers/STM32F1xx_HAL_Driver/Src/stm32f1xx_hal_can.c ****         hcan->RxFifo0MsgPendingCallback = HAL_CAN_RxFifo0MsgPendingCallback;
 735:Drivers/STM32F1xx_HAL_Driver/Src/stm32f1xx_hal_can.c ****         break;
 736:Drivers/STM32F1xx_HAL_Driver/Src/stm32f1xx_hal_can.c **** 
 737:Drivers/STM32F1xx_HAL_Driver/Src/stm32f1xx_hal_can.c ****       case HAL_CAN_RX_FIFO0_FULL_CB_ID :
 738:Drivers/STM32F1xx_HAL_Driver/Src/stm32f1xx_hal_can.c ****         hcan->RxFifo0FullCallback = HAL_CAN_RxFifo0FullCallback;
 739:Drivers/STM32F1xx_HAL_Driver/Src/stm32f1xx_hal_can.c ****         break;
 740:Drivers/STM32F1xx_HAL_Driver/Src/stm32f1xx_hal_can.c **** 
 741:Drivers/STM32F1xx_HAL_Driver/Src/stm32f1xx_hal_can.c ****       case HAL_CAN_RX_FIFO1_MSG_PENDING_CB_ID :
ARM GAS  C:\Users\Rick\AppData\Local\Temp\ccbuSalp.s 			page 22


 742:Drivers/STM32F1xx_HAL_Driver/Src/stm32f1xx_hal_can.c ****         hcan->RxFifo1MsgPendingCallback = HAL_CAN_RxFifo1MsgPendingCallback;
 743:Drivers/STM32F1xx_HAL_Driver/Src/stm32f1xx_hal_can.c ****         break;
 744:Drivers/STM32F1xx_HAL_Driver/Src/stm32f1xx_hal_can.c **** 
 745:Drivers/STM32F1xx_HAL_Driver/Src/stm32f1xx_hal_can.c ****       case HAL_CAN_RX_FIFO1_FULL_CB_ID :
 746:Drivers/STM32F1xx_HAL_Driver/Src/stm32f1xx_hal_can.c ****         hcan->RxFifo1FullCallback = HAL_CAN_RxFifo1FullCallback;
 747:Drivers/STM32F1xx_HAL_Driver/Src/stm32f1xx_hal_can.c ****         break;
 748:Drivers/STM32F1xx_HAL_Driver/Src/stm32f1xx_hal_can.c **** 
 749:Drivers/STM32F1xx_HAL_Driver/Src/stm32f1xx_hal_can.c ****       case HAL_CAN_SLEEP_CB_ID :
 750:Drivers/STM32F1xx_HAL_Driver/Src/stm32f1xx_hal_can.c ****         hcan->SleepCallback = HAL_CAN_SleepCallback;
 751:Drivers/STM32F1xx_HAL_Driver/Src/stm32f1xx_hal_can.c ****         break;
 752:Drivers/STM32F1xx_HAL_Driver/Src/stm32f1xx_hal_can.c **** 
 753:Drivers/STM32F1xx_HAL_Driver/Src/stm32f1xx_hal_can.c ****       case HAL_CAN_WAKEUP_FROM_RX_MSG_CB_ID :
 754:Drivers/STM32F1xx_HAL_Driver/Src/stm32f1xx_hal_can.c ****         hcan->WakeUpFromRxMsgCallback = HAL_CAN_WakeUpFromRxMsgCallback;
 755:Drivers/STM32F1xx_HAL_Driver/Src/stm32f1xx_hal_can.c ****         break;
 756:Drivers/STM32F1xx_HAL_Driver/Src/stm32f1xx_hal_can.c **** 
 757:Drivers/STM32F1xx_HAL_Driver/Src/stm32f1xx_hal_can.c ****       case HAL_CAN_ERROR_CB_ID :
 758:Drivers/STM32F1xx_HAL_Driver/Src/stm32f1xx_hal_can.c ****         hcan->ErrorCallback = HAL_CAN_ErrorCallback;
 759:Drivers/STM32F1xx_HAL_Driver/Src/stm32f1xx_hal_can.c ****         break;
 760:Drivers/STM32F1xx_HAL_Driver/Src/stm32f1xx_hal_can.c **** 
 761:Drivers/STM32F1xx_HAL_Driver/Src/stm32f1xx_hal_can.c ****       case HAL_CAN_MSPINIT_CB_ID :
 762:Drivers/STM32F1xx_HAL_Driver/Src/stm32f1xx_hal_can.c ****         hcan->MspInitCallback = HAL_CAN_MspInit;
 763:Drivers/STM32F1xx_HAL_Driver/Src/stm32f1xx_hal_can.c ****         break;
 764:Drivers/STM32F1xx_HAL_Driver/Src/stm32f1xx_hal_can.c **** 
 765:Drivers/STM32F1xx_HAL_Driver/Src/stm32f1xx_hal_can.c ****       case HAL_CAN_MSPDEINIT_CB_ID :
 766:Drivers/STM32F1xx_HAL_Driver/Src/stm32f1xx_hal_can.c ****         hcan->MspDeInitCallback = HAL_CAN_MspDeInit;
 767:Drivers/STM32F1xx_HAL_Driver/Src/stm32f1xx_hal_can.c ****         break;
 768:Drivers/STM32F1xx_HAL_Driver/Src/stm32f1xx_hal_can.c **** 
 769:Drivers/STM32F1xx_HAL_Driver/Src/stm32f1xx_hal_can.c ****       default :
 770:Drivers/STM32F1xx_HAL_Driver/Src/stm32f1xx_hal_can.c ****         /* Update the error code */
 771:Drivers/STM32F1xx_HAL_Driver/Src/stm32f1xx_hal_can.c ****         hcan->ErrorCode |= HAL_CAN_ERROR_INVALID_CALLBACK;
 772:Drivers/STM32F1xx_HAL_Driver/Src/stm32f1xx_hal_can.c **** 
 773:Drivers/STM32F1xx_HAL_Driver/Src/stm32f1xx_hal_can.c ****         /* Return error status */
 774:Drivers/STM32F1xx_HAL_Driver/Src/stm32f1xx_hal_can.c ****         status =  HAL_ERROR;
 775:Drivers/STM32F1xx_HAL_Driver/Src/stm32f1xx_hal_can.c ****         break;
 776:Drivers/STM32F1xx_HAL_Driver/Src/stm32f1xx_hal_can.c ****     }
 777:Drivers/STM32F1xx_HAL_Driver/Src/stm32f1xx_hal_can.c ****   }
 778:Drivers/STM32F1xx_HAL_Driver/Src/stm32f1xx_hal_can.c ****   else if (hcan->State == HAL_CAN_STATE_RESET)
 779:Drivers/STM32F1xx_HAL_Driver/Src/stm32f1xx_hal_can.c ****   {
 780:Drivers/STM32F1xx_HAL_Driver/Src/stm32f1xx_hal_can.c ****     switch (CallbackID)
 781:Drivers/STM32F1xx_HAL_Driver/Src/stm32f1xx_hal_can.c ****     {
 782:Drivers/STM32F1xx_HAL_Driver/Src/stm32f1xx_hal_can.c ****       case HAL_CAN_MSPINIT_CB_ID :
 783:Drivers/STM32F1xx_HAL_Driver/Src/stm32f1xx_hal_can.c ****         hcan->MspInitCallback = HAL_CAN_MspInit;
 784:Drivers/STM32F1xx_HAL_Driver/Src/stm32f1xx_hal_can.c ****         break;
 785:Drivers/STM32F1xx_HAL_Driver/Src/stm32f1xx_hal_can.c **** 
 786:Drivers/STM32F1xx_HAL_Driver/Src/stm32f1xx_hal_can.c ****       case HAL_CAN_MSPDEINIT_CB_ID :
 787:Drivers/STM32F1xx_HAL_Driver/Src/stm32f1xx_hal_can.c ****         hcan->MspDeInitCallback = HAL_CAN_MspDeInit;
 788:Drivers/STM32F1xx_HAL_Driver/Src/stm32f1xx_hal_can.c ****         break;
 789:Drivers/STM32F1xx_HAL_Driver/Src/stm32f1xx_hal_can.c **** 
 790:Drivers/STM32F1xx_HAL_Driver/Src/stm32f1xx_hal_can.c ****       default :
 791:Drivers/STM32F1xx_HAL_Driver/Src/stm32f1xx_hal_can.c ****         /* Update the error code */
 792:Drivers/STM32F1xx_HAL_Driver/Src/stm32f1xx_hal_can.c ****         hcan->ErrorCode |= HAL_CAN_ERROR_INVALID_CALLBACK;
 793:Drivers/STM32F1xx_HAL_Driver/Src/stm32f1xx_hal_can.c **** 
 794:Drivers/STM32F1xx_HAL_Driver/Src/stm32f1xx_hal_can.c ****         /* Return error status */
 795:Drivers/STM32F1xx_HAL_Driver/Src/stm32f1xx_hal_can.c ****         status =  HAL_ERROR;
 796:Drivers/STM32F1xx_HAL_Driver/Src/stm32f1xx_hal_can.c ****         break;
 797:Drivers/STM32F1xx_HAL_Driver/Src/stm32f1xx_hal_can.c ****     }
 798:Drivers/STM32F1xx_HAL_Driver/Src/stm32f1xx_hal_can.c ****   }
ARM GAS  C:\Users\Rick\AppData\Local\Temp\ccbuSalp.s 			page 23


 799:Drivers/STM32F1xx_HAL_Driver/Src/stm32f1xx_hal_can.c ****   else
 800:Drivers/STM32F1xx_HAL_Driver/Src/stm32f1xx_hal_can.c ****   {
 801:Drivers/STM32F1xx_HAL_Driver/Src/stm32f1xx_hal_can.c ****     /* Update the error code */
 802:Drivers/STM32F1xx_HAL_Driver/Src/stm32f1xx_hal_can.c ****     hcan->ErrorCode |= HAL_CAN_ERROR_INVALID_CALLBACK;
 803:Drivers/STM32F1xx_HAL_Driver/Src/stm32f1xx_hal_can.c **** 
 804:Drivers/STM32F1xx_HAL_Driver/Src/stm32f1xx_hal_can.c ****     /* Return error status */
 805:Drivers/STM32F1xx_HAL_Driver/Src/stm32f1xx_hal_can.c ****     status =  HAL_ERROR;
 806:Drivers/STM32F1xx_HAL_Driver/Src/stm32f1xx_hal_can.c ****   }
 807:Drivers/STM32F1xx_HAL_Driver/Src/stm32f1xx_hal_can.c **** 
 808:Drivers/STM32F1xx_HAL_Driver/Src/stm32f1xx_hal_can.c ****   return status;
 809:Drivers/STM32F1xx_HAL_Driver/Src/stm32f1xx_hal_can.c **** }
 810:Drivers/STM32F1xx_HAL_Driver/Src/stm32f1xx_hal_can.c **** #endif /* USE_HAL_CAN_REGISTER_CALLBACKS */
 811:Drivers/STM32F1xx_HAL_Driver/Src/stm32f1xx_hal_can.c **** 
 812:Drivers/STM32F1xx_HAL_Driver/Src/stm32f1xx_hal_can.c **** /**
 813:Drivers/STM32F1xx_HAL_Driver/Src/stm32f1xx_hal_can.c ****   * @}
 814:Drivers/STM32F1xx_HAL_Driver/Src/stm32f1xx_hal_can.c ****   */
 815:Drivers/STM32F1xx_HAL_Driver/Src/stm32f1xx_hal_can.c **** 
 816:Drivers/STM32F1xx_HAL_Driver/Src/stm32f1xx_hal_can.c **** /** @defgroup CAN_Exported_Functions_Group2 Configuration functions
 817:Drivers/STM32F1xx_HAL_Driver/Src/stm32f1xx_hal_can.c ****  *  @brief    Configuration functions.
 818:Drivers/STM32F1xx_HAL_Driver/Src/stm32f1xx_hal_can.c ****  *
 819:Drivers/STM32F1xx_HAL_Driver/Src/stm32f1xx_hal_can.c **** @verbatim
 820:Drivers/STM32F1xx_HAL_Driver/Src/stm32f1xx_hal_can.c ****   ==============================================================================
 821:Drivers/STM32F1xx_HAL_Driver/Src/stm32f1xx_hal_can.c ****               ##### Configuration functions #####
 822:Drivers/STM32F1xx_HAL_Driver/Src/stm32f1xx_hal_can.c ****   ==============================================================================
 823:Drivers/STM32F1xx_HAL_Driver/Src/stm32f1xx_hal_can.c ****     [..]  This section provides functions allowing to:
 824:Drivers/STM32F1xx_HAL_Driver/Src/stm32f1xx_hal_can.c ****       (+) HAL_CAN_ConfigFilter            : Configure the CAN reception filters
 825:Drivers/STM32F1xx_HAL_Driver/Src/stm32f1xx_hal_can.c **** 
 826:Drivers/STM32F1xx_HAL_Driver/Src/stm32f1xx_hal_can.c **** @endverbatim
 827:Drivers/STM32F1xx_HAL_Driver/Src/stm32f1xx_hal_can.c ****   * @{
 828:Drivers/STM32F1xx_HAL_Driver/Src/stm32f1xx_hal_can.c ****   */
 829:Drivers/STM32F1xx_HAL_Driver/Src/stm32f1xx_hal_can.c **** 
 830:Drivers/STM32F1xx_HAL_Driver/Src/stm32f1xx_hal_can.c **** /**
 831:Drivers/STM32F1xx_HAL_Driver/Src/stm32f1xx_hal_can.c ****   * @brief  Configures the CAN reception filter according to the specified
 832:Drivers/STM32F1xx_HAL_Driver/Src/stm32f1xx_hal_can.c ****   *         parameters in the CAN_FilterInitStruct.
 833:Drivers/STM32F1xx_HAL_Driver/Src/stm32f1xx_hal_can.c ****   * @param  hcan pointer to a CAN_HandleTypeDef structure that contains
 834:Drivers/STM32F1xx_HAL_Driver/Src/stm32f1xx_hal_can.c ****   *         the configuration information for the specified CAN.
 835:Drivers/STM32F1xx_HAL_Driver/Src/stm32f1xx_hal_can.c ****   * @param  sFilterConfig pointer to a CAN_FilterTypeDef structure that
 836:Drivers/STM32F1xx_HAL_Driver/Src/stm32f1xx_hal_can.c ****   *         contains the filter configuration information.
 837:Drivers/STM32F1xx_HAL_Driver/Src/stm32f1xx_hal_can.c ****   * @retval None
 838:Drivers/STM32F1xx_HAL_Driver/Src/stm32f1xx_hal_can.c ****   */
 839:Drivers/STM32F1xx_HAL_Driver/Src/stm32f1xx_hal_can.c **** HAL_StatusTypeDef HAL_CAN_ConfigFilter(CAN_HandleTypeDef *hcan, const CAN_FilterTypeDef *sFilterCon
 840:Drivers/STM32F1xx_HAL_Driver/Src/stm32f1xx_hal_can.c **** {
 366              		.loc 1 840 1 is_stmt 1 view -0
 367              		.cfi_startproc
 368              		@ args = 0, pretend = 0, frame = 0
 369              		@ frame_needed = 0, uses_anonymous_args = 0
 841:Drivers/STM32F1xx_HAL_Driver/Src/stm32f1xx_hal_can.c ****   uint32_t filternbrbitpos;
 370              		.loc 1 841 3 view .LVU105
 842:Drivers/STM32F1xx_HAL_Driver/Src/stm32f1xx_hal_can.c ****   CAN_TypeDef *can_ip = hcan->Instance;
 371              		.loc 1 842 3 view .LVU106
 372              		.loc 1 842 16 is_stmt 0 view .LVU107
 373 0000 0268     		ldr	r2, [r0]
 374              	.LVL16:
 843:Drivers/STM32F1xx_HAL_Driver/Src/stm32f1xx_hal_can.c ****   HAL_CAN_StateTypeDef state = hcan->State;
 375              		.loc 1 843 3 is_stmt 1 view .LVU108
 376              		.loc 1 843 24 is_stmt 0 view .LVU109
 377 0002 90F82030 		ldrb	r3, [r0, #32]	@ zero_extendqisi2
ARM GAS  C:\Users\Rick\AppData\Local\Temp\ccbuSalp.s 			page 24


 378              	.LVL17:
 844:Drivers/STM32F1xx_HAL_Driver/Src/stm32f1xx_hal_can.c **** 
 845:Drivers/STM32F1xx_HAL_Driver/Src/stm32f1xx_hal_can.c ****   if ((state == HAL_CAN_STATE_READY) ||
 379              		.loc 1 845 3 is_stmt 1 view .LVU110
 380              		.loc 1 845 38 is_stmt 0 view .LVU111
 381 0006 013B     		subs	r3, r3, #1
 382              	.LVL18:
 383              		.loc 1 845 38 view .LVU112
 384 0008 DBB2     		uxtb	r3, r3
 385              		.loc 1 845 6 view .LVU113
 386 000a 012B     		cmp	r3, #1
 387 000c 05D9     		bls	.L50
 846:Drivers/STM32F1xx_HAL_Driver/Src/stm32f1xx_hal_can.c ****       (state == HAL_CAN_STATE_LISTENING))
 847:Drivers/STM32F1xx_HAL_Driver/Src/stm32f1xx_hal_can.c ****   {
 848:Drivers/STM32F1xx_HAL_Driver/Src/stm32f1xx_hal_can.c ****     /* Check the parameters */
 849:Drivers/STM32F1xx_HAL_Driver/Src/stm32f1xx_hal_can.c ****     assert_param(IS_CAN_FILTER_ID_HALFWORD(sFilterConfig->FilterIdHigh));
 850:Drivers/STM32F1xx_HAL_Driver/Src/stm32f1xx_hal_can.c ****     assert_param(IS_CAN_FILTER_ID_HALFWORD(sFilterConfig->FilterIdLow));
 851:Drivers/STM32F1xx_HAL_Driver/Src/stm32f1xx_hal_can.c ****     assert_param(IS_CAN_FILTER_ID_HALFWORD(sFilterConfig->FilterMaskIdHigh));
 852:Drivers/STM32F1xx_HAL_Driver/Src/stm32f1xx_hal_can.c ****     assert_param(IS_CAN_FILTER_ID_HALFWORD(sFilterConfig->FilterMaskIdLow));
 853:Drivers/STM32F1xx_HAL_Driver/Src/stm32f1xx_hal_can.c ****     assert_param(IS_CAN_FILTER_MODE(sFilterConfig->FilterMode));
 854:Drivers/STM32F1xx_HAL_Driver/Src/stm32f1xx_hal_can.c ****     assert_param(IS_CAN_FILTER_SCALE(sFilterConfig->FilterScale));
 855:Drivers/STM32F1xx_HAL_Driver/Src/stm32f1xx_hal_can.c ****     assert_param(IS_CAN_FILTER_FIFO(sFilterConfig->FilterFIFOAssignment));
 856:Drivers/STM32F1xx_HAL_Driver/Src/stm32f1xx_hal_can.c ****     assert_param(IS_CAN_FILTER_ACTIVATION(sFilterConfig->FilterActivation));
 857:Drivers/STM32F1xx_HAL_Driver/Src/stm32f1xx_hal_can.c **** 
 858:Drivers/STM32F1xx_HAL_Driver/Src/stm32f1xx_hal_can.c **** #if   defined(CAN2)
 859:Drivers/STM32F1xx_HAL_Driver/Src/stm32f1xx_hal_can.c ****     /* CAN1 and CAN2 are dual instances with 28 common filters banks */
 860:Drivers/STM32F1xx_HAL_Driver/Src/stm32f1xx_hal_can.c ****     /* Select master instance to access the filter banks */
 861:Drivers/STM32F1xx_HAL_Driver/Src/stm32f1xx_hal_can.c ****     can_ip = CAN1;
 862:Drivers/STM32F1xx_HAL_Driver/Src/stm32f1xx_hal_can.c **** 
 863:Drivers/STM32F1xx_HAL_Driver/Src/stm32f1xx_hal_can.c ****     /* Check the parameters */
 864:Drivers/STM32F1xx_HAL_Driver/Src/stm32f1xx_hal_can.c ****     assert_param(IS_CAN_FILTER_BANK_DUAL(sFilterConfig->FilterBank));
 865:Drivers/STM32F1xx_HAL_Driver/Src/stm32f1xx_hal_can.c ****     assert_param(IS_CAN_FILTER_BANK_DUAL(sFilterConfig->SlaveStartFilterBank));
 866:Drivers/STM32F1xx_HAL_Driver/Src/stm32f1xx_hal_can.c **** #else
 867:Drivers/STM32F1xx_HAL_Driver/Src/stm32f1xx_hal_can.c ****     /* CAN1 is single instance with 14 dedicated filters banks */
 868:Drivers/STM32F1xx_HAL_Driver/Src/stm32f1xx_hal_can.c **** 
 869:Drivers/STM32F1xx_HAL_Driver/Src/stm32f1xx_hal_can.c ****     /* Check the parameters */
 870:Drivers/STM32F1xx_HAL_Driver/Src/stm32f1xx_hal_can.c ****     assert_param(IS_CAN_FILTER_BANK_SINGLE(sFilterConfig->FilterBank));
 871:Drivers/STM32F1xx_HAL_Driver/Src/stm32f1xx_hal_can.c **** #endif
 872:Drivers/STM32F1xx_HAL_Driver/Src/stm32f1xx_hal_can.c **** 
 873:Drivers/STM32F1xx_HAL_Driver/Src/stm32f1xx_hal_can.c ****     /* Initialisation mode for the filter */
 874:Drivers/STM32F1xx_HAL_Driver/Src/stm32f1xx_hal_can.c ****     SET_BIT(can_ip->FMR, CAN_FMR_FINIT);
 875:Drivers/STM32F1xx_HAL_Driver/Src/stm32f1xx_hal_can.c **** 
 876:Drivers/STM32F1xx_HAL_Driver/Src/stm32f1xx_hal_can.c **** #if   defined(CAN2)
 877:Drivers/STM32F1xx_HAL_Driver/Src/stm32f1xx_hal_can.c ****     /* Select the start filter number of CAN2 slave instance */
 878:Drivers/STM32F1xx_HAL_Driver/Src/stm32f1xx_hal_can.c ****     CLEAR_BIT(can_ip->FMR, CAN_FMR_CAN2SB);
 879:Drivers/STM32F1xx_HAL_Driver/Src/stm32f1xx_hal_can.c ****     SET_BIT(can_ip->FMR, sFilterConfig->SlaveStartFilterBank << CAN_FMR_CAN2SB_Pos);
 880:Drivers/STM32F1xx_HAL_Driver/Src/stm32f1xx_hal_can.c **** 
 881:Drivers/STM32F1xx_HAL_Driver/Src/stm32f1xx_hal_can.c **** #endif
 882:Drivers/STM32F1xx_HAL_Driver/Src/stm32f1xx_hal_can.c ****     /* Convert filter number into bit position */
 883:Drivers/STM32F1xx_HAL_Driver/Src/stm32f1xx_hal_can.c ****     filternbrbitpos = (uint32_t)1 << (sFilterConfig->FilterBank & 0x1FU);
 884:Drivers/STM32F1xx_HAL_Driver/Src/stm32f1xx_hal_can.c **** 
 885:Drivers/STM32F1xx_HAL_Driver/Src/stm32f1xx_hal_can.c ****     /* Filter Deactivation */
 886:Drivers/STM32F1xx_HAL_Driver/Src/stm32f1xx_hal_can.c ****     CLEAR_BIT(can_ip->FA1R, filternbrbitpos);
 887:Drivers/STM32F1xx_HAL_Driver/Src/stm32f1xx_hal_can.c **** 
 888:Drivers/STM32F1xx_HAL_Driver/Src/stm32f1xx_hal_can.c ****     /* Filter Scale */
 889:Drivers/STM32F1xx_HAL_Driver/Src/stm32f1xx_hal_can.c ****     if (sFilterConfig->FilterScale == CAN_FILTERSCALE_16BIT)
 890:Drivers/STM32F1xx_HAL_Driver/Src/stm32f1xx_hal_can.c ****     {
ARM GAS  C:\Users\Rick\AppData\Local\Temp\ccbuSalp.s 			page 25


 891:Drivers/STM32F1xx_HAL_Driver/Src/stm32f1xx_hal_can.c ****       /* 16-bit scale for the filter */
 892:Drivers/STM32F1xx_HAL_Driver/Src/stm32f1xx_hal_can.c ****       CLEAR_BIT(can_ip->FS1R, filternbrbitpos);
 893:Drivers/STM32F1xx_HAL_Driver/Src/stm32f1xx_hal_can.c **** 
 894:Drivers/STM32F1xx_HAL_Driver/Src/stm32f1xx_hal_can.c ****       /* First 16-bit identifier and First 16-bit mask */
 895:Drivers/STM32F1xx_HAL_Driver/Src/stm32f1xx_hal_can.c ****       /* Or First 16-bit identifier and Second 16-bit identifier */
 896:Drivers/STM32F1xx_HAL_Driver/Src/stm32f1xx_hal_can.c ****       can_ip->sFilterRegister[sFilterConfig->FilterBank].FR1 =
 897:Drivers/STM32F1xx_HAL_Driver/Src/stm32f1xx_hal_can.c ****         ((0x0000FFFFU & (uint32_t)sFilterConfig->FilterMaskIdLow) << 16U) |
 898:Drivers/STM32F1xx_HAL_Driver/Src/stm32f1xx_hal_can.c ****         (0x0000FFFFU & (uint32_t)sFilterConfig->FilterIdLow);
 899:Drivers/STM32F1xx_HAL_Driver/Src/stm32f1xx_hal_can.c **** 
 900:Drivers/STM32F1xx_HAL_Driver/Src/stm32f1xx_hal_can.c ****       /* Second 16-bit identifier and Second 16-bit mask */
 901:Drivers/STM32F1xx_HAL_Driver/Src/stm32f1xx_hal_can.c ****       /* Or Third 16-bit identifier and Fourth 16-bit identifier */
 902:Drivers/STM32F1xx_HAL_Driver/Src/stm32f1xx_hal_can.c ****       can_ip->sFilterRegister[sFilterConfig->FilterBank].FR2 =
 903:Drivers/STM32F1xx_HAL_Driver/Src/stm32f1xx_hal_can.c ****         ((0x0000FFFFU & (uint32_t)sFilterConfig->FilterMaskIdHigh) << 16U) |
 904:Drivers/STM32F1xx_HAL_Driver/Src/stm32f1xx_hal_can.c ****         (0x0000FFFFU & (uint32_t)sFilterConfig->FilterIdHigh);
 905:Drivers/STM32F1xx_HAL_Driver/Src/stm32f1xx_hal_can.c ****     }
 906:Drivers/STM32F1xx_HAL_Driver/Src/stm32f1xx_hal_can.c **** 
 907:Drivers/STM32F1xx_HAL_Driver/Src/stm32f1xx_hal_can.c ****     if (sFilterConfig->FilterScale == CAN_FILTERSCALE_32BIT)
 908:Drivers/STM32F1xx_HAL_Driver/Src/stm32f1xx_hal_can.c ****     {
 909:Drivers/STM32F1xx_HAL_Driver/Src/stm32f1xx_hal_can.c ****       /* 32-bit scale for the filter */
 910:Drivers/STM32F1xx_HAL_Driver/Src/stm32f1xx_hal_can.c ****       SET_BIT(can_ip->FS1R, filternbrbitpos);
 911:Drivers/STM32F1xx_HAL_Driver/Src/stm32f1xx_hal_can.c **** 
 912:Drivers/STM32F1xx_HAL_Driver/Src/stm32f1xx_hal_can.c ****       /* 32-bit identifier or First 32-bit identifier */
 913:Drivers/STM32F1xx_HAL_Driver/Src/stm32f1xx_hal_can.c ****       can_ip->sFilterRegister[sFilterConfig->FilterBank].FR1 =
 914:Drivers/STM32F1xx_HAL_Driver/Src/stm32f1xx_hal_can.c ****         ((0x0000FFFFU & (uint32_t)sFilterConfig->FilterIdHigh) << 16U) |
 915:Drivers/STM32F1xx_HAL_Driver/Src/stm32f1xx_hal_can.c ****         (0x0000FFFFU & (uint32_t)sFilterConfig->FilterIdLow);
 916:Drivers/STM32F1xx_HAL_Driver/Src/stm32f1xx_hal_can.c **** 
 917:Drivers/STM32F1xx_HAL_Driver/Src/stm32f1xx_hal_can.c ****       /* 32-bit mask or Second 32-bit identifier */
 918:Drivers/STM32F1xx_HAL_Driver/Src/stm32f1xx_hal_can.c ****       can_ip->sFilterRegister[sFilterConfig->FilterBank].FR2 =
 919:Drivers/STM32F1xx_HAL_Driver/Src/stm32f1xx_hal_can.c ****         ((0x0000FFFFU & (uint32_t)sFilterConfig->FilterMaskIdHigh) << 16U) |
 920:Drivers/STM32F1xx_HAL_Driver/Src/stm32f1xx_hal_can.c ****         (0x0000FFFFU & (uint32_t)sFilterConfig->FilterMaskIdLow);
 921:Drivers/STM32F1xx_HAL_Driver/Src/stm32f1xx_hal_can.c ****     }
 922:Drivers/STM32F1xx_HAL_Driver/Src/stm32f1xx_hal_can.c **** 
 923:Drivers/STM32F1xx_HAL_Driver/Src/stm32f1xx_hal_can.c ****     /* Filter Mode */
 924:Drivers/STM32F1xx_HAL_Driver/Src/stm32f1xx_hal_can.c ****     if (sFilterConfig->FilterMode == CAN_FILTERMODE_IDMASK)
 925:Drivers/STM32F1xx_HAL_Driver/Src/stm32f1xx_hal_can.c ****     {
 926:Drivers/STM32F1xx_HAL_Driver/Src/stm32f1xx_hal_can.c ****       /* Id/Mask mode for the filter*/
 927:Drivers/STM32F1xx_HAL_Driver/Src/stm32f1xx_hal_can.c ****       CLEAR_BIT(can_ip->FM1R, filternbrbitpos);
 928:Drivers/STM32F1xx_HAL_Driver/Src/stm32f1xx_hal_can.c ****     }
 929:Drivers/STM32F1xx_HAL_Driver/Src/stm32f1xx_hal_can.c ****     else /* CAN_FilterInitStruct->CAN_FilterMode == CAN_FilterMode_IdList */
 930:Drivers/STM32F1xx_HAL_Driver/Src/stm32f1xx_hal_can.c ****     {
 931:Drivers/STM32F1xx_HAL_Driver/Src/stm32f1xx_hal_can.c ****       /* Identifier list mode for the filter*/
 932:Drivers/STM32F1xx_HAL_Driver/Src/stm32f1xx_hal_can.c ****       SET_BIT(can_ip->FM1R, filternbrbitpos);
 933:Drivers/STM32F1xx_HAL_Driver/Src/stm32f1xx_hal_can.c ****     }
 934:Drivers/STM32F1xx_HAL_Driver/Src/stm32f1xx_hal_can.c **** 
 935:Drivers/STM32F1xx_HAL_Driver/Src/stm32f1xx_hal_can.c ****     /* Filter FIFO assignment */
 936:Drivers/STM32F1xx_HAL_Driver/Src/stm32f1xx_hal_can.c ****     if (sFilterConfig->FilterFIFOAssignment == CAN_FILTER_FIFO0)
 937:Drivers/STM32F1xx_HAL_Driver/Src/stm32f1xx_hal_can.c ****     {
 938:Drivers/STM32F1xx_HAL_Driver/Src/stm32f1xx_hal_can.c ****       /* FIFO 0 assignation for the filter */
 939:Drivers/STM32F1xx_HAL_Driver/Src/stm32f1xx_hal_can.c ****       CLEAR_BIT(can_ip->FFA1R, filternbrbitpos);
 940:Drivers/STM32F1xx_HAL_Driver/Src/stm32f1xx_hal_can.c ****     }
 941:Drivers/STM32F1xx_HAL_Driver/Src/stm32f1xx_hal_can.c ****     else
 942:Drivers/STM32F1xx_HAL_Driver/Src/stm32f1xx_hal_can.c ****     {
 943:Drivers/STM32F1xx_HAL_Driver/Src/stm32f1xx_hal_can.c ****       /* FIFO 1 assignation for the filter */
 944:Drivers/STM32F1xx_HAL_Driver/Src/stm32f1xx_hal_can.c ****       SET_BIT(can_ip->FFA1R, filternbrbitpos);
 945:Drivers/STM32F1xx_HAL_Driver/Src/stm32f1xx_hal_can.c ****     }
 946:Drivers/STM32F1xx_HAL_Driver/Src/stm32f1xx_hal_can.c **** 
 947:Drivers/STM32F1xx_HAL_Driver/Src/stm32f1xx_hal_can.c ****     /* Filter activation */
ARM GAS  C:\Users\Rick\AppData\Local\Temp\ccbuSalp.s 			page 26


 948:Drivers/STM32F1xx_HAL_Driver/Src/stm32f1xx_hal_can.c ****     if (sFilterConfig->FilterActivation == CAN_FILTER_ENABLE)
 949:Drivers/STM32F1xx_HAL_Driver/Src/stm32f1xx_hal_can.c ****     {
 950:Drivers/STM32F1xx_HAL_Driver/Src/stm32f1xx_hal_can.c ****       SET_BIT(can_ip->FA1R, filternbrbitpos);
 951:Drivers/STM32F1xx_HAL_Driver/Src/stm32f1xx_hal_can.c ****     }
 952:Drivers/STM32F1xx_HAL_Driver/Src/stm32f1xx_hal_can.c **** 
 953:Drivers/STM32F1xx_HAL_Driver/Src/stm32f1xx_hal_can.c ****     /* Leave the initialisation mode for the filter */
 954:Drivers/STM32F1xx_HAL_Driver/Src/stm32f1xx_hal_can.c ****     CLEAR_BIT(can_ip->FMR, CAN_FMR_FINIT);
 955:Drivers/STM32F1xx_HAL_Driver/Src/stm32f1xx_hal_can.c **** 
 956:Drivers/STM32F1xx_HAL_Driver/Src/stm32f1xx_hal_can.c ****     /* Return function status */
 957:Drivers/STM32F1xx_HAL_Driver/Src/stm32f1xx_hal_can.c ****     return HAL_OK;
 958:Drivers/STM32F1xx_HAL_Driver/Src/stm32f1xx_hal_can.c ****   }
 959:Drivers/STM32F1xx_HAL_Driver/Src/stm32f1xx_hal_can.c ****   else
 960:Drivers/STM32F1xx_HAL_Driver/Src/stm32f1xx_hal_can.c ****   {
 961:Drivers/STM32F1xx_HAL_Driver/Src/stm32f1xx_hal_can.c ****     /* Update error code */
 962:Drivers/STM32F1xx_HAL_Driver/Src/stm32f1xx_hal_can.c ****     hcan->ErrorCode |= HAL_CAN_ERROR_NOT_INITIALIZED;
 388              		.loc 1 962 5 is_stmt 1 view .LVU114
 389              		.loc 1 962 21 is_stmt 0 view .LVU115
 390 000e 436A     		ldr	r3, [r0, #36]
 391 0010 43F48023 		orr	r3, r3, #262144
 392 0014 4362     		str	r3, [r0, #36]
 963:Drivers/STM32F1xx_HAL_Driver/Src/stm32f1xx_hal_can.c **** 
 964:Drivers/STM32F1xx_HAL_Driver/Src/stm32f1xx_hal_can.c ****     return HAL_ERROR;
 393              		.loc 1 964 5 is_stmt 1 view .LVU116
 394              		.loc 1 964 12 is_stmt 0 view .LVU117
 395 0016 0120     		movs	r0, #1
 396              	.LVL19:
 965:Drivers/STM32F1xx_HAL_Driver/Src/stm32f1xx_hal_can.c ****   }
 966:Drivers/STM32F1xx_HAL_Driver/Src/stm32f1xx_hal_can.c **** }
 397              		.loc 1 966 1 view .LVU118
 398 0018 7047     		bx	lr
 399              	.LVL20:
 400              	.L50:
 840:Drivers/STM32F1xx_HAL_Driver/Src/stm32f1xx_hal_can.c ****   uint32_t filternbrbitpos;
 401              		.loc 1 840 1 view .LVU119
 402 001a 10B5     		push	{r4, lr}
 403              	.LCFI2:
 404              		.cfi_def_cfa_offset 8
 405              		.cfi_offset 4, -8
 406              		.cfi_offset 14, -4
 849:Drivers/STM32F1xx_HAL_Driver/Src/stm32f1xx_hal_can.c ****     assert_param(IS_CAN_FILTER_ID_HALFWORD(sFilterConfig->FilterIdLow));
 407              		.loc 1 849 5 is_stmt 1 view .LVU120
 850:Drivers/STM32F1xx_HAL_Driver/Src/stm32f1xx_hal_can.c ****     assert_param(IS_CAN_FILTER_ID_HALFWORD(sFilterConfig->FilterMaskIdHigh));
 408              		.loc 1 850 5 view .LVU121
 851:Drivers/STM32F1xx_HAL_Driver/Src/stm32f1xx_hal_can.c ****     assert_param(IS_CAN_FILTER_ID_HALFWORD(sFilterConfig->FilterMaskIdLow));
 409              		.loc 1 851 5 view .LVU122
 852:Drivers/STM32F1xx_HAL_Driver/Src/stm32f1xx_hal_can.c ****     assert_param(IS_CAN_FILTER_MODE(sFilterConfig->FilterMode));
 410              		.loc 1 852 5 view .LVU123
 853:Drivers/STM32F1xx_HAL_Driver/Src/stm32f1xx_hal_can.c ****     assert_param(IS_CAN_FILTER_SCALE(sFilterConfig->FilterScale));
 411              		.loc 1 853 5 view .LVU124
 854:Drivers/STM32F1xx_HAL_Driver/Src/stm32f1xx_hal_can.c ****     assert_param(IS_CAN_FILTER_FIFO(sFilterConfig->FilterFIFOAssignment));
 412              		.loc 1 854 5 view .LVU125
 855:Drivers/STM32F1xx_HAL_Driver/Src/stm32f1xx_hal_can.c ****     assert_param(IS_CAN_FILTER_ACTIVATION(sFilterConfig->FilterActivation));
 413              		.loc 1 855 5 view .LVU126
 856:Drivers/STM32F1xx_HAL_Driver/Src/stm32f1xx_hal_can.c **** 
 414              		.loc 1 856 5 view .LVU127
 870:Drivers/STM32F1xx_HAL_Driver/Src/stm32f1xx_hal_can.c **** #endif
 415              		.loc 1 870 5 view .LVU128
ARM GAS  C:\Users\Rick\AppData\Local\Temp\ccbuSalp.s 			page 27


 874:Drivers/STM32F1xx_HAL_Driver/Src/stm32f1xx_hal_can.c **** 
 416              		.loc 1 874 5 view .LVU129
 417 001c D2F80032 		ldr	r3, [r2, #512]
 418 0020 43F00103 		orr	r3, r3, #1
 419 0024 C2F80032 		str	r3, [r2, #512]
 883:Drivers/STM32F1xx_HAL_Driver/Src/stm32f1xx_hal_can.c **** 
 420              		.loc 1 883 5 view .LVU130
 883:Drivers/STM32F1xx_HAL_Driver/Src/stm32f1xx_hal_can.c **** 
 421              		.loc 1 883 52 is_stmt 0 view .LVU131
 422 0028 4B69     		ldr	r3, [r1, #20]
 883:Drivers/STM32F1xx_HAL_Driver/Src/stm32f1xx_hal_can.c **** 
 423              		.loc 1 883 65 view .LVU132
 424 002a 03F01F03 		and	r3, r3, #31
 883:Drivers/STM32F1xx_HAL_Driver/Src/stm32f1xx_hal_can.c **** 
 425              		.loc 1 883 21 view .LVU133
 426 002e 0120     		movs	r0, #1
 427              	.LVL21:
 883:Drivers/STM32F1xx_HAL_Driver/Src/stm32f1xx_hal_can.c **** 
 428              		.loc 1 883 21 view .LVU134
 429 0030 00FA03F3 		lsl	r3, r0, r3
 430              	.LVL22:
 886:Drivers/STM32F1xx_HAL_Driver/Src/stm32f1xx_hal_can.c **** 
 431              		.loc 1 886 5 is_stmt 1 view .LVU135
 432 0034 D2F81C02 		ldr	r0, [r2, #540]
 433 0038 6FEA030C 		mvn	ip, r3
 434 003c 20EA0300 		bic	r0, r0, r3
 435 0040 C2F81C02 		str	r0, [r2, #540]
 889:Drivers/STM32F1xx_HAL_Driver/Src/stm32f1xx_hal_can.c ****     {
 436              		.loc 1 889 5 view .LVU136
 889:Drivers/STM32F1xx_HAL_Driver/Src/stm32f1xx_hal_can.c ****     {
 437              		.loc 1 889 22 is_stmt 0 view .LVU137
 438 0044 C869     		ldr	r0, [r1, #28]
 889:Drivers/STM32F1xx_HAL_Driver/Src/stm32f1xx_hal_can.c ****     {
 439              		.loc 1 889 8 view .LVU138
 440 0046 C0B9     		cbnz	r0, .L38
 892:Drivers/STM32F1xx_HAL_Driver/Src/stm32f1xx_hal_can.c **** 
 441              		.loc 1 892 7 is_stmt 1 view .LVU139
 442 0048 D2F80C02 		ldr	r0, [r2, #524]
 443 004c 0CEA0000 		and	r0, ip, r0
 444 0050 C2F80C02 		str	r0, [r2, #524]
 896:Drivers/STM32F1xx_HAL_Driver/Src/stm32f1xx_hal_can.c ****         ((0x0000FFFFU & (uint32_t)sFilterConfig->FilterMaskIdLow) << 16U) |
 445              		.loc 1 896 7 view .LVU140
 898:Drivers/STM32F1xx_HAL_Driver/Src/stm32f1xx_hal_can.c **** 
 446              		.loc 1 898 22 is_stmt 0 view .LVU141
 447 0054 8C88     		ldrh	r4, [r1, #4]
 896:Drivers/STM32F1xx_HAL_Driver/Src/stm32f1xx_hal_can.c ****         ((0x0000FFFFU & (uint32_t)sFilterConfig->FilterMaskIdLow) << 16U) |
 448              		.loc 1 896 44 view .LVU142
 449 0056 4869     		ldr	r0, [r1, #20]
 897:Drivers/STM32F1xx_HAL_Driver/Src/stm32f1xx_hal_can.c ****         (0x0000FFFFU & (uint32_t)sFilterConfig->FilterIdLow);
 450              		.loc 1 897 75 view .LVU143
 451 0058 D1F80CE0 		ldr	lr, [r1, #12]
 452 005c 44EA0E44 		orr	r4, r4, lr, lsl #16
 896:Drivers/STM32F1xx_HAL_Driver/Src/stm32f1xx_hal_can.c ****         ((0x0000FFFFU & (uint32_t)sFilterConfig->FilterMaskIdLow) << 16U) |
 453              		.loc 1 896 62 view .LVU144
 454 0060 4830     		adds	r0, r0, #72
 455 0062 42F83040 		str	r4, [r2, r0, lsl #3]
 902:Drivers/STM32F1xx_HAL_Driver/Src/stm32f1xx_hal_can.c ****         ((0x0000FFFFU & (uint32_t)sFilterConfig->FilterMaskIdHigh) << 16U) |
ARM GAS  C:\Users\Rick\AppData\Local\Temp\ccbuSalp.s 			page 28


 456              		.loc 1 902 7 is_stmt 1 view .LVU145
 904:Drivers/STM32F1xx_HAL_Driver/Src/stm32f1xx_hal_can.c ****     }
 457              		.loc 1 904 22 is_stmt 0 view .LVU146
 458 0066 0C88     		ldrh	r4, [r1]
 902:Drivers/STM32F1xx_HAL_Driver/Src/stm32f1xx_hal_can.c ****         ((0x0000FFFFU & (uint32_t)sFilterConfig->FilterMaskIdHigh) << 16U) |
 459              		.loc 1 902 44 view .LVU147
 460 0068 4869     		ldr	r0, [r1, #20]
 903:Drivers/STM32F1xx_HAL_Driver/Src/stm32f1xx_hal_can.c ****         (0x0000FFFFU & (uint32_t)sFilterConfig->FilterIdHigh);
 461              		.loc 1 903 76 view .LVU148
 462 006a D1F808E0 		ldr	lr, [r1, #8]
 463 006e 44EA0E44 		orr	r4, r4, lr, lsl #16
 902:Drivers/STM32F1xx_HAL_Driver/Src/stm32f1xx_hal_can.c ****         ((0x0000FFFFU & (uint32_t)sFilterConfig->FilterMaskIdHigh) << 16U) |
 464              		.loc 1 902 62 view .LVU149
 465 0072 4830     		adds	r0, r0, #72
 466 0074 02EBC000 		add	r0, r2, r0, lsl #3
 467 0078 4460     		str	r4, [r0, #4]
 468              	.L38:
 907:Drivers/STM32F1xx_HAL_Driver/Src/stm32f1xx_hal_can.c ****     {
 469              		.loc 1 907 5 is_stmt 1 view .LVU150
 907:Drivers/STM32F1xx_HAL_Driver/Src/stm32f1xx_hal_can.c ****     {
 470              		.loc 1 907 22 is_stmt 0 view .LVU151
 471 007a C869     		ldr	r0, [r1, #28]
 907:Drivers/STM32F1xx_HAL_Driver/Src/stm32f1xx_hal_can.c ****     {
 472              		.loc 1 907 8 view .LVU152
 473 007c 0128     		cmp	r0, #1
 474 007e 1AD0     		beq	.L51
 475              	.L39:
 924:Drivers/STM32F1xx_HAL_Driver/Src/stm32f1xx_hal_can.c ****     {
 476              		.loc 1 924 5 is_stmt 1 view .LVU153
 924:Drivers/STM32F1xx_HAL_Driver/Src/stm32f1xx_hal_can.c ****     {
 477              		.loc 1 924 22 is_stmt 0 view .LVU154
 478 0080 8869     		ldr	r0, [r1, #24]
 924:Drivers/STM32F1xx_HAL_Driver/Src/stm32f1xx_hal_can.c ****     {
 479              		.loc 1 924 8 view .LVU155
 480 0082 88BB     		cbnz	r0, .L40
 927:Drivers/STM32F1xx_HAL_Driver/Src/stm32f1xx_hal_can.c ****     }
 481              		.loc 1 927 7 is_stmt 1 view .LVU156
 482 0084 D2F80402 		ldr	r0, [r2, #516]
 483 0088 0CEA0000 		and	r0, ip, r0
 484 008c C2F80402 		str	r0, [r2, #516]
 485              	.L41:
 936:Drivers/STM32F1xx_HAL_Driver/Src/stm32f1xx_hal_can.c ****     {
 486              		.loc 1 936 5 view .LVU157
 936:Drivers/STM32F1xx_HAL_Driver/Src/stm32f1xx_hal_can.c ****     {
 487              		.loc 1 936 22 is_stmt 0 view .LVU158
 488 0090 0869     		ldr	r0, [r1, #16]
 936:Drivers/STM32F1xx_HAL_Driver/Src/stm32f1xx_hal_can.c ****     {
 489              		.loc 1 936 8 view .LVU159
 490 0092 78BB     		cbnz	r0, .L42
 939:Drivers/STM32F1xx_HAL_Driver/Src/stm32f1xx_hal_can.c ****     }
 491              		.loc 1 939 7 is_stmt 1 view .LVU160
 492 0094 D2F81402 		ldr	r0, [r2, #532]
 493 0098 0CEA0000 		and	r0, ip, r0
 494 009c C2F81402 		str	r0, [r2, #532]
 495              	.L43:
 948:Drivers/STM32F1xx_HAL_Driver/Src/stm32f1xx_hal_can.c ****     {
 496              		.loc 1 948 5 view .LVU161
ARM GAS  C:\Users\Rick\AppData\Local\Temp\ccbuSalp.s 			page 29


 948:Drivers/STM32F1xx_HAL_Driver/Src/stm32f1xx_hal_can.c ****     {
 497              		.loc 1 948 22 is_stmt 0 view .LVU162
 498 00a0 096A     		ldr	r1, [r1, #32]
 499              	.LVL23:
 948:Drivers/STM32F1xx_HAL_Driver/Src/stm32f1xx_hal_can.c ****     {
 500              		.loc 1 948 8 view .LVU163
 501 00a2 0129     		cmp	r1, #1
 502 00a4 2CD0     		beq	.L52
 503              	.LVL24:
 504              	.L44:
 954:Drivers/STM32F1xx_HAL_Driver/Src/stm32f1xx_hal_can.c **** 
 505              		.loc 1 954 5 is_stmt 1 view .LVU164
 506 00a6 D2F80032 		ldr	r3, [r2, #512]
 507 00aa 23F00103 		bic	r3, r3, #1
 508 00ae C2F80032 		str	r3, [r2, #512]
 957:Drivers/STM32F1xx_HAL_Driver/Src/stm32f1xx_hal_can.c ****   }
 509              		.loc 1 957 5 view .LVU165
 957:Drivers/STM32F1xx_HAL_Driver/Src/stm32f1xx_hal_can.c ****   }
 510              		.loc 1 957 12 is_stmt 0 view .LVU166
 511 00b2 0020     		movs	r0, #0
 512              		.loc 1 966 1 view .LVU167
 513 00b4 10BD     		pop	{r4, pc}
 514              	.LVL25:
 515              	.L51:
 910:Drivers/STM32F1xx_HAL_Driver/Src/stm32f1xx_hal_can.c **** 
 516              		.loc 1 910 7 is_stmt 1 view .LVU168
 517 00b6 D2F80C02 		ldr	r0, [r2, #524]
 518 00ba 1843     		orrs	r0, r0, r3
 519 00bc C2F80C02 		str	r0, [r2, #524]
 913:Drivers/STM32F1xx_HAL_Driver/Src/stm32f1xx_hal_can.c ****         ((0x0000FFFFU & (uint32_t)sFilterConfig->FilterIdHigh) << 16U) |
 520              		.loc 1 913 7 view .LVU169
 915:Drivers/STM32F1xx_HAL_Driver/Src/stm32f1xx_hal_can.c **** 
 521              		.loc 1 915 22 is_stmt 0 view .LVU170
 522 00c0 8C88     		ldrh	r4, [r1, #4]
 913:Drivers/STM32F1xx_HAL_Driver/Src/stm32f1xx_hal_can.c ****         ((0x0000FFFFU & (uint32_t)sFilterConfig->FilterIdHigh) << 16U) |
 523              		.loc 1 913 44 view .LVU171
 524 00c2 4869     		ldr	r0, [r1, #20]
 914:Drivers/STM32F1xx_HAL_Driver/Src/stm32f1xx_hal_can.c ****         (0x0000FFFFU & (uint32_t)sFilterConfig->FilterIdLow);
 525              		.loc 1 914 72 view .LVU172
 526 00c4 D1F800E0 		ldr	lr, [r1]
 527 00c8 44EA0E44 		orr	r4, r4, lr, lsl #16
 913:Drivers/STM32F1xx_HAL_Driver/Src/stm32f1xx_hal_can.c ****         ((0x0000FFFFU & (uint32_t)sFilterConfig->FilterIdHigh) << 16U) |
 528              		.loc 1 913 62 view .LVU173
 529 00cc 4830     		adds	r0, r0, #72
 530 00ce 42F83040 		str	r4, [r2, r0, lsl #3]
 918:Drivers/STM32F1xx_HAL_Driver/Src/stm32f1xx_hal_can.c ****         ((0x0000FFFFU & (uint32_t)sFilterConfig->FilterMaskIdHigh) << 16U) |
 531              		.loc 1 918 7 is_stmt 1 view .LVU174
 920:Drivers/STM32F1xx_HAL_Driver/Src/stm32f1xx_hal_can.c ****     }
 532              		.loc 1 920 22 is_stmt 0 view .LVU175
 533 00d2 8C89     		ldrh	r4, [r1, #12]
 918:Drivers/STM32F1xx_HAL_Driver/Src/stm32f1xx_hal_can.c ****         ((0x0000FFFFU & (uint32_t)sFilterConfig->FilterMaskIdHigh) << 16U) |
 534              		.loc 1 918 44 view .LVU176
 535 00d4 4869     		ldr	r0, [r1, #20]
 919:Drivers/STM32F1xx_HAL_Driver/Src/stm32f1xx_hal_can.c ****         (0x0000FFFFU & (uint32_t)sFilterConfig->FilterMaskIdLow);
 536              		.loc 1 919 76 view .LVU177
 537 00d6 D1F808E0 		ldr	lr, [r1, #8]
 538 00da 44EA0E44 		orr	r4, r4, lr, lsl #16
ARM GAS  C:\Users\Rick\AppData\Local\Temp\ccbuSalp.s 			page 30


 918:Drivers/STM32F1xx_HAL_Driver/Src/stm32f1xx_hal_can.c ****         ((0x0000FFFFU & (uint32_t)sFilterConfig->FilterMaskIdHigh) << 16U) |
 539              		.loc 1 918 62 view .LVU178
 540 00de 4830     		adds	r0, r0, #72
 541 00e0 02EBC000 		add	r0, r2, r0, lsl #3
 542 00e4 4460     		str	r4, [r0, #4]
 543 00e6 CBE7     		b	.L39
 544              	.L40:
 932:Drivers/STM32F1xx_HAL_Driver/Src/stm32f1xx_hal_can.c ****     }
 545              		.loc 1 932 7 is_stmt 1 view .LVU179
 546 00e8 D2F80402 		ldr	r0, [r2, #516]
 547 00ec 1843     		orrs	r0, r0, r3
 548 00ee C2F80402 		str	r0, [r2, #516]
 549 00f2 CDE7     		b	.L41
 550              	.L42:
 944:Drivers/STM32F1xx_HAL_Driver/Src/stm32f1xx_hal_can.c ****     }
 551              		.loc 1 944 7 view .LVU180
 552 00f4 D2F81402 		ldr	r0, [r2, #532]
 553 00f8 1843     		orrs	r0, r0, r3
 554 00fa C2F81402 		str	r0, [r2, #532]
 555 00fe CFE7     		b	.L43
 556              	.LVL26:
 557              	.L52:
 950:Drivers/STM32F1xx_HAL_Driver/Src/stm32f1xx_hal_can.c ****     }
 558              		.loc 1 950 7 view .LVU181
 559 0100 D2F81C12 		ldr	r1, [r2, #540]
 560 0104 0B43     		orrs	r3, r3, r1
 561              	.LVL27:
 950:Drivers/STM32F1xx_HAL_Driver/Src/stm32f1xx_hal_can.c ****     }
 562              		.loc 1 950 7 is_stmt 0 view .LVU182
 563 0106 C2F81C32 		str	r3, [r2, #540]
 564 010a CCE7     		b	.L44
 565              		.cfi_endproc
 566              	.LFE69:
 568              		.section	.text.HAL_CAN_Start,"ax",%progbits
 569              		.align	1
 570              		.global	HAL_CAN_Start
 571              		.syntax unified
 572              		.thumb
 573              		.thumb_func
 575              	HAL_CAN_Start:
 576              	.LVL28:
 577              	.LFB70:
 967:Drivers/STM32F1xx_HAL_Driver/Src/stm32f1xx_hal_can.c **** 
 968:Drivers/STM32F1xx_HAL_Driver/Src/stm32f1xx_hal_can.c **** /**
 969:Drivers/STM32F1xx_HAL_Driver/Src/stm32f1xx_hal_can.c ****   * @}
 970:Drivers/STM32F1xx_HAL_Driver/Src/stm32f1xx_hal_can.c ****   */
 971:Drivers/STM32F1xx_HAL_Driver/Src/stm32f1xx_hal_can.c **** 
 972:Drivers/STM32F1xx_HAL_Driver/Src/stm32f1xx_hal_can.c **** /** @defgroup CAN_Exported_Functions_Group3 Control functions
 973:Drivers/STM32F1xx_HAL_Driver/Src/stm32f1xx_hal_can.c ****  *  @brief    Control functions
 974:Drivers/STM32F1xx_HAL_Driver/Src/stm32f1xx_hal_can.c ****  *
 975:Drivers/STM32F1xx_HAL_Driver/Src/stm32f1xx_hal_can.c **** @verbatim
 976:Drivers/STM32F1xx_HAL_Driver/Src/stm32f1xx_hal_can.c ****   ==============================================================================
 977:Drivers/STM32F1xx_HAL_Driver/Src/stm32f1xx_hal_can.c ****                       ##### Control functions #####
 978:Drivers/STM32F1xx_HAL_Driver/Src/stm32f1xx_hal_can.c ****   ==============================================================================
 979:Drivers/STM32F1xx_HAL_Driver/Src/stm32f1xx_hal_can.c ****     [..]  This section provides functions allowing to:
 980:Drivers/STM32F1xx_HAL_Driver/Src/stm32f1xx_hal_can.c ****       (+) HAL_CAN_Start                    : Start the CAN module
 981:Drivers/STM32F1xx_HAL_Driver/Src/stm32f1xx_hal_can.c ****       (+) HAL_CAN_Stop                     : Stop the CAN module
ARM GAS  C:\Users\Rick\AppData\Local\Temp\ccbuSalp.s 			page 31


 982:Drivers/STM32F1xx_HAL_Driver/Src/stm32f1xx_hal_can.c ****       (+) HAL_CAN_RequestSleep             : Request sleep mode entry.
 983:Drivers/STM32F1xx_HAL_Driver/Src/stm32f1xx_hal_can.c ****       (+) HAL_CAN_WakeUp                   : Wake up from sleep mode.
 984:Drivers/STM32F1xx_HAL_Driver/Src/stm32f1xx_hal_can.c ****       (+) HAL_CAN_IsSleepActive            : Check is sleep mode is active.
 985:Drivers/STM32F1xx_HAL_Driver/Src/stm32f1xx_hal_can.c ****       (+) HAL_CAN_AddTxMessage             : Add a message to the Tx mailboxes
 986:Drivers/STM32F1xx_HAL_Driver/Src/stm32f1xx_hal_can.c ****                                              and activate the corresponding
 987:Drivers/STM32F1xx_HAL_Driver/Src/stm32f1xx_hal_can.c ****                                              transmission request
 988:Drivers/STM32F1xx_HAL_Driver/Src/stm32f1xx_hal_can.c ****       (+) HAL_CAN_AbortTxRequest           : Abort transmission request
 989:Drivers/STM32F1xx_HAL_Driver/Src/stm32f1xx_hal_can.c ****       (+) HAL_CAN_GetTxMailboxesFreeLevel  : Return Tx mailboxes free level
 990:Drivers/STM32F1xx_HAL_Driver/Src/stm32f1xx_hal_can.c ****       (+) HAL_CAN_IsTxMessagePending       : Check if a transmission request is
 991:Drivers/STM32F1xx_HAL_Driver/Src/stm32f1xx_hal_can.c ****                                              pending on the selected Tx mailbox
 992:Drivers/STM32F1xx_HAL_Driver/Src/stm32f1xx_hal_can.c ****       (+) HAL_CAN_GetRxMessage             : Get a CAN frame from the Rx FIFO
 993:Drivers/STM32F1xx_HAL_Driver/Src/stm32f1xx_hal_can.c ****       (+) HAL_CAN_GetRxFifoFillLevel       : Return Rx FIFO fill level
 994:Drivers/STM32F1xx_HAL_Driver/Src/stm32f1xx_hal_can.c **** 
 995:Drivers/STM32F1xx_HAL_Driver/Src/stm32f1xx_hal_can.c **** @endverbatim
 996:Drivers/STM32F1xx_HAL_Driver/Src/stm32f1xx_hal_can.c ****   * @{
 997:Drivers/STM32F1xx_HAL_Driver/Src/stm32f1xx_hal_can.c ****   */
 998:Drivers/STM32F1xx_HAL_Driver/Src/stm32f1xx_hal_can.c **** 
 999:Drivers/STM32F1xx_HAL_Driver/Src/stm32f1xx_hal_can.c **** /**
1000:Drivers/STM32F1xx_HAL_Driver/Src/stm32f1xx_hal_can.c ****   * @brief  Start the CAN module.
1001:Drivers/STM32F1xx_HAL_Driver/Src/stm32f1xx_hal_can.c ****   * @param  hcan pointer to an CAN_HandleTypeDef structure that contains
1002:Drivers/STM32F1xx_HAL_Driver/Src/stm32f1xx_hal_can.c ****   *         the configuration information for the specified CAN.
1003:Drivers/STM32F1xx_HAL_Driver/Src/stm32f1xx_hal_can.c ****   * @retval HAL status
1004:Drivers/STM32F1xx_HAL_Driver/Src/stm32f1xx_hal_can.c ****   */
1005:Drivers/STM32F1xx_HAL_Driver/Src/stm32f1xx_hal_can.c **** HAL_StatusTypeDef HAL_CAN_Start(CAN_HandleTypeDef *hcan)
1006:Drivers/STM32F1xx_HAL_Driver/Src/stm32f1xx_hal_can.c **** {
 578              		.loc 1 1006 1 is_stmt 1 view -0
 579              		.cfi_startproc
 580              		@ args = 0, pretend = 0, frame = 0
 581              		@ frame_needed = 0, uses_anonymous_args = 0
 582              		.loc 1 1006 1 is_stmt 0 view .LVU184
 583 0000 70B5     		push	{r4, r5, r6, lr}
 584              	.LCFI3:
 585              		.cfi_def_cfa_offset 16
 586              		.cfi_offset 4, -16
 587              		.cfi_offset 5, -12
 588              		.cfi_offset 6, -8
 589              		.cfi_offset 14, -4
 590 0002 0446     		mov	r4, r0
1007:Drivers/STM32F1xx_HAL_Driver/Src/stm32f1xx_hal_can.c ****   uint32_t tickstart;
 591              		.loc 1 1007 3 is_stmt 1 view .LVU185
1008:Drivers/STM32F1xx_HAL_Driver/Src/stm32f1xx_hal_can.c **** 
1009:Drivers/STM32F1xx_HAL_Driver/Src/stm32f1xx_hal_can.c ****   if (hcan->State == HAL_CAN_STATE_READY)
 592              		.loc 1 1009 3 view .LVU186
 593              		.loc 1 1009 11 is_stmt 0 view .LVU187
 594 0004 90F82050 		ldrb	r5, [r0, #32]	@ zero_extendqisi2
 595 0008 EDB2     		uxtb	r5, r5
 596              		.loc 1 1009 6 view .LVU188
 597 000a 012D     		cmp	r5, #1
 598 000c 06D0     		beq	.L59
1010:Drivers/STM32F1xx_HAL_Driver/Src/stm32f1xx_hal_can.c ****   {
1011:Drivers/STM32F1xx_HAL_Driver/Src/stm32f1xx_hal_can.c ****     /* Change CAN peripheral state */
1012:Drivers/STM32F1xx_HAL_Driver/Src/stm32f1xx_hal_can.c ****     hcan->State = HAL_CAN_STATE_LISTENING;
1013:Drivers/STM32F1xx_HAL_Driver/Src/stm32f1xx_hal_can.c **** 
1014:Drivers/STM32F1xx_HAL_Driver/Src/stm32f1xx_hal_can.c ****     /* Request leave initialisation */
1015:Drivers/STM32F1xx_HAL_Driver/Src/stm32f1xx_hal_can.c ****     CLEAR_BIT(hcan->Instance->MCR, CAN_MCR_INRQ);
1016:Drivers/STM32F1xx_HAL_Driver/Src/stm32f1xx_hal_can.c **** 
1017:Drivers/STM32F1xx_HAL_Driver/Src/stm32f1xx_hal_can.c ****     /* Get tick */
ARM GAS  C:\Users\Rick\AppData\Local\Temp\ccbuSalp.s 			page 32


1018:Drivers/STM32F1xx_HAL_Driver/Src/stm32f1xx_hal_can.c ****     tickstart = HAL_GetTick();
1019:Drivers/STM32F1xx_HAL_Driver/Src/stm32f1xx_hal_can.c **** 
1020:Drivers/STM32F1xx_HAL_Driver/Src/stm32f1xx_hal_can.c ****     /* Wait the acknowledge */
1021:Drivers/STM32F1xx_HAL_Driver/Src/stm32f1xx_hal_can.c ****     while ((hcan->Instance->MSR & CAN_MSR_INAK) != 0U)
1022:Drivers/STM32F1xx_HAL_Driver/Src/stm32f1xx_hal_can.c ****     {
1023:Drivers/STM32F1xx_HAL_Driver/Src/stm32f1xx_hal_can.c ****       /* Check for the Timeout */
1024:Drivers/STM32F1xx_HAL_Driver/Src/stm32f1xx_hal_can.c ****       if ((HAL_GetTick() - tickstart) > CAN_TIMEOUT_VALUE)
1025:Drivers/STM32F1xx_HAL_Driver/Src/stm32f1xx_hal_can.c ****       {
1026:Drivers/STM32F1xx_HAL_Driver/Src/stm32f1xx_hal_can.c ****         /* Update error code */
1027:Drivers/STM32F1xx_HAL_Driver/Src/stm32f1xx_hal_can.c ****         hcan->ErrorCode |= HAL_CAN_ERROR_TIMEOUT;
1028:Drivers/STM32F1xx_HAL_Driver/Src/stm32f1xx_hal_can.c **** 
1029:Drivers/STM32F1xx_HAL_Driver/Src/stm32f1xx_hal_can.c ****         /* Change CAN state */
1030:Drivers/STM32F1xx_HAL_Driver/Src/stm32f1xx_hal_can.c ****         hcan->State = HAL_CAN_STATE_ERROR;
1031:Drivers/STM32F1xx_HAL_Driver/Src/stm32f1xx_hal_can.c **** 
1032:Drivers/STM32F1xx_HAL_Driver/Src/stm32f1xx_hal_can.c ****         return HAL_ERROR;
1033:Drivers/STM32F1xx_HAL_Driver/Src/stm32f1xx_hal_can.c ****       }
1034:Drivers/STM32F1xx_HAL_Driver/Src/stm32f1xx_hal_can.c ****     }
1035:Drivers/STM32F1xx_HAL_Driver/Src/stm32f1xx_hal_can.c **** 
1036:Drivers/STM32F1xx_HAL_Driver/Src/stm32f1xx_hal_can.c ****     /* Reset the CAN ErrorCode */
1037:Drivers/STM32F1xx_HAL_Driver/Src/stm32f1xx_hal_can.c ****     hcan->ErrorCode = HAL_CAN_ERROR_NONE;
1038:Drivers/STM32F1xx_HAL_Driver/Src/stm32f1xx_hal_can.c **** 
1039:Drivers/STM32F1xx_HAL_Driver/Src/stm32f1xx_hal_can.c ****     /* Return function status */
1040:Drivers/STM32F1xx_HAL_Driver/Src/stm32f1xx_hal_can.c ****     return HAL_OK;
1041:Drivers/STM32F1xx_HAL_Driver/Src/stm32f1xx_hal_can.c ****   }
1042:Drivers/STM32F1xx_HAL_Driver/Src/stm32f1xx_hal_can.c ****   else
1043:Drivers/STM32F1xx_HAL_Driver/Src/stm32f1xx_hal_can.c ****   {
1044:Drivers/STM32F1xx_HAL_Driver/Src/stm32f1xx_hal_can.c ****     /* Update error code */
1045:Drivers/STM32F1xx_HAL_Driver/Src/stm32f1xx_hal_can.c ****     hcan->ErrorCode |= HAL_CAN_ERROR_NOT_READY;
 599              		.loc 1 1045 5 is_stmt 1 view .LVU189
 600              		.loc 1 1045 21 is_stmt 0 view .LVU190
 601 000e 436A     		ldr	r3, [r0, #36]
 602 0010 43F40023 		orr	r3, r3, #524288
 603 0014 4362     		str	r3, [r0, #36]
1046:Drivers/STM32F1xx_HAL_Driver/Src/stm32f1xx_hal_can.c **** 
1047:Drivers/STM32F1xx_HAL_Driver/Src/stm32f1xx_hal_can.c ****     return HAL_ERROR;
 604              		.loc 1 1047 5 is_stmt 1 view .LVU191
 605              		.loc 1 1047 12 is_stmt 0 view .LVU192
 606 0016 0125     		movs	r5, #1
 607              	.LVL29:
 608              	.L56:
1048:Drivers/STM32F1xx_HAL_Driver/Src/stm32f1xx_hal_can.c ****   }
1049:Drivers/STM32F1xx_HAL_Driver/Src/stm32f1xx_hal_can.c **** }
 609              		.loc 1 1049 1 view .LVU193
 610 0018 2846     		mov	r0, r5
 611 001a 70BD     		pop	{r4, r5, r6, pc}
 612              	.LVL30:
 613              	.L59:
1012:Drivers/STM32F1xx_HAL_Driver/Src/stm32f1xx_hal_can.c **** 
 614              		.loc 1 1012 5 is_stmt 1 view .LVU194
1012:Drivers/STM32F1xx_HAL_Driver/Src/stm32f1xx_hal_can.c **** 
 615              		.loc 1 1012 17 is_stmt 0 view .LVU195
 616 001c 0223     		movs	r3, #2
 617 001e 80F82030 		strb	r3, [r0, #32]
1015:Drivers/STM32F1xx_HAL_Driver/Src/stm32f1xx_hal_can.c **** 
 618              		.loc 1 1015 5 is_stmt 1 view .LVU196
 619 0022 0268     		ldr	r2, [r0]
 620 0024 1368     		ldr	r3, [r2]
ARM GAS  C:\Users\Rick\AppData\Local\Temp\ccbuSalp.s 			page 33


 621 0026 23F00103 		bic	r3, r3, #1
 622 002a 1360     		str	r3, [r2]
1018:Drivers/STM32F1xx_HAL_Driver/Src/stm32f1xx_hal_can.c **** 
 623              		.loc 1 1018 5 view .LVU197
1018:Drivers/STM32F1xx_HAL_Driver/Src/stm32f1xx_hal_can.c **** 
 624              		.loc 1 1018 17 is_stmt 0 view .LVU198
 625 002c FFF7FEFF 		bl	HAL_GetTick
 626              	.LVL31:
1018:Drivers/STM32F1xx_HAL_Driver/Src/stm32f1xx_hal_can.c **** 
 627              		.loc 1 1018 17 view .LVU199
 628 0030 0646     		mov	r6, r0
 629              	.LVL32:
1021:Drivers/STM32F1xx_HAL_Driver/Src/stm32f1xx_hal_can.c ****     {
 630              		.loc 1 1021 5 is_stmt 1 view .LVU200
 631              	.L55:
1021:Drivers/STM32F1xx_HAL_Driver/Src/stm32f1xx_hal_can.c ****     {
 632              		.loc 1 1021 11 view .LVU201
1021:Drivers/STM32F1xx_HAL_Driver/Src/stm32f1xx_hal_can.c ****     {
 633              		.loc 1 1021 17 is_stmt 0 view .LVU202
 634 0032 2368     		ldr	r3, [r4]
1021:Drivers/STM32F1xx_HAL_Driver/Src/stm32f1xx_hal_can.c ****     {
 635              		.loc 1 1021 27 view .LVU203
 636 0034 5B68     		ldr	r3, [r3, #4]
1021:Drivers/STM32F1xx_HAL_Driver/Src/stm32f1xx_hal_can.c ****     {
 637              		.loc 1 1021 11 view .LVU204
 638 0036 13F0010F 		tst	r3, #1
 639 003a 0CD0     		beq	.L60
1024:Drivers/STM32F1xx_HAL_Driver/Src/stm32f1xx_hal_can.c ****       {
 640              		.loc 1 1024 7 is_stmt 1 view .LVU205
1024:Drivers/STM32F1xx_HAL_Driver/Src/stm32f1xx_hal_can.c ****       {
 641              		.loc 1 1024 12 is_stmt 0 view .LVU206
 642 003c FFF7FEFF 		bl	HAL_GetTick
 643              	.LVL33:
1024:Drivers/STM32F1xx_HAL_Driver/Src/stm32f1xx_hal_can.c ****       {
 644              		.loc 1 1024 26 view .LVU207
 645 0040 831B     		subs	r3, r0, r6
1024:Drivers/STM32F1xx_HAL_Driver/Src/stm32f1xx_hal_can.c ****       {
 646              		.loc 1 1024 10 view .LVU208
 647 0042 0A2B     		cmp	r3, #10
 648 0044 F5D9     		bls	.L55
1027:Drivers/STM32F1xx_HAL_Driver/Src/stm32f1xx_hal_can.c **** 
 649              		.loc 1 1027 9 is_stmt 1 view .LVU209
1027:Drivers/STM32F1xx_HAL_Driver/Src/stm32f1xx_hal_can.c **** 
 650              		.loc 1 1027 25 is_stmt 0 view .LVU210
 651 0046 636A     		ldr	r3, [r4, #36]
 652 0048 43F40033 		orr	r3, r3, #131072
 653 004c 6362     		str	r3, [r4, #36]
1030:Drivers/STM32F1xx_HAL_Driver/Src/stm32f1xx_hal_can.c **** 
 654              		.loc 1 1030 9 is_stmt 1 view .LVU211
1030:Drivers/STM32F1xx_HAL_Driver/Src/stm32f1xx_hal_can.c **** 
 655              		.loc 1 1030 21 is_stmt 0 view .LVU212
 656 004e 0523     		movs	r3, #5
 657 0050 84F82030 		strb	r3, [r4, #32]
1032:Drivers/STM32F1xx_HAL_Driver/Src/stm32f1xx_hal_can.c ****       }
 658              		.loc 1 1032 9 is_stmt 1 view .LVU213
1032:Drivers/STM32F1xx_HAL_Driver/Src/stm32f1xx_hal_can.c ****       }
 659              		.loc 1 1032 16 is_stmt 0 view .LVU214
ARM GAS  C:\Users\Rick\AppData\Local\Temp\ccbuSalp.s 			page 34


 660 0054 E0E7     		b	.L56
 661              	.L60:
1037:Drivers/STM32F1xx_HAL_Driver/Src/stm32f1xx_hal_can.c **** 
 662              		.loc 1 1037 5 is_stmt 1 view .LVU215
1037:Drivers/STM32F1xx_HAL_Driver/Src/stm32f1xx_hal_can.c **** 
 663              		.loc 1 1037 21 is_stmt 0 view .LVU216
 664 0056 0025     		movs	r5, #0
 665 0058 6562     		str	r5, [r4, #36]
1040:Drivers/STM32F1xx_HAL_Driver/Src/stm32f1xx_hal_can.c ****   }
 666              		.loc 1 1040 5 is_stmt 1 view .LVU217
1040:Drivers/STM32F1xx_HAL_Driver/Src/stm32f1xx_hal_can.c ****   }
 667              		.loc 1 1040 12 is_stmt 0 view .LVU218
 668 005a DDE7     		b	.L56
 669              		.cfi_endproc
 670              	.LFE70:
 672              		.section	.text.HAL_CAN_Stop,"ax",%progbits
 673              		.align	1
 674              		.global	HAL_CAN_Stop
 675              		.syntax unified
 676              		.thumb
 677              		.thumb_func
 679              	HAL_CAN_Stop:
 680              	.LVL34:
 681              	.LFB71:
1050:Drivers/STM32F1xx_HAL_Driver/Src/stm32f1xx_hal_can.c **** 
1051:Drivers/STM32F1xx_HAL_Driver/Src/stm32f1xx_hal_can.c **** /**
1052:Drivers/STM32F1xx_HAL_Driver/Src/stm32f1xx_hal_can.c ****   * @brief  Stop the CAN module and enable access to configuration registers.
1053:Drivers/STM32F1xx_HAL_Driver/Src/stm32f1xx_hal_can.c ****   * @param  hcan pointer to an CAN_HandleTypeDef structure that contains
1054:Drivers/STM32F1xx_HAL_Driver/Src/stm32f1xx_hal_can.c ****   *         the configuration information for the specified CAN.
1055:Drivers/STM32F1xx_HAL_Driver/Src/stm32f1xx_hal_can.c ****   * @retval HAL status
1056:Drivers/STM32F1xx_HAL_Driver/Src/stm32f1xx_hal_can.c ****   */
1057:Drivers/STM32F1xx_HAL_Driver/Src/stm32f1xx_hal_can.c **** HAL_StatusTypeDef HAL_CAN_Stop(CAN_HandleTypeDef *hcan)
1058:Drivers/STM32F1xx_HAL_Driver/Src/stm32f1xx_hal_can.c **** {
 682              		.loc 1 1058 1 is_stmt 1 view -0
 683              		.cfi_startproc
 684              		@ args = 0, pretend = 0, frame = 0
 685              		@ frame_needed = 0, uses_anonymous_args = 0
 686              		.loc 1 1058 1 is_stmt 0 view .LVU220
 687 0000 38B5     		push	{r3, r4, r5, lr}
 688              	.LCFI4:
 689              		.cfi_def_cfa_offset 16
 690              		.cfi_offset 3, -16
 691              		.cfi_offset 4, -12
 692              		.cfi_offset 5, -8
 693              		.cfi_offset 14, -4
 694 0002 0446     		mov	r4, r0
1059:Drivers/STM32F1xx_HAL_Driver/Src/stm32f1xx_hal_can.c ****   uint32_t tickstart;
 695              		.loc 1 1059 3 is_stmt 1 view .LVU221
1060:Drivers/STM32F1xx_HAL_Driver/Src/stm32f1xx_hal_can.c **** 
1061:Drivers/STM32F1xx_HAL_Driver/Src/stm32f1xx_hal_can.c ****   if (hcan->State == HAL_CAN_STATE_LISTENING)
 696              		.loc 1 1061 3 view .LVU222
 697              		.loc 1 1061 11 is_stmt 0 view .LVU223
 698 0004 90F82030 		ldrb	r3, [r0, #32]	@ zero_extendqisi2
 699 0008 DBB2     		uxtb	r3, r3
 700              		.loc 1 1061 6 view .LVU224
 701 000a 022B     		cmp	r3, #2
 702 000c 05D0     		beq	.L67
ARM GAS  C:\Users\Rick\AppData\Local\Temp\ccbuSalp.s 			page 35


1062:Drivers/STM32F1xx_HAL_Driver/Src/stm32f1xx_hal_can.c ****   {
1063:Drivers/STM32F1xx_HAL_Driver/Src/stm32f1xx_hal_can.c ****     /* Request initialisation */
1064:Drivers/STM32F1xx_HAL_Driver/Src/stm32f1xx_hal_can.c ****     SET_BIT(hcan->Instance->MCR, CAN_MCR_INRQ);
1065:Drivers/STM32F1xx_HAL_Driver/Src/stm32f1xx_hal_can.c **** 
1066:Drivers/STM32F1xx_HAL_Driver/Src/stm32f1xx_hal_can.c ****     /* Get tick */
1067:Drivers/STM32F1xx_HAL_Driver/Src/stm32f1xx_hal_can.c ****     tickstart = HAL_GetTick();
1068:Drivers/STM32F1xx_HAL_Driver/Src/stm32f1xx_hal_can.c **** 
1069:Drivers/STM32F1xx_HAL_Driver/Src/stm32f1xx_hal_can.c ****     /* Wait the acknowledge */
1070:Drivers/STM32F1xx_HAL_Driver/Src/stm32f1xx_hal_can.c ****     while ((hcan->Instance->MSR & CAN_MSR_INAK) == 0U)
1071:Drivers/STM32F1xx_HAL_Driver/Src/stm32f1xx_hal_can.c ****     {
1072:Drivers/STM32F1xx_HAL_Driver/Src/stm32f1xx_hal_can.c ****       /* Check for the Timeout */
1073:Drivers/STM32F1xx_HAL_Driver/Src/stm32f1xx_hal_can.c ****       if ((HAL_GetTick() - tickstart) > CAN_TIMEOUT_VALUE)
1074:Drivers/STM32F1xx_HAL_Driver/Src/stm32f1xx_hal_can.c ****       {
1075:Drivers/STM32F1xx_HAL_Driver/Src/stm32f1xx_hal_can.c ****         /* Update error code */
1076:Drivers/STM32F1xx_HAL_Driver/Src/stm32f1xx_hal_can.c ****         hcan->ErrorCode |= HAL_CAN_ERROR_TIMEOUT;
1077:Drivers/STM32F1xx_HAL_Driver/Src/stm32f1xx_hal_can.c **** 
1078:Drivers/STM32F1xx_HAL_Driver/Src/stm32f1xx_hal_can.c ****         /* Change CAN state */
1079:Drivers/STM32F1xx_HAL_Driver/Src/stm32f1xx_hal_can.c ****         hcan->State = HAL_CAN_STATE_ERROR;
1080:Drivers/STM32F1xx_HAL_Driver/Src/stm32f1xx_hal_can.c **** 
1081:Drivers/STM32F1xx_HAL_Driver/Src/stm32f1xx_hal_can.c ****         return HAL_ERROR;
1082:Drivers/STM32F1xx_HAL_Driver/Src/stm32f1xx_hal_can.c ****       }
1083:Drivers/STM32F1xx_HAL_Driver/Src/stm32f1xx_hal_can.c ****     }
1084:Drivers/STM32F1xx_HAL_Driver/Src/stm32f1xx_hal_can.c **** 
1085:Drivers/STM32F1xx_HAL_Driver/Src/stm32f1xx_hal_can.c ****     /* Exit from sleep mode */
1086:Drivers/STM32F1xx_HAL_Driver/Src/stm32f1xx_hal_can.c ****     CLEAR_BIT(hcan->Instance->MCR, CAN_MCR_SLEEP);
1087:Drivers/STM32F1xx_HAL_Driver/Src/stm32f1xx_hal_can.c **** 
1088:Drivers/STM32F1xx_HAL_Driver/Src/stm32f1xx_hal_can.c ****     /* Change CAN peripheral state */
1089:Drivers/STM32F1xx_HAL_Driver/Src/stm32f1xx_hal_can.c ****     hcan->State = HAL_CAN_STATE_READY;
1090:Drivers/STM32F1xx_HAL_Driver/Src/stm32f1xx_hal_can.c **** 
1091:Drivers/STM32F1xx_HAL_Driver/Src/stm32f1xx_hal_can.c ****     /* Return function status */
1092:Drivers/STM32F1xx_HAL_Driver/Src/stm32f1xx_hal_can.c ****     return HAL_OK;
1093:Drivers/STM32F1xx_HAL_Driver/Src/stm32f1xx_hal_can.c ****   }
1094:Drivers/STM32F1xx_HAL_Driver/Src/stm32f1xx_hal_can.c ****   else
1095:Drivers/STM32F1xx_HAL_Driver/Src/stm32f1xx_hal_can.c ****   {
1096:Drivers/STM32F1xx_HAL_Driver/Src/stm32f1xx_hal_can.c ****     /* Update error code */
1097:Drivers/STM32F1xx_HAL_Driver/Src/stm32f1xx_hal_can.c ****     hcan->ErrorCode |= HAL_CAN_ERROR_NOT_STARTED;
 703              		.loc 1 1097 5 is_stmt 1 view .LVU225
 704              		.loc 1 1097 21 is_stmt 0 view .LVU226
 705 000e 436A     		ldr	r3, [r0, #36]
 706 0010 43F48013 		orr	r3, r3, #1048576
 707 0014 4362     		str	r3, [r0, #36]
1098:Drivers/STM32F1xx_HAL_Driver/Src/stm32f1xx_hal_can.c **** 
1099:Drivers/STM32F1xx_HAL_Driver/Src/stm32f1xx_hal_can.c ****     return HAL_ERROR;
 708              		.loc 1 1099 5 is_stmt 1 view .LVU227
 709              		.loc 1 1099 12 is_stmt 0 view .LVU228
 710 0016 0120     		movs	r0, #1
 711              	.LVL35:
 712              	.L64:
1100:Drivers/STM32F1xx_HAL_Driver/Src/stm32f1xx_hal_can.c ****   }
1101:Drivers/STM32F1xx_HAL_Driver/Src/stm32f1xx_hal_can.c **** }
 713              		.loc 1 1101 1 view .LVU229
 714 0018 38BD     		pop	{r3, r4, r5, pc}
 715              	.LVL36:
 716              	.L67:
1064:Drivers/STM32F1xx_HAL_Driver/Src/stm32f1xx_hal_can.c **** 
 717              		.loc 1 1064 5 is_stmt 1 view .LVU230
 718 001a 0268     		ldr	r2, [r0]
ARM GAS  C:\Users\Rick\AppData\Local\Temp\ccbuSalp.s 			page 36


 719 001c 1368     		ldr	r3, [r2]
 720 001e 43F00103 		orr	r3, r3, #1
 721 0022 1360     		str	r3, [r2]
1067:Drivers/STM32F1xx_HAL_Driver/Src/stm32f1xx_hal_can.c **** 
 722              		.loc 1 1067 5 view .LVU231
1067:Drivers/STM32F1xx_HAL_Driver/Src/stm32f1xx_hal_can.c **** 
 723              		.loc 1 1067 17 is_stmt 0 view .LVU232
 724 0024 FFF7FEFF 		bl	HAL_GetTick
 725              	.LVL37:
1067:Drivers/STM32F1xx_HAL_Driver/Src/stm32f1xx_hal_can.c **** 
 726              		.loc 1 1067 17 view .LVU233
 727 0028 0546     		mov	r5, r0
 728              	.LVL38:
1070:Drivers/STM32F1xx_HAL_Driver/Src/stm32f1xx_hal_can.c ****     {
 729              		.loc 1 1070 5 is_stmt 1 view .LVU234
 730              	.L63:
1070:Drivers/STM32F1xx_HAL_Driver/Src/stm32f1xx_hal_can.c ****     {
 731              		.loc 1 1070 11 view .LVU235
1070:Drivers/STM32F1xx_HAL_Driver/Src/stm32f1xx_hal_can.c ****     {
 732              		.loc 1 1070 17 is_stmt 0 view .LVU236
 733 002a 2368     		ldr	r3, [r4]
1070:Drivers/STM32F1xx_HAL_Driver/Src/stm32f1xx_hal_can.c ****     {
 734              		.loc 1 1070 27 view .LVU237
 735 002c 5A68     		ldr	r2, [r3, #4]
1070:Drivers/STM32F1xx_HAL_Driver/Src/stm32f1xx_hal_can.c ****     {
 736              		.loc 1 1070 11 view .LVU238
 737 002e 12F0010F 		tst	r2, #1
 738 0032 0DD1     		bne	.L68
1073:Drivers/STM32F1xx_HAL_Driver/Src/stm32f1xx_hal_can.c ****       {
 739              		.loc 1 1073 7 is_stmt 1 view .LVU239
1073:Drivers/STM32F1xx_HAL_Driver/Src/stm32f1xx_hal_can.c ****       {
 740              		.loc 1 1073 12 is_stmt 0 view .LVU240
 741 0034 FFF7FEFF 		bl	HAL_GetTick
 742              	.LVL39:
1073:Drivers/STM32F1xx_HAL_Driver/Src/stm32f1xx_hal_can.c ****       {
 743              		.loc 1 1073 26 view .LVU241
 744 0038 431B     		subs	r3, r0, r5
1073:Drivers/STM32F1xx_HAL_Driver/Src/stm32f1xx_hal_can.c ****       {
 745              		.loc 1 1073 10 view .LVU242
 746 003a 0A2B     		cmp	r3, #10
 747 003c F5D9     		bls	.L63
1076:Drivers/STM32F1xx_HAL_Driver/Src/stm32f1xx_hal_can.c **** 
 748              		.loc 1 1076 9 is_stmt 1 view .LVU243
1076:Drivers/STM32F1xx_HAL_Driver/Src/stm32f1xx_hal_can.c **** 
 749              		.loc 1 1076 25 is_stmt 0 view .LVU244
 750 003e 636A     		ldr	r3, [r4, #36]
 751 0040 43F40033 		orr	r3, r3, #131072
 752 0044 6362     		str	r3, [r4, #36]
1079:Drivers/STM32F1xx_HAL_Driver/Src/stm32f1xx_hal_can.c **** 
 753              		.loc 1 1079 9 is_stmt 1 view .LVU245
1079:Drivers/STM32F1xx_HAL_Driver/Src/stm32f1xx_hal_can.c **** 
 754              		.loc 1 1079 21 is_stmt 0 view .LVU246
 755 0046 0523     		movs	r3, #5
 756 0048 84F82030 		strb	r3, [r4, #32]
1081:Drivers/STM32F1xx_HAL_Driver/Src/stm32f1xx_hal_can.c ****       }
 757              		.loc 1 1081 9 is_stmt 1 view .LVU247
1081:Drivers/STM32F1xx_HAL_Driver/Src/stm32f1xx_hal_can.c ****       }
ARM GAS  C:\Users\Rick\AppData\Local\Temp\ccbuSalp.s 			page 37


 758              		.loc 1 1081 16 is_stmt 0 view .LVU248
 759 004c 0120     		movs	r0, #1
 760 004e E3E7     		b	.L64
 761              	.L68:
1086:Drivers/STM32F1xx_HAL_Driver/Src/stm32f1xx_hal_can.c **** 
 762              		.loc 1 1086 5 is_stmt 1 view .LVU249
 763 0050 1A68     		ldr	r2, [r3]
 764 0052 22F00202 		bic	r2, r2, #2
 765 0056 1A60     		str	r2, [r3]
1089:Drivers/STM32F1xx_HAL_Driver/Src/stm32f1xx_hal_can.c **** 
 766              		.loc 1 1089 5 view .LVU250
1089:Drivers/STM32F1xx_HAL_Driver/Src/stm32f1xx_hal_can.c **** 
 767              		.loc 1 1089 17 is_stmt 0 view .LVU251
 768 0058 0123     		movs	r3, #1
 769 005a 84F82030 		strb	r3, [r4, #32]
1092:Drivers/STM32F1xx_HAL_Driver/Src/stm32f1xx_hal_can.c ****   }
 770              		.loc 1 1092 5 is_stmt 1 view .LVU252
1092:Drivers/STM32F1xx_HAL_Driver/Src/stm32f1xx_hal_can.c ****   }
 771              		.loc 1 1092 12 is_stmt 0 view .LVU253
 772 005e 0020     		movs	r0, #0
 773 0060 DAE7     		b	.L64
 774              		.cfi_endproc
 775              	.LFE71:
 777              		.section	.text.HAL_CAN_DeInit,"ax",%progbits
 778              		.align	1
 779              		.global	HAL_CAN_DeInit
 780              		.syntax unified
 781              		.thumb
 782              		.thumb_func
 784              	HAL_CAN_DeInit:
 785              	.LVL40:
 786              	.LFB66:
 460:Drivers/STM32F1xx_HAL_Driver/Src/stm32f1xx_hal_can.c ****   /* Check CAN handle */
 787              		.loc 1 460 1 is_stmt 1 view -0
 788              		.cfi_startproc
 789              		@ args = 0, pretend = 0, frame = 0
 790              		@ frame_needed = 0, uses_anonymous_args = 0
 462:Drivers/STM32F1xx_HAL_Driver/Src/stm32f1xx_hal_can.c ****   {
 791              		.loc 1 462 3 view .LVU255
 462:Drivers/STM32F1xx_HAL_Driver/Src/stm32f1xx_hal_can.c ****   {
 792              		.loc 1 462 6 is_stmt 0 view .LVU256
 793 0000 80B1     		cbz	r0, .L71
 460:Drivers/STM32F1xx_HAL_Driver/Src/stm32f1xx_hal_can.c ****   /* Check CAN handle */
 794              		.loc 1 460 1 view .LVU257
 795 0002 10B5     		push	{r4, lr}
 796              	.LCFI5:
 797              		.cfi_def_cfa_offset 8
 798              		.cfi_offset 4, -8
 799              		.cfi_offset 14, -4
 800 0004 0446     		mov	r4, r0
 468:Drivers/STM32F1xx_HAL_Driver/Src/stm32f1xx_hal_can.c **** 
 801              		.loc 1 468 3 is_stmt 1 view .LVU258
 471:Drivers/STM32F1xx_HAL_Driver/Src/stm32f1xx_hal_can.c **** 
 802              		.loc 1 471 3 view .LVU259
 471:Drivers/STM32F1xx_HAL_Driver/Src/stm32f1xx_hal_can.c **** 
 803              		.loc 1 471 9 is_stmt 0 view .LVU260
 804 0006 FFF7FEFF 		bl	HAL_CAN_Stop
ARM GAS  C:\Users\Rick\AppData\Local\Temp\ccbuSalp.s 			page 38


 805              	.LVL41:
 484:Drivers/STM32F1xx_HAL_Driver/Src/stm32f1xx_hal_can.c **** #endif /* (USE_HAL_CAN_REGISTER_CALLBACKS) */
 806              		.loc 1 484 3 is_stmt 1 view .LVU261
 807 000a 2046     		mov	r0, r4
 808 000c FFF7FEFF 		bl	HAL_CAN_MspDeInit
 809              	.LVL42:
 488:Drivers/STM32F1xx_HAL_Driver/Src/stm32f1xx_hal_can.c **** 
 810              		.loc 1 488 3 view .LVU262
 811 0010 2268     		ldr	r2, [r4]
 812 0012 1368     		ldr	r3, [r2]
 813 0014 43F40043 		orr	r3, r3, #32768
 814 0018 1360     		str	r3, [r2]
 491:Drivers/STM32F1xx_HAL_Driver/Src/stm32f1xx_hal_can.c **** 
 815              		.loc 1 491 3 view .LVU263
 491:Drivers/STM32F1xx_HAL_Driver/Src/stm32f1xx_hal_can.c **** 
 816              		.loc 1 491 19 is_stmt 0 view .LVU264
 817 001a 0020     		movs	r0, #0
 818 001c 6062     		str	r0, [r4, #36]
 494:Drivers/STM32F1xx_HAL_Driver/Src/stm32f1xx_hal_can.c **** 
 819              		.loc 1 494 3 is_stmt 1 view .LVU265
 494:Drivers/STM32F1xx_HAL_Driver/Src/stm32f1xx_hal_can.c **** 
 820              		.loc 1 494 15 is_stmt 0 view .LVU266
 821 001e 84F82000 		strb	r0, [r4, #32]
 497:Drivers/STM32F1xx_HAL_Driver/Src/stm32f1xx_hal_can.c **** }
 822              		.loc 1 497 3 is_stmt 1 view .LVU267
 498:Drivers/STM32F1xx_HAL_Driver/Src/stm32f1xx_hal_can.c **** 
 823              		.loc 1 498 1 is_stmt 0 view .LVU268
 824 0022 10BD     		pop	{r4, pc}
 825              	.LVL43:
 826              	.L71:
 827              	.LCFI6:
 828              		.cfi_def_cfa_offset 0
 829              		.cfi_restore 4
 830              		.cfi_restore 14
 464:Drivers/STM32F1xx_HAL_Driver/Src/stm32f1xx_hal_can.c ****   }
 831              		.loc 1 464 12 view .LVU269
 832 0024 0120     		movs	r0, #1
 833              	.LVL44:
 498:Drivers/STM32F1xx_HAL_Driver/Src/stm32f1xx_hal_can.c **** 
 834              		.loc 1 498 1 view .LVU270
 835 0026 7047     		bx	lr
 836              		.cfi_endproc
 837              	.LFE66:
 839              		.section	.text.HAL_CAN_RequestSleep,"ax",%progbits
 840              		.align	1
 841              		.global	HAL_CAN_RequestSleep
 842              		.syntax unified
 843              		.thumb
 844              		.thumb_func
 846              	HAL_CAN_RequestSleep:
 847              	.LVL45:
 848              	.LFB72:
1102:Drivers/STM32F1xx_HAL_Driver/Src/stm32f1xx_hal_can.c **** 
1103:Drivers/STM32F1xx_HAL_Driver/Src/stm32f1xx_hal_can.c **** /**
1104:Drivers/STM32F1xx_HAL_Driver/Src/stm32f1xx_hal_can.c ****   * @brief  Request the sleep mode (low power) entry.
1105:Drivers/STM32F1xx_HAL_Driver/Src/stm32f1xx_hal_can.c ****   *         When returning from this function, Sleep mode will be entered
1106:Drivers/STM32F1xx_HAL_Driver/Src/stm32f1xx_hal_can.c ****   *         as soon as the current CAN activity (transmission or reception
ARM GAS  C:\Users\Rick\AppData\Local\Temp\ccbuSalp.s 			page 39


1107:Drivers/STM32F1xx_HAL_Driver/Src/stm32f1xx_hal_can.c ****   *         of a CAN frame) has been completed.
1108:Drivers/STM32F1xx_HAL_Driver/Src/stm32f1xx_hal_can.c ****   * @param  hcan pointer to a CAN_HandleTypeDef structure that contains
1109:Drivers/STM32F1xx_HAL_Driver/Src/stm32f1xx_hal_can.c ****   *         the configuration information for the specified CAN.
1110:Drivers/STM32F1xx_HAL_Driver/Src/stm32f1xx_hal_can.c ****   * @retval HAL status.
1111:Drivers/STM32F1xx_HAL_Driver/Src/stm32f1xx_hal_can.c ****   */
1112:Drivers/STM32F1xx_HAL_Driver/Src/stm32f1xx_hal_can.c **** HAL_StatusTypeDef HAL_CAN_RequestSleep(CAN_HandleTypeDef *hcan)
1113:Drivers/STM32F1xx_HAL_Driver/Src/stm32f1xx_hal_can.c **** {
 849              		.loc 1 1113 1 is_stmt 1 view -0
 850              		.cfi_startproc
 851              		@ args = 0, pretend = 0, frame = 0
 852              		@ frame_needed = 0, uses_anonymous_args = 0
 853              		@ link register save eliminated.
1114:Drivers/STM32F1xx_HAL_Driver/Src/stm32f1xx_hal_can.c ****   HAL_CAN_StateTypeDef state = hcan->State;
 854              		.loc 1 1114 3 view .LVU272
 855              		.loc 1 1114 24 is_stmt 0 view .LVU273
 856 0000 90F82030 		ldrb	r3, [r0, #32]	@ zero_extendqisi2
 857              	.LVL46:
1115:Drivers/STM32F1xx_HAL_Driver/Src/stm32f1xx_hal_can.c **** 
1116:Drivers/STM32F1xx_HAL_Driver/Src/stm32f1xx_hal_can.c ****   if ((state == HAL_CAN_STATE_READY) ||
 858              		.loc 1 1116 3 is_stmt 1 view .LVU274
 859              		.loc 1 1116 38 is_stmt 0 view .LVU275
 860 0004 013B     		subs	r3, r3, #1
 861              	.LVL47:
 862              		.loc 1 1116 38 view .LVU276
 863 0006 DBB2     		uxtb	r3, r3
 864              		.loc 1 1116 6 view .LVU277
 865 0008 012B     		cmp	r3, #1
 866 000a 05D9     		bls	.L79
1117:Drivers/STM32F1xx_HAL_Driver/Src/stm32f1xx_hal_can.c ****       (state == HAL_CAN_STATE_LISTENING))
1118:Drivers/STM32F1xx_HAL_Driver/Src/stm32f1xx_hal_can.c ****   {
1119:Drivers/STM32F1xx_HAL_Driver/Src/stm32f1xx_hal_can.c ****     /* Request Sleep mode */
1120:Drivers/STM32F1xx_HAL_Driver/Src/stm32f1xx_hal_can.c ****     SET_BIT(hcan->Instance->MCR, CAN_MCR_SLEEP);
1121:Drivers/STM32F1xx_HAL_Driver/Src/stm32f1xx_hal_can.c **** 
1122:Drivers/STM32F1xx_HAL_Driver/Src/stm32f1xx_hal_can.c ****     /* Return function status */
1123:Drivers/STM32F1xx_HAL_Driver/Src/stm32f1xx_hal_can.c ****     return HAL_OK;
1124:Drivers/STM32F1xx_HAL_Driver/Src/stm32f1xx_hal_can.c ****   }
1125:Drivers/STM32F1xx_HAL_Driver/Src/stm32f1xx_hal_can.c ****   else
1126:Drivers/STM32F1xx_HAL_Driver/Src/stm32f1xx_hal_can.c ****   {
1127:Drivers/STM32F1xx_HAL_Driver/Src/stm32f1xx_hal_can.c ****     /* Update error code */
1128:Drivers/STM32F1xx_HAL_Driver/Src/stm32f1xx_hal_can.c ****     hcan->ErrorCode |= HAL_CAN_ERROR_NOT_INITIALIZED;
 867              		.loc 1 1128 5 is_stmt 1 view .LVU278
 868              		.loc 1 1128 21 is_stmt 0 view .LVU279
 869 000c 436A     		ldr	r3, [r0, #36]
 870 000e 43F48023 		orr	r3, r3, #262144
 871 0012 4362     		str	r3, [r0, #36]
1129:Drivers/STM32F1xx_HAL_Driver/Src/stm32f1xx_hal_can.c **** 
1130:Drivers/STM32F1xx_HAL_Driver/Src/stm32f1xx_hal_can.c ****     /* Return function status */
1131:Drivers/STM32F1xx_HAL_Driver/Src/stm32f1xx_hal_can.c ****     return HAL_ERROR;
 872              		.loc 1 1131 5 is_stmt 1 view .LVU280
 873              		.loc 1 1131 12 is_stmt 0 view .LVU281
 874 0014 0120     		movs	r0, #1
 875              	.LVL48:
1132:Drivers/STM32F1xx_HAL_Driver/Src/stm32f1xx_hal_can.c ****   }
1133:Drivers/STM32F1xx_HAL_Driver/Src/stm32f1xx_hal_can.c **** }
 876              		.loc 1 1133 1 view .LVU282
 877 0016 7047     		bx	lr
 878              	.LVL49:
ARM GAS  C:\Users\Rick\AppData\Local\Temp\ccbuSalp.s 			page 40


 879              	.L79:
1120:Drivers/STM32F1xx_HAL_Driver/Src/stm32f1xx_hal_can.c **** 
 880              		.loc 1 1120 5 is_stmt 1 view .LVU283
 881 0018 0268     		ldr	r2, [r0]
 882 001a 1368     		ldr	r3, [r2]
 883 001c 43F00203 		orr	r3, r3, #2
 884 0020 1360     		str	r3, [r2]
1123:Drivers/STM32F1xx_HAL_Driver/Src/stm32f1xx_hal_can.c ****   }
 885              		.loc 1 1123 5 view .LVU284
1123:Drivers/STM32F1xx_HAL_Driver/Src/stm32f1xx_hal_can.c ****   }
 886              		.loc 1 1123 12 is_stmt 0 view .LVU285
 887 0022 0020     		movs	r0, #0
 888              	.LVL50:
1123:Drivers/STM32F1xx_HAL_Driver/Src/stm32f1xx_hal_can.c ****   }
 889              		.loc 1 1123 12 view .LVU286
 890 0024 7047     		bx	lr
 891              		.cfi_endproc
 892              	.LFE72:
 894              		.section	.text.HAL_CAN_WakeUp,"ax",%progbits
 895              		.align	1
 896              		.global	HAL_CAN_WakeUp
 897              		.syntax unified
 898              		.thumb
 899              		.thumb_func
 901              	HAL_CAN_WakeUp:
 902              	.LVL51:
 903              	.LFB73:
1134:Drivers/STM32F1xx_HAL_Driver/Src/stm32f1xx_hal_can.c **** 
1135:Drivers/STM32F1xx_HAL_Driver/Src/stm32f1xx_hal_can.c **** /**
1136:Drivers/STM32F1xx_HAL_Driver/Src/stm32f1xx_hal_can.c ****   * @brief  Wake up from sleep mode.
1137:Drivers/STM32F1xx_HAL_Driver/Src/stm32f1xx_hal_can.c ****   *         When returning with HAL_OK status from this function, Sleep mode
1138:Drivers/STM32F1xx_HAL_Driver/Src/stm32f1xx_hal_can.c ****   *         is exited.
1139:Drivers/STM32F1xx_HAL_Driver/Src/stm32f1xx_hal_can.c ****   * @param  hcan pointer to a CAN_HandleTypeDef structure that contains
1140:Drivers/STM32F1xx_HAL_Driver/Src/stm32f1xx_hal_can.c ****   *         the configuration information for the specified CAN.
1141:Drivers/STM32F1xx_HAL_Driver/Src/stm32f1xx_hal_can.c ****   * @retval HAL status.
1142:Drivers/STM32F1xx_HAL_Driver/Src/stm32f1xx_hal_can.c ****   */
1143:Drivers/STM32F1xx_HAL_Driver/Src/stm32f1xx_hal_can.c **** HAL_StatusTypeDef HAL_CAN_WakeUp(CAN_HandleTypeDef *hcan)
1144:Drivers/STM32F1xx_HAL_Driver/Src/stm32f1xx_hal_can.c **** {
 904              		.loc 1 1144 1 is_stmt 1 view -0
 905              		.cfi_startproc
 906              		@ args = 0, pretend = 0, frame = 8
 907              		@ frame_needed = 0, uses_anonymous_args = 0
 908              		@ link register save eliminated.
 909              		.loc 1 1144 1 is_stmt 0 view .LVU288
 910 0000 82B0     		sub	sp, sp, #8
 911              	.LCFI7:
 912              		.cfi_def_cfa_offset 8
1145:Drivers/STM32F1xx_HAL_Driver/Src/stm32f1xx_hal_can.c ****   __IO uint32_t count = 0;
 913              		.loc 1 1145 3 is_stmt 1 view .LVU289
 914              		.loc 1 1145 17 is_stmt 0 view .LVU290
 915 0002 0023     		movs	r3, #0
 916 0004 0193     		str	r3, [sp, #4]
1146:Drivers/STM32F1xx_HAL_Driver/Src/stm32f1xx_hal_can.c ****   uint32_t timeout = 1000000U;
 917              		.loc 1 1146 3 is_stmt 1 view .LVU291
 918              	.LVL52:
1147:Drivers/STM32F1xx_HAL_Driver/Src/stm32f1xx_hal_can.c ****   HAL_CAN_StateTypeDef state = hcan->State;
 919              		.loc 1 1147 3 view .LVU292
ARM GAS  C:\Users\Rick\AppData\Local\Temp\ccbuSalp.s 			page 41


 920              		.loc 1 1147 24 is_stmt 0 view .LVU293
 921 0006 90F82030 		ldrb	r3, [r0, #32]	@ zero_extendqisi2
 922              	.LVL53:
1148:Drivers/STM32F1xx_HAL_Driver/Src/stm32f1xx_hal_can.c **** 
1149:Drivers/STM32F1xx_HAL_Driver/Src/stm32f1xx_hal_can.c ****   if ((state == HAL_CAN_STATE_READY) ||
 923              		.loc 1 1149 3 is_stmt 1 view .LVU294
 924              		.loc 1 1149 38 is_stmt 0 view .LVU295
 925 000a 013B     		subs	r3, r3, #1
 926              	.LVL54:
 927              		.loc 1 1149 38 view .LVU296
 928 000c DBB2     		uxtb	r3, r3
 929              		.loc 1 1149 6 view .LVU297
 930 000e 012B     		cmp	r3, #1
 931 0010 18D8     		bhi	.L81
1150:Drivers/STM32F1xx_HAL_Driver/Src/stm32f1xx_hal_can.c ****       (state == HAL_CAN_STATE_LISTENING))
1151:Drivers/STM32F1xx_HAL_Driver/Src/stm32f1xx_hal_can.c ****   {
1152:Drivers/STM32F1xx_HAL_Driver/Src/stm32f1xx_hal_can.c ****     /* Wake up request */
1153:Drivers/STM32F1xx_HAL_Driver/Src/stm32f1xx_hal_can.c ****     CLEAR_BIT(hcan->Instance->MCR, CAN_MCR_SLEEP);
 932              		.loc 1 1153 5 is_stmt 1 view .LVU298
 933 0012 0268     		ldr	r2, [r0]
 934 0014 1368     		ldr	r3, [r2]
 935 0016 23F00203 		bic	r3, r3, #2
 936 001a 1360     		str	r3, [r2]
 937              	.L84:
1154:Drivers/STM32F1xx_HAL_Driver/Src/stm32f1xx_hal_can.c **** 
1155:Drivers/STM32F1xx_HAL_Driver/Src/stm32f1xx_hal_can.c ****     /* Wait sleep mode is exited */
1156:Drivers/STM32F1xx_HAL_Driver/Src/stm32f1xx_hal_can.c ****     do
 938              		.loc 1 1156 5 view .LVU299
1157:Drivers/STM32F1xx_HAL_Driver/Src/stm32f1xx_hal_can.c ****     {
1158:Drivers/STM32F1xx_HAL_Driver/Src/stm32f1xx_hal_can.c ****       /* Increment counter */
1159:Drivers/STM32F1xx_HAL_Driver/Src/stm32f1xx_hal_can.c ****       count++;
 939              		.loc 1 1159 7 view .LVU300
 940              		.loc 1 1159 12 is_stmt 0 view .LVU301
 941 001c 019B     		ldr	r3, [sp, #4]
 942 001e 0133     		adds	r3, r3, #1
 943 0020 0193     		str	r3, [sp, #4]
1160:Drivers/STM32F1xx_HAL_Driver/Src/stm32f1xx_hal_can.c **** 
1161:Drivers/STM32F1xx_HAL_Driver/Src/stm32f1xx_hal_can.c ****       /* Check if timeout is reached */
1162:Drivers/STM32F1xx_HAL_Driver/Src/stm32f1xx_hal_can.c ****       if (count > timeout)
 944              		.loc 1 1162 7 is_stmt 1 view .LVU302
 945              		.loc 1 1162 17 is_stmt 0 view .LVU303
 946 0022 019A     		ldr	r2, [sp, #4]
 947              		.loc 1 1162 10 view .LVU304
 948 0024 0B4B     		ldr	r3, .L87
 949 0026 9A42     		cmp	r2, r3
 950 0028 06D8     		bhi	.L86
1163:Drivers/STM32F1xx_HAL_Driver/Src/stm32f1xx_hal_can.c ****       {
1164:Drivers/STM32F1xx_HAL_Driver/Src/stm32f1xx_hal_can.c ****         /* Update error code */
1165:Drivers/STM32F1xx_HAL_Driver/Src/stm32f1xx_hal_can.c ****         hcan->ErrorCode |= HAL_CAN_ERROR_TIMEOUT;
1166:Drivers/STM32F1xx_HAL_Driver/Src/stm32f1xx_hal_can.c **** 
1167:Drivers/STM32F1xx_HAL_Driver/Src/stm32f1xx_hal_can.c ****         return HAL_ERROR;
1168:Drivers/STM32F1xx_HAL_Driver/Src/stm32f1xx_hal_can.c ****       }
1169:Drivers/STM32F1xx_HAL_Driver/Src/stm32f1xx_hal_can.c ****     }
1170:Drivers/STM32F1xx_HAL_Driver/Src/stm32f1xx_hal_can.c ****     while ((hcan->Instance->MSR & CAN_MSR_SLAK) != 0U);
 951              		.loc 1 1170 11 is_stmt 1 view .LVU305
 952              		.loc 1 1170 17 is_stmt 0 view .LVU306
 953 002a 0368     		ldr	r3, [r0]
ARM GAS  C:\Users\Rick\AppData\Local\Temp\ccbuSalp.s 			page 42


 954              		.loc 1 1170 27 view .LVU307
 955 002c 5B68     		ldr	r3, [r3, #4]
 956              		.loc 1 1170 5 view .LVU308
 957 002e 13F0020F 		tst	r3, #2
 958 0032 F3D1     		bne	.L84
1171:Drivers/STM32F1xx_HAL_Driver/Src/stm32f1xx_hal_can.c **** 
1172:Drivers/STM32F1xx_HAL_Driver/Src/stm32f1xx_hal_can.c ****     /* Return function status */
1173:Drivers/STM32F1xx_HAL_Driver/Src/stm32f1xx_hal_can.c ****     return HAL_OK;
 959              		.loc 1 1173 12 view .LVU309
 960 0034 0020     		movs	r0, #0
 961              	.LVL55:
 962              		.loc 1 1173 12 view .LVU310
 963 0036 0AE0     		b	.L83
 964              	.LVL56:
 965              	.L86:
1165:Drivers/STM32F1xx_HAL_Driver/Src/stm32f1xx_hal_can.c **** 
 966              		.loc 1 1165 9 is_stmt 1 view .LVU311
1165:Drivers/STM32F1xx_HAL_Driver/Src/stm32f1xx_hal_can.c **** 
 967              		.loc 1 1165 25 is_stmt 0 view .LVU312
 968 0038 436A     		ldr	r3, [r0, #36]
 969 003a 43F40033 		orr	r3, r3, #131072
 970 003e 4362     		str	r3, [r0, #36]
1167:Drivers/STM32F1xx_HAL_Driver/Src/stm32f1xx_hal_can.c ****       }
 971              		.loc 1 1167 9 is_stmt 1 view .LVU313
1167:Drivers/STM32F1xx_HAL_Driver/Src/stm32f1xx_hal_can.c ****       }
 972              		.loc 1 1167 16 is_stmt 0 view .LVU314
 973 0040 0120     		movs	r0, #1
 974              	.LVL57:
1167:Drivers/STM32F1xx_HAL_Driver/Src/stm32f1xx_hal_can.c ****       }
 975              		.loc 1 1167 16 view .LVU315
 976 0042 04E0     		b	.L83
 977              	.LVL58:
 978              	.L81:
1174:Drivers/STM32F1xx_HAL_Driver/Src/stm32f1xx_hal_can.c ****   }
1175:Drivers/STM32F1xx_HAL_Driver/Src/stm32f1xx_hal_can.c ****   else
1176:Drivers/STM32F1xx_HAL_Driver/Src/stm32f1xx_hal_can.c ****   {
1177:Drivers/STM32F1xx_HAL_Driver/Src/stm32f1xx_hal_can.c ****     /* Update error code */
1178:Drivers/STM32F1xx_HAL_Driver/Src/stm32f1xx_hal_can.c ****     hcan->ErrorCode |= HAL_CAN_ERROR_NOT_INITIALIZED;
 979              		.loc 1 1178 5 is_stmt 1 view .LVU316
 980              		.loc 1 1178 21 is_stmt 0 view .LVU317
 981 0044 436A     		ldr	r3, [r0, #36]
 982 0046 43F48023 		orr	r3, r3, #262144
 983 004a 4362     		str	r3, [r0, #36]
1179:Drivers/STM32F1xx_HAL_Driver/Src/stm32f1xx_hal_can.c **** 
1180:Drivers/STM32F1xx_HAL_Driver/Src/stm32f1xx_hal_can.c ****     return HAL_ERROR;
 984              		.loc 1 1180 5 is_stmt 1 view .LVU318
 985              		.loc 1 1180 12 is_stmt 0 view .LVU319
 986 004c 0120     		movs	r0, #1
 987              	.LVL59:
 988              	.L83:
1181:Drivers/STM32F1xx_HAL_Driver/Src/stm32f1xx_hal_can.c ****   }
1182:Drivers/STM32F1xx_HAL_Driver/Src/stm32f1xx_hal_can.c **** }
 989              		.loc 1 1182 1 view .LVU320
 990 004e 02B0     		add	sp, sp, #8
 991              	.LCFI8:
 992              		.cfi_def_cfa_offset 0
 993              		@ sp needed
ARM GAS  C:\Users\Rick\AppData\Local\Temp\ccbuSalp.s 			page 43


 994 0050 7047     		bx	lr
 995              	.L88:
 996 0052 00BF     		.align	2
 997              	.L87:
 998 0054 40420F00 		.word	1000000
 999              		.cfi_endproc
 1000              	.LFE73:
 1002              		.section	.text.HAL_CAN_IsSleepActive,"ax",%progbits
 1003              		.align	1
 1004              		.global	HAL_CAN_IsSleepActive
 1005              		.syntax unified
 1006              		.thumb
 1007              		.thumb_func
 1009              	HAL_CAN_IsSleepActive:
 1010              	.LVL60:
 1011              	.LFB74:
1183:Drivers/STM32F1xx_HAL_Driver/Src/stm32f1xx_hal_can.c **** 
1184:Drivers/STM32F1xx_HAL_Driver/Src/stm32f1xx_hal_can.c **** /**
1185:Drivers/STM32F1xx_HAL_Driver/Src/stm32f1xx_hal_can.c ****   * @brief  Check is sleep mode is active.
1186:Drivers/STM32F1xx_HAL_Driver/Src/stm32f1xx_hal_can.c ****   * @param  hcan pointer to a CAN_HandleTypeDef structure that contains
1187:Drivers/STM32F1xx_HAL_Driver/Src/stm32f1xx_hal_can.c ****   *         the configuration information for the specified CAN.
1188:Drivers/STM32F1xx_HAL_Driver/Src/stm32f1xx_hal_can.c ****   * @retval Status
1189:Drivers/STM32F1xx_HAL_Driver/Src/stm32f1xx_hal_can.c ****   *          - 0 : Sleep mode is not active.
1190:Drivers/STM32F1xx_HAL_Driver/Src/stm32f1xx_hal_can.c ****   *          - 1 : Sleep mode is active.
1191:Drivers/STM32F1xx_HAL_Driver/Src/stm32f1xx_hal_can.c ****   */
1192:Drivers/STM32F1xx_HAL_Driver/Src/stm32f1xx_hal_can.c **** uint32_t HAL_CAN_IsSleepActive(const CAN_HandleTypeDef *hcan)
1193:Drivers/STM32F1xx_HAL_Driver/Src/stm32f1xx_hal_can.c **** {
 1012              		.loc 1 1193 1 is_stmt 1 view -0
 1013              		.cfi_startproc
 1014              		@ args = 0, pretend = 0, frame = 0
 1015              		@ frame_needed = 0, uses_anonymous_args = 0
 1016              		@ link register save eliminated.
1194:Drivers/STM32F1xx_HAL_Driver/Src/stm32f1xx_hal_can.c ****   uint32_t status = 0U;
 1017              		.loc 1 1194 3 view .LVU322
1195:Drivers/STM32F1xx_HAL_Driver/Src/stm32f1xx_hal_can.c ****   HAL_CAN_StateTypeDef state = hcan->State;
 1018              		.loc 1 1195 3 view .LVU323
 1019              		.loc 1 1195 24 is_stmt 0 view .LVU324
 1020 0000 90F82030 		ldrb	r3, [r0, #32]	@ zero_extendqisi2
 1021              	.LVL61:
1196:Drivers/STM32F1xx_HAL_Driver/Src/stm32f1xx_hal_can.c **** 
1197:Drivers/STM32F1xx_HAL_Driver/Src/stm32f1xx_hal_can.c ****   if ((state == HAL_CAN_STATE_READY) ||
 1022              		.loc 1 1197 3 is_stmt 1 view .LVU325
 1023              		.loc 1 1197 38 is_stmt 0 view .LVU326
 1024 0004 013B     		subs	r3, r3, #1
 1025              	.LVL62:
 1026              		.loc 1 1197 38 view .LVU327
 1027 0006 DBB2     		uxtb	r3, r3
 1028              		.loc 1 1197 6 view .LVU328
 1029 0008 012B     		cmp	r3, #1
 1030 000a 01D9     		bls	.L93
1194:Drivers/STM32F1xx_HAL_Driver/Src/stm32f1xx_hal_can.c ****   HAL_CAN_StateTypeDef state = hcan->State;
 1031              		.loc 1 1194 12 view .LVU329
 1032 000c 0020     		movs	r0, #0
 1033              	.LVL63:
1194:Drivers/STM32F1xx_HAL_Driver/Src/stm32f1xx_hal_can.c ****   HAL_CAN_StateTypeDef state = hcan->State;
 1034              		.loc 1 1194 12 view .LVU330
 1035 000e 7047     		bx	lr
ARM GAS  C:\Users\Rick\AppData\Local\Temp\ccbuSalp.s 			page 44


 1036              	.LVL64:
 1037              	.L93:
1198:Drivers/STM32F1xx_HAL_Driver/Src/stm32f1xx_hal_can.c ****       (state == HAL_CAN_STATE_LISTENING))
1199:Drivers/STM32F1xx_HAL_Driver/Src/stm32f1xx_hal_can.c ****   {
1200:Drivers/STM32F1xx_HAL_Driver/Src/stm32f1xx_hal_can.c ****     /* Check Sleep mode */
1201:Drivers/STM32F1xx_HAL_Driver/Src/stm32f1xx_hal_can.c ****     if ((hcan->Instance->MSR & CAN_MSR_SLAK) != 0U)
 1038              		.loc 1 1201 5 is_stmt 1 view .LVU331
 1039              		.loc 1 1201 14 is_stmt 0 view .LVU332
 1040 0010 0368     		ldr	r3, [r0]
 1041              		.loc 1 1201 24 view .LVU333
 1042 0012 5868     		ldr	r0, [r3, #4]
 1043              	.LVL65:
 1044              		.loc 1 1201 8 view .LVU334
 1045 0014 10F00200 		ands	r0, r0, #2
 1046 0018 00D1     		bne	.L92
 1047 001a 7047     		bx	lr
 1048              	.L92:
1202:Drivers/STM32F1xx_HAL_Driver/Src/stm32f1xx_hal_can.c ****     {
1203:Drivers/STM32F1xx_HAL_Driver/Src/stm32f1xx_hal_can.c ****       status = 1U;
 1049              		.loc 1 1203 14 view .LVU335
 1050 001c 0120     		movs	r0, #1
 1051              	.LVL66:
1204:Drivers/STM32F1xx_HAL_Driver/Src/stm32f1xx_hal_can.c ****     }
1205:Drivers/STM32F1xx_HAL_Driver/Src/stm32f1xx_hal_can.c ****   }
1206:Drivers/STM32F1xx_HAL_Driver/Src/stm32f1xx_hal_can.c **** 
1207:Drivers/STM32F1xx_HAL_Driver/Src/stm32f1xx_hal_can.c ****   /* Return function status */
1208:Drivers/STM32F1xx_HAL_Driver/Src/stm32f1xx_hal_can.c ****   return status;
 1052              		.loc 1 1208 3 is_stmt 1 view .LVU336
1209:Drivers/STM32F1xx_HAL_Driver/Src/stm32f1xx_hal_can.c **** }
 1053              		.loc 1 1209 1 is_stmt 0 view .LVU337
 1054 001e 7047     		bx	lr
 1055              		.cfi_endproc
 1056              	.LFE74:
 1058              		.section	.text.HAL_CAN_AddTxMessage,"ax",%progbits
 1059              		.align	1
 1060              		.global	HAL_CAN_AddTxMessage
 1061              		.syntax unified
 1062              		.thumb
 1063              		.thumb_func
 1065              	HAL_CAN_AddTxMessage:
 1066              	.LVL67:
 1067              	.LFB75:
1210:Drivers/STM32F1xx_HAL_Driver/Src/stm32f1xx_hal_can.c **** 
1211:Drivers/STM32F1xx_HAL_Driver/Src/stm32f1xx_hal_can.c **** /**
1212:Drivers/STM32F1xx_HAL_Driver/Src/stm32f1xx_hal_can.c ****   * @brief  Add a message to the first free Tx mailbox and activate the
1213:Drivers/STM32F1xx_HAL_Driver/Src/stm32f1xx_hal_can.c ****   *         corresponding transmission request.
1214:Drivers/STM32F1xx_HAL_Driver/Src/stm32f1xx_hal_can.c ****   * @param  hcan pointer to a CAN_HandleTypeDef structure that contains
1215:Drivers/STM32F1xx_HAL_Driver/Src/stm32f1xx_hal_can.c ****   *         the configuration information for the specified CAN.
1216:Drivers/STM32F1xx_HAL_Driver/Src/stm32f1xx_hal_can.c ****   * @param  pHeader pointer to a CAN_TxHeaderTypeDef structure.
1217:Drivers/STM32F1xx_HAL_Driver/Src/stm32f1xx_hal_can.c ****   * @param  aData array containing the payload of the Tx frame.
1218:Drivers/STM32F1xx_HAL_Driver/Src/stm32f1xx_hal_can.c ****   * @param  pTxMailbox pointer to a variable where the function will return
1219:Drivers/STM32F1xx_HAL_Driver/Src/stm32f1xx_hal_can.c ****   *         the TxMailbox used to store the Tx message.
1220:Drivers/STM32F1xx_HAL_Driver/Src/stm32f1xx_hal_can.c ****   *         This parameter can be a value of @arg CAN_Tx_Mailboxes.
1221:Drivers/STM32F1xx_HAL_Driver/Src/stm32f1xx_hal_can.c ****   * @retval HAL status
1222:Drivers/STM32F1xx_HAL_Driver/Src/stm32f1xx_hal_can.c ****   */
1223:Drivers/STM32F1xx_HAL_Driver/Src/stm32f1xx_hal_can.c **** HAL_StatusTypeDef HAL_CAN_AddTxMessage(CAN_HandleTypeDef *hcan, const CAN_TxHeaderTypeDef *pHeader,
1224:Drivers/STM32F1xx_HAL_Driver/Src/stm32f1xx_hal_can.c ****                                        const uint8_t aData[], uint32_t *pTxMailbox)
ARM GAS  C:\Users\Rick\AppData\Local\Temp\ccbuSalp.s 			page 45


1225:Drivers/STM32F1xx_HAL_Driver/Src/stm32f1xx_hal_can.c **** {
 1068              		.loc 1 1225 1 is_stmt 1 view -0
 1069              		.cfi_startproc
 1070              		@ args = 0, pretend = 0, frame = 0
 1071              		@ frame_needed = 0, uses_anonymous_args = 0
 1072              		.loc 1 1225 1 is_stmt 0 view .LVU339
 1073 0000 30B5     		push	{r4, r5, lr}
 1074              	.LCFI9:
 1075              		.cfi_def_cfa_offset 12
 1076              		.cfi_offset 4, -12
 1077              		.cfi_offset 5, -8
 1078              		.cfi_offset 14, -4
1226:Drivers/STM32F1xx_HAL_Driver/Src/stm32f1xx_hal_can.c ****   uint32_t transmitmailbox;
 1079              		.loc 1 1226 3 is_stmt 1 view .LVU340
1227:Drivers/STM32F1xx_HAL_Driver/Src/stm32f1xx_hal_can.c ****   HAL_CAN_StateTypeDef state = hcan->State;
 1080              		.loc 1 1227 3 view .LVU341
 1081              		.loc 1 1227 24 is_stmt 0 view .LVU342
 1082 0002 90F820C0 		ldrb	ip, [r0, #32]	@ zero_extendqisi2
 1083              	.LVL68:
1228:Drivers/STM32F1xx_HAL_Driver/Src/stm32f1xx_hal_can.c ****   uint32_t tsr = READ_REG(hcan->Instance->TSR);
 1084              		.loc 1 1228 3 is_stmt 1 view .LVU343
 1085              		.loc 1 1228 12 is_stmt 0 view .LVU344
 1086 0006 0468     		ldr	r4, [r0]
 1087 0008 A468     		ldr	r4, [r4, #8]
 1088              	.LVL69:
1229:Drivers/STM32F1xx_HAL_Driver/Src/stm32f1xx_hal_can.c **** 
1230:Drivers/STM32F1xx_HAL_Driver/Src/stm32f1xx_hal_can.c ****   /* Check the parameters */
1231:Drivers/STM32F1xx_HAL_Driver/Src/stm32f1xx_hal_can.c ****   assert_param(IS_CAN_IDTYPE(pHeader->IDE));
 1089              		.loc 1 1231 3 is_stmt 1 view .LVU345
1232:Drivers/STM32F1xx_HAL_Driver/Src/stm32f1xx_hal_can.c ****   assert_param(IS_CAN_RTR(pHeader->RTR));
 1090              		.loc 1 1232 3 view .LVU346
1233:Drivers/STM32F1xx_HAL_Driver/Src/stm32f1xx_hal_can.c ****   assert_param(IS_CAN_DLC(pHeader->DLC));
 1091              		.loc 1 1233 3 view .LVU347
1234:Drivers/STM32F1xx_HAL_Driver/Src/stm32f1xx_hal_can.c ****   if (pHeader->IDE == CAN_ID_STD)
 1092              		.loc 1 1234 3 view .LVU348
1235:Drivers/STM32F1xx_HAL_Driver/Src/stm32f1xx_hal_can.c ****   {
1236:Drivers/STM32F1xx_HAL_Driver/Src/stm32f1xx_hal_can.c ****     assert_param(IS_CAN_STDID(pHeader->StdId));
1237:Drivers/STM32F1xx_HAL_Driver/Src/stm32f1xx_hal_can.c ****   }
1238:Drivers/STM32F1xx_HAL_Driver/Src/stm32f1xx_hal_can.c ****   else
1239:Drivers/STM32F1xx_HAL_Driver/Src/stm32f1xx_hal_can.c ****   {
1240:Drivers/STM32F1xx_HAL_Driver/Src/stm32f1xx_hal_can.c ****     assert_param(IS_CAN_EXTID(pHeader->ExtId));
 1093              		.loc 1 1240 5 view .LVU349
1241:Drivers/STM32F1xx_HAL_Driver/Src/stm32f1xx_hal_can.c ****   }
1242:Drivers/STM32F1xx_HAL_Driver/Src/stm32f1xx_hal_can.c ****   assert_param(IS_FUNCTIONAL_STATE(pHeader->TransmitGlobalTime));
 1094              		.loc 1 1242 3 view .LVU350
1243:Drivers/STM32F1xx_HAL_Driver/Src/stm32f1xx_hal_can.c **** 
1244:Drivers/STM32F1xx_HAL_Driver/Src/stm32f1xx_hal_can.c ****   if ((state == HAL_CAN_STATE_READY) ||
 1095              		.loc 1 1244 3 view .LVU351
 1096              		.loc 1 1244 38 is_stmt 0 view .LVU352
 1097 000a 0CF1FF3C 		add	ip, ip, #-1
 1098              	.LVL70:
 1099              		.loc 1 1244 38 view .LVU353
 1100 000e 5FFA8CFC 		uxtb	ip, ip
 1101              		.loc 1 1244 6 view .LVU354
 1102 0012 BCF1010F 		cmp	ip, #1
 1103 0016 62D8     		bhi	.L95
1245:Drivers/STM32F1xx_HAL_Driver/Src/stm32f1xx_hal_can.c ****       (state == HAL_CAN_STATE_LISTENING))
ARM GAS  C:\Users\Rick\AppData\Local\Temp\ccbuSalp.s 			page 46


1246:Drivers/STM32F1xx_HAL_Driver/Src/stm32f1xx_hal_can.c ****   {
1247:Drivers/STM32F1xx_HAL_Driver/Src/stm32f1xx_hal_can.c ****     /* Check that all the Tx mailboxes are not full */
1248:Drivers/STM32F1xx_HAL_Driver/Src/stm32f1xx_hal_can.c ****     if (((tsr & CAN_TSR_TME0) != 0U) ||
 1104              		.loc 1 1248 5 is_stmt 1 view .LVU355
 1105              		.loc 1 1248 8 is_stmt 0 view .LVU356
 1106 0018 14F0E05F 		tst	r4, #469762048
 1107 001c 59D0     		beq	.L96
1249:Drivers/STM32F1xx_HAL_Driver/Src/stm32f1xx_hal_can.c ****         ((tsr & CAN_TSR_TME1) != 0U) ||
1250:Drivers/STM32F1xx_HAL_Driver/Src/stm32f1xx_hal_can.c ****         ((tsr & CAN_TSR_TME2) != 0U))
1251:Drivers/STM32F1xx_HAL_Driver/Src/stm32f1xx_hal_can.c ****     {
1252:Drivers/STM32F1xx_HAL_Driver/Src/stm32f1xx_hal_can.c ****       /* Select an empty transmit mailbox */
1253:Drivers/STM32F1xx_HAL_Driver/Src/stm32f1xx_hal_can.c ****       transmitmailbox = (tsr & CAN_TSR_CODE) >> CAN_TSR_CODE_Pos;
 1108              		.loc 1 1253 7 is_stmt 1 view .LVU357
 1109              		.loc 1 1253 23 is_stmt 0 view .LVU358
 1110 001e C4F3016C 		ubfx	ip, r4, #24, #2
 1111              	.LVL71:
1254:Drivers/STM32F1xx_HAL_Driver/Src/stm32f1xx_hal_can.c **** 
1255:Drivers/STM32F1xx_HAL_Driver/Src/stm32f1xx_hal_can.c ****       /* Store the Tx mailbox */
1256:Drivers/STM32F1xx_HAL_Driver/Src/stm32f1xx_hal_can.c ****       *pTxMailbox = (uint32_t)1 << transmitmailbox;
 1112              		.loc 1 1256 7 is_stmt 1 view .LVU359
 1113              		.loc 1 1256 33 is_stmt 0 view .LVU360
 1114 0022 0124     		movs	r4, #1
 1115              	.LVL72:
 1116              		.loc 1 1256 33 view .LVU361
 1117 0024 04FA0CF4 		lsl	r4, r4, ip
 1118              		.loc 1 1256 19 view .LVU362
 1119 0028 1C60     		str	r4, [r3]
1257:Drivers/STM32F1xx_HAL_Driver/Src/stm32f1xx_hal_can.c **** 
1258:Drivers/STM32F1xx_HAL_Driver/Src/stm32f1xx_hal_can.c ****       /* Set up the Id */
1259:Drivers/STM32F1xx_HAL_Driver/Src/stm32f1xx_hal_can.c ****       if (pHeader->IDE == CAN_ID_STD)
 1120              		.loc 1 1259 7 is_stmt 1 view .LVU363
 1121              		.loc 1 1259 18 is_stmt 0 view .LVU364
 1122 002a 8B68     		ldr	r3, [r1, #8]
 1123              	.LVL73:
 1124              		.loc 1 1259 10 view .LVU365
 1125 002c 002B     		cmp	r3, #0
 1126 002e 3DD1     		bne	.L97
1260:Drivers/STM32F1xx_HAL_Driver/Src/stm32f1xx_hal_can.c ****       {
1261:Drivers/STM32F1xx_HAL_Driver/Src/stm32f1xx_hal_can.c ****         hcan->Instance->sTxMailBox[transmitmailbox].TIR = ((pHeader->StdId << CAN_TI0R_STID_Pos) |
 1127              		.loc 1 1261 9 is_stmt 1 view .LVU366
 1128              		.loc 1 1261 68 is_stmt 0 view .LVU367
 1129 0030 0D68     		ldr	r5, [r1]
1262:Drivers/STM32F1xx_HAL_Driver/Src/stm32f1xx_hal_can.c ****                                                            pHeader->RTR);
 1130              		.loc 1 1262 67 view .LVU368
 1131 0032 CB68     		ldr	r3, [r1, #12]
1261:Drivers/STM32F1xx_HAL_Driver/Src/stm32f1xx_hal_can.c ****                                                            pHeader->RTR);
 1132              		.loc 1 1261 13 view .LVU369
 1133 0034 0468     		ldr	r4, [r0]
1261:Drivers/STM32F1xx_HAL_Driver/Src/stm32f1xx_hal_can.c ****                                                            pHeader->RTR);
 1134              		.loc 1 1261 98 view .LVU370
 1135 0036 43EA4555 		orr	r5, r3, r5, lsl #21
1261:Drivers/STM32F1xx_HAL_Driver/Src/stm32f1xx_hal_can.c ****                                                            pHeader->RTR);
 1136              		.loc 1 1261 57 view .LVU371
 1137 003a 0CF11803 		add	r3, ip, #24
 1138 003e 1B01     		lsls	r3, r3, #4
 1139 0040 E550     		str	r5, [r4, r3]
 1140              	.L98:
ARM GAS  C:\Users\Rick\AppData\Local\Temp\ccbuSalp.s 			page 47


1263:Drivers/STM32F1xx_HAL_Driver/Src/stm32f1xx_hal_can.c ****       }
1264:Drivers/STM32F1xx_HAL_Driver/Src/stm32f1xx_hal_can.c ****       else
1265:Drivers/STM32F1xx_HAL_Driver/Src/stm32f1xx_hal_can.c ****       {
1266:Drivers/STM32F1xx_HAL_Driver/Src/stm32f1xx_hal_can.c ****         hcan->Instance->sTxMailBox[transmitmailbox].TIR = ((pHeader->ExtId << CAN_TI0R_EXID_Pos) |
1267:Drivers/STM32F1xx_HAL_Driver/Src/stm32f1xx_hal_can.c ****                                                            pHeader->IDE |
1268:Drivers/STM32F1xx_HAL_Driver/Src/stm32f1xx_hal_can.c ****                                                            pHeader->RTR);
1269:Drivers/STM32F1xx_HAL_Driver/Src/stm32f1xx_hal_can.c ****       }
1270:Drivers/STM32F1xx_HAL_Driver/Src/stm32f1xx_hal_can.c **** 
1271:Drivers/STM32F1xx_HAL_Driver/Src/stm32f1xx_hal_can.c ****       /* Set up the DLC */
1272:Drivers/STM32F1xx_HAL_Driver/Src/stm32f1xx_hal_can.c ****       hcan->Instance->sTxMailBox[transmitmailbox].TDTR = (pHeader->DLC);
 1141              		.loc 1 1272 7 is_stmt 1 view .LVU372
 1142              		.loc 1 1272 11 is_stmt 0 view .LVU373
 1143 0042 0368     		ldr	r3, [r0]
 1144              		.loc 1 1272 66 view .LVU374
 1145 0044 0C69     		ldr	r4, [r1, #16]
 1146              		.loc 1 1272 56 view .LVU375
 1147 0046 0CF1180E 		add	lr, ip, #24
 1148 004a 03EB0E13 		add	r3, r3, lr, lsl #4
 1149 004e 5C60     		str	r4, [r3, #4]
1273:Drivers/STM32F1xx_HAL_Driver/Src/stm32f1xx_hal_can.c **** 
1274:Drivers/STM32F1xx_HAL_Driver/Src/stm32f1xx_hal_can.c ****       /* Set up the Transmit Global Time mode */
1275:Drivers/STM32F1xx_HAL_Driver/Src/stm32f1xx_hal_can.c ****       if (pHeader->TransmitGlobalTime == ENABLE)
 1150              		.loc 1 1275 7 is_stmt 1 view .LVU376
 1151              		.loc 1 1275 18 is_stmt 0 view .LVU377
 1152 0050 0B7D     		ldrb	r3, [r1, #20]	@ zero_extendqisi2
 1153              		.loc 1 1275 10 view .LVU378
 1154 0052 012B     		cmp	r3, #1
 1155 0054 35D0     		beq	.L102
 1156              	.LVL74:
 1157              	.L99:
1276:Drivers/STM32F1xx_HAL_Driver/Src/stm32f1xx_hal_can.c ****       {
1277:Drivers/STM32F1xx_HAL_Driver/Src/stm32f1xx_hal_can.c ****         SET_BIT(hcan->Instance->sTxMailBox[transmitmailbox].TDTR, CAN_TDT0R_TGT);
1278:Drivers/STM32F1xx_HAL_Driver/Src/stm32f1xx_hal_can.c ****       }
1279:Drivers/STM32F1xx_HAL_Driver/Src/stm32f1xx_hal_can.c **** 
1280:Drivers/STM32F1xx_HAL_Driver/Src/stm32f1xx_hal_can.c ****       /* Set up the data field */
1281:Drivers/STM32F1xx_HAL_Driver/Src/stm32f1xx_hal_can.c ****       WRITE_REG(hcan->Instance->sTxMailBox[transmitmailbox].TDHR,
 1158              		.loc 1 1281 7 is_stmt 1 view .LVU379
 1159 0056 D179     		ldrb	r1, [r2, #7]	@ zero_extendqisi2
 1160 0058 9379     		ldrb	r3, [r2, #6]	@ zero_extendqisi2
 1161 005a 1B04     		lsls	r3, r3, #16
 1162 005c 43EA0163 		orr	r3, r3, r1, lsl #24
 1163 0060 5179     		ldrb	r1, [r2, #5]	@ zero_extendqisi2
 1164 0062 43EA0123 		orr	r3, r3, r1, lsl #8
 1165 0066 1479     		ldrb	r4, [r2, #4]	@ zero_extendqisi2
 1166 0068 0168     		ldr	r1, [r0]
 1167 006a 2343     		orrs	r3, r3, r4
 1168 006c 01EB0C11 		add	r1, r1, ip, lsl #4
 1169 0070 C1F88C31 		str	r3, [r1, #396]
1282:Drivers/STM32F1xx_HAL_Driver/Src/stm32f1xx_hal_can.c ****                 ((uint32_t)aData[7] << CAN_TDH0R_DATA7_Pos) |
1283:Drivers/STM32F1xx_HAL_Driver/Src/stm32f1xx_hal_can.c ****                 ((uint32_t)aData[6] << CAN_TDH0R_DATA6_Pos) |
1284:Drivers/STM32F1xx_HAL_Driver/Src/stm32f1xx_hal_can.c ****                 ((uint32_t)aData[5] << CAN_TDH0R_DATA5_Pos) |
1285:Drivers/STM32F1xx_HAL_Driver/Src/stm32f1xx_hal_can.c ****                 ((uint32_t)aData[4] << CAN_TDH0R_DATA4_Pos));
1286:Drivers/STM32F1xx_HAL_Driver/Src/stm32f1xx_hal_can.c ****       WRITE_REG(hcan->Instance->sTxMailBox[transmitmailbox].TDLR,
 1170              		.loc 1 1286 7 view .LVU380
 1171 0074 D178     		ldrb	r1, [r2, #3]	@ zero_extendqisi2
 1172 0076 9378     		ldrb	r3, [r2, #2]	@ zero_extendqisi2
 1173 0078 1B04     		lsls	r3, r3, #16
ARM GAS  C:\Users\Rick\AppData\Local\Temp\ccbuSalp.s 			page 48


 1174 007a 43EA0163 		orr	r3, r3, r1, lsl #24
 1175 007e 5178     		ldrb	r1, [r2, #1]	@ zero_extendqisi2
 1176 0080 43EA0123 		orr	r3, r3, r1, lsl #8
 1177 0084 1178     		ldrb	r1, [r2]	@ zero_extendqisi2
 1178 0086 0268     		ldr	r2, [r0]
 1179              	.LVL75:
 1180              		.loc 1 1286 7 is_stmt 0 view .LVU381
 1181 0088 0B43     		orrs	r3, r3, r1
 1182 008a 02EB0C12 		add	r2, r2, ip, lsl #4
 1183 008e C2F88831 		str	r3, [r2, #392]
1287:Drivers/STM32F1xx_HAL_Driver/Src/stm32f1xx_hal_can.c ****                 ((uint32_t)aData[3] << CAN_TDL0R_DATA3_Pos) |
1288:Drivers/STM32F1xx_HAL_Driver/Src/stm32f1xx_hal_can.c ****                 ((uint32_t)aData[2] << CAN_TDL0R_DATA2_Pos) |
1289:Drivers/STM32F1xx_HAL_Driver/Src/stm32f1xx_hal_can.c ****                 ((uint32_t)aData[1] << CAN_TDL0R_DATA1_Pos) |
1290:Drivers/STM32F1xx_HAL_Driver/Src/stm32f1xx_hal_can.c ****                 ((uint32_t)aData[0] << CAN_TDL0R_DATA0_Pos));
1291:Drivers/STM32F1xx_HAL_Driver/Src/stm32f1xx_hal_can.c **** 
1292:Drivers/STM32F1xx_HAL_Driver/Src/stm32f1xx_hal_can.c ****       /* Request transmission */
1293:Drivers/STM32F1xx_HAL_Driver/Src/stm32f1xx_hal_can.c ****       SET_BIT(hcan->Instance->sTxMailBox[transmitmailbox].TIR, CAN_TI0R_TXRQ);
 1184              		.loc 1 1293 7 is_stmt 1 view .LVU382
 1185 0092 0268     		ldr	r2, [r0]
 1186 0094 0CF1180C 		add	ip, ip, #24
 1187              	.LVL76:
 1188              		.loc 1 1293 7 is_stmt 0 view .LVU383
 1189 0098 4FEA0C1C 		lsl	ip, ip, #4
 1190 009c 52F80C30 		ldr	r3, [r2, ip]
 1191 00a0 43F00103 		orr	r3, r3, #1
 1192 00a4 42F80C30 		str	r3, [r2, ip]
1294:Drivers/STM32F1xx_HAL_Driver/Src/stm32f1xx_hal_can.c **** 
1295:Drivers/STM32F1xx_HAL_Driver/Src/stm32f1xx_hal_can.c ****       /* Return function status */
1296:Drivers/STM32F1xx_HAL_Driver/Src/stm32f1xx_hal_can.c ****       return HAL_OK;
 1193              		.loc 1 1296 7 is_stmt 1 view .LVU384
 1194              		.loc 1 1296 14 is_stmt 0 view .LVU385
 1195 00a8 0020     		movs	r0, #0
 1196              	.LVL77:
 1197              		.loc 1 1296 14 view .LVU386
 1198 00aa 1DE0     		b	.L100
 1199              	.LVL78:
 1200              	.L97:
1266:Drivers/STM32F1xx_HAL_Driver/Src/stm32f1xx_hal_can.c ****                                                            pHeader->IDE |
 1201              		.loc 1 1266 9 is_stmt 1 view .LVU387
1266:Drivers/STM32F1xx_HAL_Driver/Src/stm32f1xx_hal_can.c ****                                                            pHeader->IDE |
 1202              		.loc 1 1266 68 is_stmt 0 view .LVU388
 1203 00ac 4C68     		ldr	r4, [r1, #4]
1266:Drivers/STM32F1xx_HAL_Driver/Src/stm32f1xx_hal_can.c ****                                                            pHeader->IDE |
 1204              		.loc 1 1266 98 view .LVU389
 1205 00ae 43EAC403 		orr	r3, r3, r4, lsl #3
1268:Drivers/STM32F1xx_HAL_Driver/Src/stm32f1xx_hal_can.c ****       }
 1206              		.loc 1 1268 67 view .LVU390
 1207 00b2 CC68     		ldr	r4, [r1, #12]
1267:Drivers/STM32F1xx_HAL_Driver/Src/stm32f1xx_hal_can.c ****                                                            pHeader->RTR);
 1208              		.loc 1 1267 73 view .LVU391
 1209 00b4 2343     		orrs	r3, r3, r4
1266:Drivers/STM32F1xx_HAL_Driver/Src/stm32f1xx_hal_can.c ****                                                            pHeader->IDE |
 1210              		.loc 1 1266 57 view .LVU392
 1211 00b6 0CF11804 		add	r4, ip, #24
 1212 00ba 2401     		lsls	r4, r4, #4
 1213 00bc 0568     		ldr	r5, [r0]
 1214 00be 2B51     		str	r3, [r5, r4]
ARM GAS  C:\Users\Rick\AppData\Local\Temp\ccbuSalp.s 			page 49


 1215 00c0 BFE7     		b	.L98
 1216              	.L102:
1277:Drivers/STM32F1xx_HAL_Driver/Src/stm32f1xx_hal_can.c ****       }
 1217              		.loc 1 1277 9 is_stmt 1 view .LVU393
 1218 00c2 0368     		ldr	r3, [r0]
 1219 00c4 03EB0E13 		add	r3, r3, lr, lsl #4
 1220 00c8 5968     		ldr	r1, [r3, #4]
 1221              	.LVL79:
1277:Drivers/STM32F1xx_HAL_Driver/Src/stm32f1xx_hal_can.c ****       }
 1222              		.loc 1 1277 9 is_stmt 0 view .LVU394
 1223 00ca 41F48071 		orr	r1, r1, #256
 1224 00ce 5960     		str	r1, [r3, #4]
 1225 00d0 C1E7     		b	.L99
 1226              	.LVL80:
 1227              	.L96:
1297:Drivers/STM32F1xx_HAL_Driver/Src/stm32f1xx_hal_can.c ****     }
1298:Drivers/STM32F1xx_HAL_Driver/Src/stm32f1xx_hal_can.c ****     else
1299:Drivers/STM32F1xx_HAL_Driver/Src/stm32f1xx_hal_can.c ****     {
1300:Drivers/STM32F1xx_HAL_Driver/Src/stm32f1xx_hal_can.c ****       /* Update error code */
1301:Drivers/STM32F1xx_HAL_Driver/Src/stm32f1xx_hal_can.c ****       hcan->ErrorCode |= HAL_CAN_ERROR_PARAM;
 1228              		.loc 1 1301 7 is_stmt 1 view .LVU395
 1229              		.loc 1 1301 23 is_stmt 0 view .LVU396
 1230 00d2 436A     		ldr	r3, [r0, #36]
 1231              	.LVL81:
 1232              		.loc 1 1301 23 view .LVU397
 1233 00d4 43F40013 		orr	r3, r3, #2097152
 1234 00d8 4362     		str	r3, [r0, #36]
1302:Drivers/STM32F1xx_HAL_Driver/Src/stm32f1xx_hal_can.c **** 
1303:Drivers/STM32F1xx_HAL_Driver/Src/stm32f1xx_hal_can.c ****       return HAL_ERROR;
 1235              		.loc 1 1303 7 is_stmt 1 view .LVU398
 1236              		.loc 1 1303 14 is_stmt 0 view .LVU399
 1237 00da 0120     		movs	r0, #1
 1238              	.LVL82:
 1239              		.loc 1 1303 14 view .LVU400
 1240 00dc 04E0     		b	.L100
 1241              	.LVL83:
 1242              	.L95:
1304:Drivers/STM32F1xx_HAL_Driver/Src/stm32f1xx_hal_can.c ****     }
1305:Drivers/STM32F1xx_HAL_Driver/Src/stm32f1xx_hal_can.c ****   }
1306:Drivers/STM32F1xx_HAL_Driver/Src/stm32f1xx_hal_can.c ****   else
1307:Drivers/STM32F1xx_HAL_Driver/Src/stm32f1xx_hal_can.c ****   {
1308:Drivers/STM32F1xx_HAL_Driver/Src/stm32f1xx_hal_can.c ****     /* Update error code */
1309:Drivers/STM32F1xx_HAL_Driver/Src/stm32f1xx_hal_can.c ****     hcan->ErrorCode |= HAL_CAN_ERROR_NOT_INITIALIZED;
 1243              		.loc 1 1309 5 is_stmt 1 view .LVU401
 1244              		.loc 1 1309 21 is_stmt 0 view .LVU402
 1245 00de 436A     		ldr	r3, [r0, #36]
 1246              	.LVL84:
 1247              		.loc 1 1309 21 view .LVU403
 1248 00e0 43F48023 		orr	r3, r3, #262144
 1249 00e4 4362     		str	r3, [r0, #36]
1310:Drivers/STM32F1xx_HAL_Driver/Src/stm32f1xx_hal_can.c **** 
1311:Drivers/STM32F1xx_HAL_Driver/Src/stm32f1xx_hal_can.c ****     return HAL_ERROR;
 1250              		.loc 1 1311 5 is_stmt 1 view .LVU404
 1251              		.loc 1 1311 12 is_stmt 0 view .LVU405
 1252 00e6 0120     		movs	r0, #1
 1253              	.LVL85:
 1254              	.L100:
ARM GAS  C:\Users\Rick\AppData\Local\Temp\ccbuSalp.s 			page 50


1312:Drivers/STM32F1xx_HAL_Driver/Src/stm32f1xx_hal_can.c ****   }
1313:Drivers/STM32F1xx_HAL_Driver/Src/stm32f1xx_hal_can.c **** }
 1255              		.loc 1 1313 1 view .LVU406
 1256 00e8 30BD     		pop	{r4, r5, pc}
 1257              		.cfi_endproc
 1258              	.LFE75:
 1260              		.section	.text.HAL_CAN_AbortTxRequest,"ax",%progbits
 1261              		.align	1
 1262              		.global	HAL_CAN_AbortTxRequest
 1263              		.syntax unified
 1264              		.thumb
 1265              		.thumb_func
 1267              	HAL_CAN_AbortTxRequest:
 1268              	.LVL86:
 1269              	.LFB76:
1314:Drivers/STM32F1xx_HAL_Driver/Src/stm32f1xx_hal_can.c **** 
1315:Drivers/STM32F1xx_HAL_Driver/Src/stm32f1xx_hal_can.c **** /**
1316:Drivers/STM32F1xx_HAL_Driver/Src/stm32f1xx_hal_can.c ****   * @brief  Abort transmission requests
1317:Drivers/STM32F1xx_HAL_Driver/Src/stm32f1xx_hal_can.c ****   * @param  hcan pointer to an CAN_HandleTypeDef structure that contains
1318:Drivers/STM32F1xx_HAL_Driver/Src/stm32f1xx_hal_can.c ****   *         the configuration information for the specified CAN.
1319:Drivers/STM32F1xx_HAL_Driver/Src/stm32f1xx_hal_can.c ****   * @param  TxMailboxes List of the Tx Mailboxes to abort.
1320:Drivers/STM32F1xx_HAL_Driver/Src/stm32f1xx_hal_can.c ****   *         This parameter can be any combination of @arg CAN_Tx_Mailboxes.
1321:Drivers/STM32F1xx_HAL_Driver/Src/stm32f1xx_hal_can.c ****   * @retval HAL status
1322:Drivers/STM32F1xx_HAL_Driver/Src/stm32f1xx_hal_can.c ****   */
1323:Drivers/STM32F1xx_HAL_Driver/Src/stm32f1xx_hal_can.c **** HAL_StatusTypeDef HAL_CAN_AbortTxRequest(CAN_HandleTypeDef *hcan, uint32_t TxMailboxes)
1324:Drivers/STM32F1xx_HAL_Driver/Src/stm32f1xx_hal_can.c **** {
 1270              		.loc 1 1324 1 is_stmt 1 view -0
 1271              		.cfi_startproc
 1272              		@ args = 0, pretend = 0, frame = 0
 1273              		@ frame_needed = 0, uses_anonymous_args = 0
 1274              		@ link register save eliminated.
1325:Drivers/STM32F1xx_HAL_Driver/Src/stm32f1xx_hal_can.c ****   HAL_CAN_StateTypeDef state = hcan->State;
 1275              		.loc 1 1325 3 view .LVU408
 1276              		.loc 1 1325 24 is_stmt 0 view .LVU409
 1277 0000 90F82030 		ldrb	r3, [r0, #32]	@ zero_extendqisi2
 1278              	.LVL87:
1326:Drivers/STM32F1xx_HAL_Driver/Src/stm32f1xx_hal_can.c **** 
1327:Drivers/STM32F1xx_HAL_Driver/Src/stm32f1xx_hal_can.c ****   /* Check function parameters */
1328:Drivers/STM32F1xx_HAL_Driver/Src/stm32f1xx_hal_can.c ****   assert_param(IS_CAN_TX_MAILBOX_LIST(TxMailboxes));
 1279              		.loc 1 1328 3 is_stmt 1 view .LVU410
1329:Drivers/STM32F1xx_HAL_Driver/Src/stm32f1xx_hal_can.c **** 
1330:Drivers/STM32F1xx_HAL_Driver/Src/stm32f1xx_hal_can.c ****   if ((state == HAL_CAN_STATE_READY) ||
 1280              		.loc 1 1330 3 view .LVU411
 1281              		.loc 1 1330 38 is_stmt 0 view .LVU412
 1282 0004 013B     		subs	r3, r3, #1
 1283              	.LVL88:
 1284              		.loc 1 1330 38 view .LVU413
 1285 0006 DBB2     		uxtb	r3, r3
 1286              		.loc 1 1330 6 view .LVU414
 1287 0008 012B     		cmp	r3, #1
 1288 000a 05D9     		bls	.L109
1331:Drivers/STM32F1xx_HAL_Driver/Src/stm32f1xx_hal_can.c ****       (state == HAL_CAN_STATE_LISTENING))
1332:Drivers/STM32F1xx_HAL_Driver/Src/stm32f1xx_hal_can.c ****   {
1333:Drivers/STM32F1xx_HAL_Driver/Src/stm32f1xx_hal_can.c ****     /* Check Tx Mailbox 0 */
1334:Drivers/STM32F1xx_HAL_Driver/Src/stm32f1xx_hal_can.c ****     if ((TxMailboxes & CAN_TX_MAILBOX0) != 0U)
1335:Drivers/STM32F1xx_HAL_Driver/Src/stm32f1xx_hal_can.c ****     {
1336:Drivers/STM32F1xx_HAL_Driver/Src/stm32f1xx_hal_can.c ****       /* Add cancellation request for Tx Mailbox 0 */
ARM GAS  C:\Users\Rick\AppData\Local\Temp\ccbuSalp.s 			page 51


1337:Drivers/STM32F1xx_HAL_Driver/Src/stm32f1xx_hal_can.c ****       SET_BIT(hcan->Instance->TSR, CAN_TSR_ABRQ0);
1338:Drivers/STM32F1xx_HAL_Driver/Src/stm32f1xx_hal_can.c ****     }
1339:Drivers/STM32F1xx_HAL_Driver/Src/stm32f1xx_hal_can.c **** 
1340:Drivers/STM32F1xx_HAL_Driver/Src/stm32f1xx_hal_can.c ****     /* Check Tx Mailbox 1 */
1341:Drivers/STM32F1xx_HAL_Driver/Src/stm32f1xx_hal_can.c ****     if ((TxMailboxes & CAN_TX_MAILBOX1) != 0U)
1342:Drivers/STM32F1xx_HAL_Driver/Src/stm32f1xx_hal_can.c ****     {
1343:Drivers/STM32F1xx_HAL_Driver/Src/stm32f1xx_hal_can.c ****       /* Add cancellation request for Tx Mailbox 1 */
1344:Drivers/STM32F1xx_HAL_Driver/Src/stm32f1xx_hal_can.c ****       SET_BIT(hcan->Instance->TSR, CAN_TSR_ABRQ1);
1345:Drivers/STM32F1xx_HAL_Driver/Src/stm32f1xx_hal_can.c ****     }
1346:Drivers/STM32F1xx_HAL_Driver/Src/stm32f1xx_hal_can.c **** 
1347:Drivers/STM32F1xx_HAL_Driver/Src/stm32f1xx_hal_can.c ****     /* Check Tx Mailbox 2 */
1348:Drivers/STM32F1xx_HAL_Driver/Src/stm32f1xx_hal_can.c ****     if ((TxMailboxes & CAN_TX_MAILBOX2) != 0U)
1349:Drivers/STM32F1xx_HAL_Driver/Src/stm32f1xx_hal_can.c ****     {
1350:Drivers/STM32F1xx_HAL_Driver/Src/stm32f1xx_hal_can.c ****       /* Add cancellation request for Tx Mailbox 2 */
1351:Drivers/STM32F1xx_HAL_Driver/Src/stm32f1xx_hal_can.c ****       SET_BIT(hcan->Instance->TSR, CAN_TSR_ABRQ2);
1352:Drivers/STM32F1xx_HAL_Driver/Src/stm32f1xx_hal_can.c ****     }
1353:Drivers/STM32F1xx_HAL_Driver/Src/stm32f1xx_hal_can.c **** 
1354:Drivers/STM32F1xx_HAL_Driver/Src/stm32f1xx_hal_can.c ****     /* Return function status */
1355:Drivers/STM32F1xx_HAL_Driver/Src/stm32f1xx_hal_can.c ****     return HAL_OK;
1356:Drivers/STM32F1xx_HAL_Driver/Src/stm32f1xx_hal_can.c ****   }
1357:Drivers/STM32F1xx_HAL_Driver/Src/stm32f1xx_hal_can.c ****   else
1358:Drivers/STM32F1xx_HAL_Driver/Src/stm32f1xx_hal_can.c ****   {
1359:Drivers/STM32F1xx_HAL_Driver/Src/stm32f1xx_hal_can.c ****     /* Update error code */
1360:Drivers/STM32F1xx_HAL_Driver/Src/stm32f1xx_hal_can.c ****     hcan->ErrorCode |= HAL_CAN_ERROR_NOT_INITIALIZED;
 1289              		.loc 1 1360 5 is_stmt 1 view .LVU415
 1290              		.loc 1 1360 21 is_stmt 0 view .LVU416
 1291 000c 436A     		ldr	r3, [r0, #36]
 1292 000e 43F48023 		orr	r3, r3, #262144
 1293 0012 4362     		str	r3, [r0, #36]
1361:Drivers/STM32F1xx_HAL_Driver/Src/stm32f1xx_hal_can.c **** 
1362:Drivers/STM32F1xx_HAL_Driver/Src/stm32f1xx_hal_can.c ****     return HAL_ERROR;
 1294              		.loc 1 1362 5 is_stmt 1 view .LVU417
 1295              		.loc 1 1362 12 is_stmt 0 view .LVU418
 1296 0014 0120     		movs	r0, #1
 1297              	.LVL89:
1363:Drivers/STM32F1xx_HAL_Driver/Src/stm32f1xx_hal_can.c ****   }
1364:Drivers/STM32F1xx_HAL_Driver/Src/stm32f1xx_hal_can.c **** }
 1298              		.loc 1 1364 1 view .LVU419
 1299 0016 7047     		bx	lr
 1300              	.LVL90:
 1301              	.L109:
1334:Drivers/STM32F1xx_HAL_Driver/Src/stm32f1xx_hal_can.c ****     {
 1302              		.loc 1 1334 5 is_stmt 1 view .LVU420
1334:Drivers/STM32F1xx_HAL_Driver/Src/stm32f1xx_hal_can.c ****     {
 1303              		.loc 1 1334 8 is_stmt 0 view .LVU421
 1304 0018 11F0010F 		tst	r1, #1
 1305 001c 04D0     		beq	.L105
1337:Drivers/STM32F1xx_HAL_Driver/Src/stm32f1xx_hal_can.c ****     }
 1306              		.loc 1 1337 7 is_stmt 1 view .LVU422
 1307 001e 0268     		ldr	r2, [r0]
 1308 0020 9368     		ldr	r3, [r2, #8]
 1309 0022 43F08003 		orr	r3, r3, #128
 1310 0026 9360     		str	r3, [r2, #8]
 1311              	.L105:
1341:Drivers/STM32F1xx_HAL_Driver/Src/stm32f1xx_hal_can.c ****     {
 1312              		.loc 1 1341 5 view .LVU423
1341:Drivers/STM32F1xx_HAL_Driver/Src/stm32f1xx_hal_can.c ****     {
ARM GAS  C:\Users\Rick\AppData\Local\Temp\ccbuSalp.s 			page 52


 1313              		.loc 1 1341 8 is_stmt 0 view .LVU424
 1314 0028 11F0020F 		tst	r1, #2
 1315 002c 04D0     		beq	.L106
1344:Drivers/STM32F1xx_HAL_Driver/Src/stm32f1xx_hal_can.c ****     }
 1316              		.loc 1 1344 7 is_stmt 1 view .LVU425
 1317 002e 0268     		ldr	r2, [r0]
 1318 0030 9368     		ldr	r3, [r2, #8]
 1319 0032 43F40043 		orr	r3, r3, #32768
 1320 0036 9360     		str	r3, [r2, #8]
 1321              	.L106:
1348:Drivers/STM32F1xx_HAL_Driver/Src/stm32f1xx_hal_can.c ****     {
 1322              		.loc 1 1348 5 view .LVU426
1348:Drivers/STM32F1xx_HAL_Driver/Src/stm32f1xx_hal_can.c ****     {
 1323              		.loc 1 1348 8 is_stmt 0 view .LVU427
 1324 0038 11F0040F 		tst	r1, #4
 1325 003c 04D0     		beq	.L107
1351:Drivers/STM32F1xx_HAL_Driver/Src/stm32f1xx_hal_can.c ****     }
 1326              		.loc 1 1351 7 is_stmt 1 view .LVU428
 1327 003e 0268     		ldr	r2, [r0]
 1328 0040 9368     		ldr	r3, [r2, #8]
 1329 0042 43F40003 		orr	r3, r3, #8388608
 1330 0046 9360     		str	r3, [r2, #8]
 1331              	.L107:
1355:Drivers/STM32F1xx_HAL_Driver/Src/stm32f1xx_hal_can.c ****   }
 1332              		.loc 1 1355 5 view .LVU429
1355:Drivers/STM32F1xx_HAL_Driver/Src/stm32f1xx_hal_can.c ****   }
 1333              		.loc 1 1355 12 is_stmt 0 view .LVU430
 1334 0048 0020     		movs	r0, #0
 1335              	.LVL91:
1355:Drivers/STM32F1xx_HAL_Driver/Src/stm32f1xx_hal_can.c ****   }
 1336              		.loc 1 1355 12 view .LVU431
 1337 004a 7047     		bx	lr
 1338              		.cfi_endproc
 1339              	.LFE76:
 1341              		.section	.text.HAL_CAN_GetTxMailboxesFreeLevel,"ax",%progbits
 1342              		.align	1
 1343              		.global	HAL_CAN_GetTxMailboxesFreeLevel
 1344              		.syntax unified
 1345              		.thumb
 1346              		.thumb_func
 1348              	HAL_CAN_GetTxMailboxesFreeLevel:
 1349              	.LVL92:
 1350              	.LFB77:
1365:Drivers/STM32F1xx_HAL_Driver/Src/stm32f1xx_hal_can.c **** 
1366:Drivers/STM32F1xx_HAL_Driver/Src/stm32f1xx_hal_can.c **** /**
1367:Drivers/STM32F1xx_HAL_Driver/Src/stm32f1xx_hal_can.c ****   * @brief  Return Tx Mailboxes free level: number of free Tx Mailboxes.
1368:Drivers/STM32F1xx_HAL_Driver/Src/stm32f1xx_hal_can.c ****   * @param  hcan pointer to a CAN_HandleTypeDef structure that contains
1369:Drivers/STM32F1xx_HAL_Driver/Src/stm32f1xx_hal_can.c ****   *         the configuration information for the specified CAN.
1370:Drivers/STM32F1xx_HAL_Driver/Src/stm32f1xx_hal_can.c ****   * @retval Number of free Tx Mailboxes.
1371:Drivers/STM32F1xx_HAL_Driver/Src/stm32f1xx_hal_can.c ****   */
1372:Drivers/STM32F1xx_HAL_Driver/Src/stm32f1xx_hal_can.c **** uint32_t HAL_CAN_GetTxMailboxesFreeLevel(const CAN_HandleTypeDef *hcan)
1373:Drivers/STM32F1xx_HAL_Driver/Src/stm32f1xx_hal_can.c **** {
 1351              		.loc 1 1373 1 is_stmt 1 view -0
 1352              		.cfi_startproc
 1353              		@ args = 0, pretend = 0, frame = 0
 1354              		@ frame_needed = 0, uses_anonymous_args = 0
 1355              		@ link register save eliminated.
ARM GAS  C:\Users\Rick\AppData\Local\Temp\ccbuSalp.s 			page 53


1374:Drivers/STM32F1xx_HAL_Driver/Src/stm32f1xx_hal_can.c ****   uint32_t freelevel = 0U;
 1356              		.loc 1 1374 3 view .LVU433
1375:Drivers/STM32F1xx_HAL_Driver/Src/stm32f1xx_hal_can.c ****   HAL_CAN_StateTypeDef state = hcan->State;
 1357              		.loc 1 1375 3 view .LVU434
 1358              		.loc 1 1375 24 is_stmt 0 view .LVU435
 1359 0000 90F82030 		ldrb	r3, [r0, #32]	@ zero_extendqisi2
 1360              	.LVL93:
1376:Drivers/STM32F1xx_HAL_Driver/Src/stm32f1xx_hal_can.c **** 
1377:Drivers/STM32F1xx_HAL_Driver/Src/stm32f1xx_hal_can.c ****   if ((state == HAL_CAN_STATE_READY) ||
 1361              		.loc 1 1377 3 is_stmt 1 view .LVU436
 1362              		.loc 1 1377 38 is_stmt 0 view .LVU437
 1363 0004 013B     		subs	r3, r3, #1
 1364              	.LVL94:
 1365              		.loc 1 1377 38 view .LVU438
 1366 0006 DBB2     		uxtb	r3, r3
 1367              		.loc 1 1377 6 view .LVU439
 1368 0008 012B     		cmp	r3, #1
 1369 000a 01D9     		bls	.L116
1374:Drivers/STM32F1xx_HAL_Driver/Src/stm32f1xx_hal_can.c ****   HAL_CAN_StateTypeDef state = hcan->State;
 1370              		.loc 1 1374 12 view .LVU440
 1371 000c 0020     		movs	r0, #0
 1372              	.LVL95:
1378:Drivers/STM32F1xx_HAL_Driver/Src/stm32f1xx_hal_can.c ****       (state == HAL_CAN_STATE_LISTENING))
1379:Drivers/STM32F1xx_HAL_Driver/Src/stm32f1xx_hal_can.c ****   {
1380:Drivers/STM32F1xx_HAL_Driver/Src/stm32f1xx_hal_can.c ****     /* Check Tx Mailbox 0 status */
1381:Drivers/STM32F1xx_HAL_Driver/Src/stm32f1xx_hal_can.c ****     if ((hcan->Instance->TSR & CAN_TSR_TME0) != 0U)
1382:Drivers/STM32F1xx_HAL_Driver/Src/stm32f1xx_hal_can.c ****     {
1383:Drivers/STM32F1xx_HAL_Driver/Src/stm32f1xx_hal_can.c ****       freelevel++;
1384:Drivers/STM32F1xx_HAL_Driver/Src/stm32f1xx_hal_can.c ****     }
1385:Drivers/STM32F1xx_HAL_Driver/Src/stm32f1xx_hal_can.c **** 
1386:Drivers/STM32F1xx_HAL_Driver/Src/stm32f1xx_hal_can.c ****     /* Check Tx Mailbox 1 status */
1387:Drivers/STM32F1xx_HAL_Driver/Src/stm32f1xx_hal_can.c ****     if ((hcan->Instance->TSR & CAN_TSR_TME1) != 0U)
1388:Drivers/STM32F1xx_HAL_Driver/Src/stm32f1xx_hal_can.c ****     {
1389:Drivers/STM32F1xx_HAL_Driver/Src/stm32f1xx_hal_can.c ****       freelevel++;
1390:Drivers/STM32F1xx_HAL_Driver/Src/stm32f1xx_hal_can.c ****     }
1391:Drivers/STM32F1xx_HAL_Driver/Src/stm32f1xx_hal_can.c **** 
1392:Drivers/STM32F1xx_HAL_Driver/Src/stm32f1xx_hal_can.c ****     /* Check Tx Mailbox 2 status */
1393:Drivers/STM32F1xx_HAL_Driver/Src/stm32f1xx_hal_can.c ****     if ((hcan->Instance->TSR & CAN_TSR_TME2) != 0U)
1394:Drivers/STM32F1xx_HAL_Driver/Src/stm32f1xx_hal_can.c ****     {
1395:Drivers/STM32F1xx_HAL_Driver/Src/stm32f1xx_hal_can.c ****       freelevel++;
1396:Drivers/STM32F1xx_HAL_Driver/Src/stm32f1xx_hal_can.c ****     }
1397:Drivers/STM32F1xx_HAL_Driver/Src/stm32f1xx_hal_can.c ****   }
1398:Drivers/STM32F1xx_HAL_Driver/Src/stm32f1xx_hal_can.c **** 
1399:Drivers/STM32F1xx_HAL_Driver/Src/stm32f1xx_hal_can.c ****   /* Return Tx Mailboxes free level */
1400:Drivers/STM32F1xx_HAL_Driver/Src/stm32f1xx_hal_can.c ****   return freelevel;
 1373              		.loc 1 1400 3 is_stmt 1 view .LVU441
 1374              	.L110:
1401:Drivers/STM32F1xx_HAL_Driver/Src/stm32f1xx_hal_can.c **** }
 1375              		.loc 1 1401 1 is_stmt 0 view .LVU442
 1376 000e 7047     		bx	lr
 1377              	.LVL96:
 1378              	.L116:
1381:Drivers/STM32F1xx_HAL_Driver/Src/stm32f1xx_hal_can.c ****     {
 1379              		.loc 1 1381 5 is_stmt 1 view .LVU443
1381:Drivers/STM32F1xx_HAL_Driver/Src/stm32f1xx_hal_can.c ****     {
 1380              		.loc 1 1381 14 is_stmt 0 view .LVU444
 1381 0010 0368     		ldr	r3, [r0]
ARM GAS  C:\Users\Rick\AppData\Local\Temp\ccbuSalp.s 			page 54


1381:Drivers/STM32F1xx_HAL_Driver/Src/stm32f1xx_hal_can.c ****     {
 1382              		.loc 1 1381 24 view .LVU445
 1383 0012 9868     		ldr	r0, [r3, #8]
 1384              	.LVL97:
1381:Drivers/STM32F1xx_HAL_Driver/Src/stm32f1xx_hal_can.c ****     {
 1385              		.loc 1 1381 8 view .LVU446
 1386 0014 10F08060 		ands	r0, r0, #67108864
 1387 0018 00D0     		beq	.L112
1383:Drivers/STM32F1xx_HAL_Driver/Src/stm32f1xx_hal_can.c ****     }
 1388              		.loc 1 1383 16 view .LVU447
 1389 001a 0120     		movs	r0, #1
 1390              	.L112:
 1391              	.LVL98:
1387:Drivers/STM32F1xx_HAL_Driver/Src/stm32f1xx_hal_can.c ****     {
 1392              		.loc 1 1387 5 is_stmt 1 view .LVU448
1387:Drivers/STM32F1xx_HAL_Driver/Src/stm32f1xx_hal_can.c ****     {
 1393              		.loc 1 1387 24 is_stmt 0 view .LVU449
 1394 001c 9A68     		ldr	r2, [r3, #8]
1387:Drivers/STM32F1xx_HAL_Driver/Src/stm32f1xx_hal_can.c ****     {
 1395              		.loc 1 1387 8 view .LVU450
 1396 001e 12F0006F 		tst	r2, #134217728
 1397 0022 00D0     		beq	.L113
1389:Drivers/STM32F1xx_HAL_Driver/Src/stm32f1xx_hal_can.c ****     }
 1398              		.loc 1 1389 7 is_stmt 1 view .LVU451
1389:Drivers/STM32F1xx_HAL_Driver/Src/stm32f1xx_hal_can.c ****     }
 1399              		.loc 1 1389 16 is_stmt 0 view .LVU452
 1400 0024 0130     		adds	r0, r0, #1
 1401              	.LVL99:
 1402              	.L113:
1393:Drivers/STM32F1xx_HAL_Driver/Src/stm32f1xx_hal_can.c ****     {
 1403              		.loc 1 1393 5 is_stmt 1 view .LVU453
1393:Drivers/STM32F1xx_HAL_Driver/Src/stm32f1xx_hal_can.c ****     {
 1404              		.loc 1 1393 24 is_stmt 0 view .LVU454
 1405 0026 9B68     		ldr	r3, [r3, #8]
1393:Drivers/STM32F1xx_HAL_Driver/Src/stm32f1xx_hal_can.c ****     {
 1406              		.loc 1 1393 8 view .LVU455
 1407 0028 13F0805F 		tst	r3, #268435456
 1408 002c EFD0     		beq	.L110
1395:Drivers/STM32F1xx_HAL_Driver/Src/stm32f1xx_hal_can.c ****     }
 1409              		.loc 1 1395 7 is_stmt 1 view .LVU456
1395:Drivers/STM32F1xx_HAL_Driver/Src/stm32f1xx_hal_can.c ****     }
 1410              		.loc 1 1395 16 is_stmt 0 view .LVU457
 1411 002e 0130     		adds	r0, r0, #1
 1412              	.LVL100:
1395:Drivers/STM32F1xx_HAL_Driver/Src/stm32f1xx_hal_can.c ****     }
 1413              		.loc 1 1395 16 view .LVU458
 1414 0030 7047     		bx	lr
 1415              		.cfi_endproc
 1416              	.LFE77:
 1418              		.section	.text.HAL_CAN_IsTxMessagePending,"ax",%progbits
 1419              		.align	1
 1420              		.global	HAL_CAN_IsTxMessagePending
 1421              		.syntax unified
 1422              		.thumb
 1423              		.thumb_func
 1425              	HAL_CAN_IsTxMessagePending:
 1426              	.LVL101:
ARM GAS  C:\Users\Rick\AppData\Local\Temp\ccbuSalp.s 			page 55


 1427              	.LFB78:
1402:Drivers/STM32F1xx_HAL_Driver/Src/stm32f1xx_hal_can.c **** 
1403:Drivers/STM32F1xx_HAL_Driver/Src/stm32f1xx_hal_can.c **** /**
1404:Drivers/STM32F1xx_HAL_Driver/Src/stm32f1xx_hal_can.c ****   * @brief  Check if a transmission request is pending on the selected Tx
1405:Drivers/STM32F1xx_HAL_Driver/Src/stm32f1xx_hal_can.c ****   *         Mailboxes.
1406:Drivers/STM32F1xx_HAL_Driver/Src/stm32f1xx_hal_can.c ****   * @param  hcan pointer to an CAN_HandleTypeDef structure that contains
1407:Drivers/STM32F1xx_HAL_Driver/Src/stm32f1xx_hal_can.c ****   *         the configuration information for the specified CAN.
1408:Drivers/STM32F1xx_HAL_Driver/Src/stm32f1xx_hal_can.c ****   * @param  TxMailboxes List of Tx Mailboxes to check.
1409:Drivers/STM32F1xx_HAL_Driver/Src/stm32f1xx_hal_can.c ****   *         This parameter can be any combination of @arg CAN_Tx_Mailboxes.
1410:Drivers/STM32F1xx_HAL_Driver/Src/stm32f1xx_hal_can.c ****   * @retval Status
1411:Drivers/STM32F1xx_HAL_Driver/Src/stm32f1xx_hal_can.c ****   *          - 0 : No pending transmission request on any selected Tx Mailboxes.
1412:Drivers/STM32F1xx_HAL_Driver/Src/stm32f1xx_hal_can.c ****   *          - 1 : Pending transmission request on at least one of the selected
1413:Drivers/STM32F1xx_HAL_Driver/Src/stm32f1xx_hal_can.c ****   *                Tx Mailbox.
1414:Drivers/STM32F1xx_HAL_Driver/Src/stm32f1xx_hal_can.c ****   */
1415:Drivers/STM32F1xx_HAL_Driver/Src/stm32f1xx_hal_can.c **** uint32_t HAL_CAN_IsTxMessagePending(const CAN_HandleTypeDef *hcan, uint32_t TxMailboxes)
1416:Drivers/STM32F1xx_HAL_Driver/Src/stm32f1xx_hal_can.c **** {
 1428              		.loc 1 1416 1 is_stmt 1 view -0
 1429              		.cfi_startproc
 1430              		@ args = 0, pretend = 0, frame = 0
 1431              		@ frame_needed = 0, uses_anonymous_args = 0
 1432              		@ link register save eliminated.
1417:Drivers/STM32F1xx_HAL_Driver/Src/stm32f1xx_hal_can.c ****   uint32_t status = 0U;
 1433              		.loc 1 1417 3 view .LVU460
1418:Drivers/STM32F1xx_HAL_Driver/Src/stm32f1xx_hal_can.c ****   HAL_CAN_StateTypeDef state = hcan->State;
 1434              		.loc 1 1418 3 view .LVU461
 1435              		.loc 1 1418 24 is_stmt 0 view .LVU462
 1436 0000 90F82030 		ldrb	r3, [r0, #32]	@ zero_extendqisi2
 1437              	.LVL102:
1419:Drivers/STM32F1xx_HAL_Driver/Src/stm32f1xx_hal_can.c **** 
1420:Drivers/STM32F1xx_HAL_Driver/Src/stm32f1xx_hal_can.c ****   /* Check function parameters */
1421:Drivers/STM32F1xx_HAL_Driver/Src/stm32f1xx_hal_can.c ****   assert_param(IS_CAN_TX_MAILBOX_LIST(TxMailboxes));
 1438              		.loc 1 1421 3 is_stmt 1 view .LVU463
1422:Drivers/STM32F1xx_HAL_Driver/Src/stm32f1xx_hal_can.c **** 
1423:Drivers/STM32F1xx_HAL_Driver/Src/stm32f1xx_hal_can.c ****   if ((state == HAL_CAN_STATE_READY) ||
 1439              		.loc 1 1423 3 view .LVU464
 1440              		.loc 1 1423 38 is_stmt 0 view .LVU465
 1441 0004 013B     		subs	r3, r3, #1
 1442              	.LVL103:
 1443              		.loc 1 1423 38 view .LVU466
 1444 0006 DBB2     		uxtb	r3, r3
 1445              		.loc 1 1423 6 view .LVU467
 1446 0008 012B     		cmp	r3, #1
 1447 000a 01D9     		bls	.L121
1417:Drivers/STM32F1xx_HAL_Driver/Src/stm32f1xx_hal_can.c ****   HAL_CAN_StateTypeDef state = hcan->State;
 1448              		.loc 1 1417 12 view .LVU468
 1449 000c 0020     		movs	r0, #0
 1450              	.LVL104:
1417:Drivers/STM32F1xx_HAL_Driver/Src/stm32f1xx_hal_can.c ****   HAL_CAN_StateTypeDef state = hcan->State;
 1451              		.loc 1 1417 12 view .LVU469
 1452 000e 7047     		bx	lr
 1453              	.LVL105:
 1454              	.L121:
1424:Drivers/STM32F1xx_HAL_Driver/Src/stm32f1xx_hal_can.c ****       (state == HAL_CAN_STATE_LISTENING))
1425:Drivers/STM32F1xx_HAL_Driver/Src/stm32f1xx_hal_can.c ****   {
1426:Drivers/STM32F1xx_HAL_Driver/Src/stm32f1xx_hal_can.c ****     /* Check pending transmission request on the selected Tx Mailboxes */
1427:Drivers/STM32F1xx_HAL_Driver/Src/stm32f1xx_hal_can.c ****     if ((hcan->Instance->TSR & (TxMailboxes << CAN_TSR_TME0_Pos)) != (TxMailboxes << CAN_TSR_TME0_P
 1455              		.loc 1 1427 5 is_stmt 1 view .LVU470
ARM GAS  C:\Users\Rick\AppData\Local\Temp\ccbuSalp.s 			page 56


 1456              		.loc 1 1427 14 is_stmt 0 view .LVU471
 1457 0010 0368     		ldr	r3, [r0]
 1458              		.loc 1 1427 24 view .LVU472
 1459 0012 9B68     		ldr	r3, [r3, #8]
 1460              		.loc 1 1427 30 view .LVU473
 1461 0014 03EA8163 		and	r3, r3, r1, lsl #26
 1462              		.loc 1 1427 8 view .LVU474
 1463 0018 B3EB816F 		cmp	r3, r1, lsl #26
 1464 001c 01D0     		beq	.L122
1428:Drivers/STM32F1xx_HAL_Driver/Src/stm32f1xx_hal_can.c ****     {
1429:Drivers/STM32F1xx_HAL_Driver/Src/stm32f1xx_hal_can.c ****       status = 1U;
 1465              		.loc 1 1429 14 view .LVU475
 1466 001e 0120     		movs	r0, #1
 1467              	.LVL106:
1430:Drivers/STM32F1xx_HAL_Driver/Src/stm32f1xx_hal_can.c ****     }
1431:Drivers/STM32F1xx_HAL_Driver/Src/stm32f1xx_hal_can.c ****   }
1432:Drivers/STM32F1xx_HAL_Driver/Src/stm32f1xx_hal_can.c **** 
1433:Drivers/STM32F1xx_HAL_Driver/Src/stm32f1xx_hal_can.c ****   /* Return status */
1434:Drivers/STM32F1xx_HAL_Driver/Src/stm32f1xx_hal_can.c ****   return status;
 1468              		.loc 1 1434 3 is_stmt 1 view .LVU476
1435:Drivers/STM32F1xx_HAL_Driver/Src/stm32f1xx_hal_can.c **** }
 1469              		.loc 1 1435 1 is_stmt 0 view .LVU477
 1470 0020 7047     		bx	lr
 1471              	.LVL107:
 1472              	.L122:
1417:Drivers/STM32F1xx_HAL_Driver/Src/stm32f1xx_hal_can.c ****   HAL_CAN_StateTypeDef state = hcan->State;
 1473              		.loc 1 1417 12 view .LVU478
 1474 0022 0020     		movs	r0, #0
 1475              	.LVL108:
1417:Drivers/STM32F1xx_HAL_Driver/Src/stm32f1xx_hal_can.c ****   HAL_CAN_StateTypeDef state = hcan->State;
 1476              		.loc 1 1417 12 view .LVU479
 1477 0024 7047     		bx	lr
 1478              		.cfi_endproc
 1479              	.LFE78:
 1481              		.section	.text.HAL_CAN_GetTxTimestamp,"ax",%progbits
 1482              		.align	1
 1483              		.global	HAL_CAN_GetTxTimestamp
 1484              		.syntax unified
 1485              		.thumb
 1486              		.thumb_func
 1488              	HAL_CAN_GetTxTimestamp:
 1489              	.LVL109:
 1490              	.LFB79:
1436:Drivers/STM32F1xx_HAL_Driver/Src/stm32f1xx_hal_can.c **** 
1437:Drivers/STM32F1xx_HAL_Driver/Src/stm32f1xx_hal_can.c **** /**
1438:Drivers/STM32F1xx_HAL_Driver/Src/stm32f1xx_hal_can.c ****   * @brief  Return timestamp of Tx message sent, if time triggered communication
1439:Drivers/STM32F1xx_HAL_Driver/Src/stm32f1xx_hal_can.c ****             mode is enabled.
1440:Drivers/STM32F1xx_HAL_Driver/Src/stm32f1xx_hal_can.c ****   * @param  hcan pointer to a CAN_HandleTypeDef structure that contains
1441:Drivers/STM32F1xx_HAL_Driver/Src/stm32f1xx_hal_can.c ****   *         the configuration information for the specified CAN.
1442:Drivers/STM32F1xx_HAL_Driver/Src/stm32f1xx_hal_can.c ****   * @param  TxMailbox Tx Mailbox where the timestamp of message sent will be
1443:Drivers/STM32F1xx_HAL_Driver/Src/stm32f1xx_hal_can.c ****   *         read.
1444:Drivers/STM32F1xx_HAL_Driver/Src/stm32f1xx_hal_can.c ****   *         This parameter can be one value of @arg CAN_Tx_Mailboxes.
1445:Drivers/STM32F1xx_HAL_Driver/Src/stm32f1xx_hal_can.c ****   * @retval Timestamp of message sent from Tx Mailbox.
1446:Drivers/STM32F1xx_HAL_Driver/Src/stm32f1xx_hal_can.c ****   */
1447:Drivers/STM32F1xx_HAL_Driver/Src/stm32f1xx_hal_can.c **** uint32_t HAL_CAN_GetTxTimestamp(const CAN_HandleTypeDef *hcan, uint32_t TxMailbox)
1448:Drivers/STM32F1xx_HAL_Driver/Src/stm32f1xx_hal_can.c **** {
 1491              		.loc 1 1448 1 is_stmt 1 view -0
ARM GAS  C:\Users\Rick\AppData\Local\Temp\ccbuSalp.s 			page 57


 1492              		.cfi_startproc
 1493              		@ args = 0, pretend = 0, frame = 0
 1494              		@ frame_needed = 0, uses_anonymous_args = 0
 1495              		@ link register save eliminated.
1449:Drivers/STM32F1xx_HAL_Driver/Src/stm32f1xx_hal_can.c ****   uint32_t timestamp = 0U;
 1496              		.loc 1 1449 3 view .LVU481
1450:Drivers/STM32F1xx_HAL_Driver/Src/stm32f1xx_hal_can.c ****   uint32_t transmitmailbox;
 1497              		.loc 1 1450 3 view .LVU482
1451:Drivers/STM32F1xx_HAL_Driver/Src/stm32f1xx_hal_can.c ****   HAL_CAN_StateTypeDef state = hcan->State;
 1498              		.loc 1 1451 3 view .LVU483
 1499              		.loc 1 1451 24 is_stmt 0 view .LVU484
 1500 0000 90F82030 		ldrb	r3, [r0, #32]	@ zero_extendqisi2
 1501              	.LVL110:
1452:Drivers/STM32F1xx_HAL_Driver/Src/stm32f1xx_hal_can.c **** 
1453:Drivers/STM32F1xx_HAL_Driver/Src/stm32f1xx_hal_can.c ****   /* Check function parameters */
1454:Drivers/STM32F1xx_HAL_Driver/Src/stm32f1xx_hal_can.c ****   assert_param(IS_CAN_TX_MAILBOX(TxMailbox));
 1502              		.loc 1 1454 3 is_stmt 1 view .LVU485
1455:Drivers/STM32F1xx_HAL_Driver/Src/stm32f1xx_hal_can.c **** 
1456:Drivers/STM32F1xx_HAL_Driver/Src/stm32f1xx_hal_can.c ****   if ((state == HAL_CAN_STATE_READY) ||
 1503              		.loc 1 1456 3 view .LVU486
 1504              		.loc 1 1456 38 is_stmt 0 view .LVU487
 1505 0004 013B     		subs	r3, r3, #1
 1506              	.LVL111:
 1507              		.loc 1 1456 38 view .LVU488
 1508 0006 DBB2     		uxtb	r3, r3
 1509              		.loc 1 1456 6 view .LVU489
 1510 0008 012B     		cmp	r3, #1
 1511 000a 01D9     		bls	.L126
1449:Drivers/STM32F1xx_HAL_Driver/Src/stm32f1xx_hal_can.c ****   uint32_t transmitmailbox;
 1512              		.loc 1 1449 12 view .LVU490
 1513 000c 0020     		movs	r0, #0
 1514              	.LVL112:
1457:Drivers/STM32F1xx_HAL_Driver/Src/stm32f1xx_hal_can.c ****       (state == HAL_CAN_STATE_LISTENING))
1458:Drivers/STM32F1xx_HAL_Driver/Src/stm32f1xx_hal_can.c ****   {
1459:Drivers/STM32F1xx_HAL_Driver/Src/stm32f1xx_hal_can.c ****     /* Select the Tx mailbox */
1460:Drivers/STM32F1xx_HAL_Driver/Src/stm32f1xx_hal_can.c ****     transmitmailbox = POSITION_VAL(TxMailbox);
1461:Drivers/STM32F1xx_HAL_Driver/Src/stm32f1xx_hal_can.c **** 
1462:Drivers/STM32F1xx_HAL_Driver/Src/stm32f1xx_hal_can.c ****     /* Get timestamp */
1463:Drivers/STM32F1xx_HAL_Driver/Src/stm32f1xx_hal_can.c ****     timestamp = (hcan->Instance->sTxMailBox[transmitmailbox].TDTR & CAN_TDT0R_TIME) >> CAN_TDT0R_TI
1464:Drivers/STM32F1xx_HAL_Driver/Src/stm32f1xx_hal_can.c ****   }
1465:Drivers/STM32F1xx_HAL_Driver/Src/stm32f1xx_hal_can.c **** 
1466:Drivers/STM32F1xx_HAL_Driver/Src/stm32f1xx_hal_can.c ****   /* Return the timestamp */
1467:Drivers/STM32F1xx_HAL_Driver/Src/stm32f1xx_hal_can.c ****   return timestamp;
 1515              		.loc 1 1467 3 is_stmt 1 view .LVU491
1468:Drivers/STM32F1xx_HAL_Driver/Src/stm32f1xx_hal_can.c **** }
 1516              		.loc 1 1468 1 is_stmt 0 view .LVU492
 1517 000e 7047     		bx	lr
 1518              	.LVL113:
 1519              	.L126:
1460:Drivers/STM32F1xx_HAL_Driver/Src/stm32f1xx_hal_can.c **** 
 1520              		.loc 1 1460 5 is_stmt 1 view .LVU493
 1521              	.LBB4:
 1522              	.LBI4:
 1523              		.file 2 "Drivers/CMSIS/Include/cmsis_gcc.h"
   1:Drivers/CMSIS/Include/cmsis_gcc.h **** /**************************************************************************//**
   2:Drivers/CMSIS/Include/cmsis_gcc.h ****  * @file     cmsis_gcc.h
   3:Drivers/CMSIS/Include/cmsis_gcc.h ****  * @brief    CMSIS compiler GCC header file
ARM GAS  C:\Users\Rick\AppData\Local\Temp\ccbuSalp.s 			page 58


   4:Drivers/CMSIS/Include/cmsis_gcc.h ****  * @version  V5.0.4
   5:Drivers/CMSIS/Include/cmsis_gcc.h ****  * @date     09. April 2018
   6:Drivers/CMSIS/Include/cmsis_gcc.h ****  ******************************************************************************/
   7:Drivers/CMSIS/Include/cmsis_gcc.h **** /*
   8:Drivers/CMSIS/Include/cmsis_gcc.h ****  * Copyright (c) 2009-2018 Arm Limited. All rights reserved.
   9:Drivers/CMSIS/Include/cmsis_gcc.h ****  *
  10:Drivers/CMSIS/Include/cmsis_gcc.h ****  * SPDX-License-Identifier: Apache-2.0
  11:Drivers/CMSIS/Include/cmsis_gcc.h ****  *
  12:Drivers/CMSIS/Include/cmsis_gcc.h ****  * Licensed under the Apache License, Version 2.0 (the License); you may
  13:Drivers/CMSIS/Include/cmsis_gcc.h ****  * not use this file except in compliance with the License.
  14:Drivers/CMSIS/Include/cmsis_gcc.h ****  * You may obtain a copy of the License at
  15:Drivers/CMSIS/Include/cmsis_gcc.h ****  *
  16:Drivers/CMSIS/Include/cmsis_gcc.h ****  * www.apache.org/licenses/LICENSE-2.0
  17:Drivers/CMSIS/Include/cmsis_gcc.h ****  *
  18:Drivers/CMSIS/Include/cmsis_gcc.h ****  * Unless required by applicable law or agreed to in writing, software
  19:Drivers/CMSIS/Include/cmsis_gcc.h ****  * distributed under the License is distributed on an AS IS BASIS, WITHOUT
  20:Drivers/CMSIS/Include/cmsis_gcc.h ****  * WARRANTIES OR CONDITIONS OF ANY KIND, either express or implied.
  21:Drivers/CMSIS/Include/cmsis_gcc.h ****  * See the License for the specific language governing permissions and
  22:Drivers/CMSIS/Include/cmsis_gcc.h ****  * limitations under the License.
  23:Drivers/CMSIS/Include/cmsis_gcc.h ****  */
  24:Drivers/CMSIS/Include/cmsis_gcc.h **** 
  25:Drivers/CMSIS/Include/cmsis_gcc.h **** #ifndef __CMSIS_GCC_H
  26:Drivers/CMSIS/Include/cmsis_gcc.h **** #define __CMSIS_GCC_H
  27:Drivers/CMSIS/Include/cmsis_gcc.h **** 
  28:Drivers/CMSIS/Include/cmsis_gcc.h **** /* ignore some GCC warnings */
  29:Drivers/CMSIS/Include/cmsis_gcc.h **** #pragma GCC diagnostic push
  30:Drivers/CMSIS/Include/cmsis_gcc.h **** #pragma GCC diagnostic ignored "-Wsign-conversion"
  31:Drivers/CMSIS/Include/cmsis_gcc.h **** #pragma GCC diagnostic ignored "-Wconversion"
  32:Drivers/CMSIS/Include/cmsis_gcc.h **** #pragma GCC diagnostic ignored "-Wunused-parameter"
  33:Drivers/CMSIS/Include/cmsis_gcc.h **** 
  34:Drivers/CMSIS/Include/cmsis_gcc.h **** /* Fallback for __has_builtin */
  35:Drivers/CMSIS/Include/cmsis_gcc.h **** #ifndef __has_builtin
  36:Drivers/CMSIS/Include/cmsis_gcc.h ****   #define __has_builtin(x) (0)
  37:Drivers/CMSIS/Include/cmsis_gcc.h **** #endif
  38:Drivers/CMSIS/Include/cmsis_gcc.h **** 
  39:Drivers/CMSIS/Include/cmsis_gcc.h **** /* CMSIS compiler specific defines */
  40:Drivers/CMSIS/Include/cmsis_gcc.h **** #ifndef   __ASM
  41:Drivers/CMSIS/Include/cmsis_gcc.h ****   #define __ASM                                  __asm
  42:Drivers/CMSIS/Include/cmsis_gcc.h **** #endif
  43:Drivers/CMSIS/Include/cmsis_gcc.h **** #ifndef   __INLINE
  44:Drivers/CMSIS/Include/cmsis_gcc.h ****   #define __INLINE                               inline
  45:Drivers/CMSIS/Include/cmsis_gcc.h **** #endif
  46:Drivers/CMSIS/Include/cmsis_gcc.h **** #ifndef   __STATIC_INLINE
  47:Drivers/CMSIS/Include/cmsis_gcc.h ****   #define __STATIC_INLINE                        static inline
  48:Drivers/CMSIS/Include/cmsis_gcc.h **** #endif
  49:Drivers/CMSIS/Include/cmsis_gcc.h **** #ifndef   __STATIC_FORCEINLINE                 
  50:Drivers/CMSIS/Include/cmsis_gcc.h ****   #define __STATIC_FORCEINLINE                   __attribute__((always_inline)) static inline
  51:Drivers/CMSIS/Include/cmsis_gcc.h **** #endif                                           
  52:Drivers/CMSIS/Include/cmsis_gcc.h **** #ifndef   __NO_RETURN
  53:Drivers/CMSIS/Include/cmsis_gcc.h ****   #define __NO_RETURN                            __attribute__((__noreturn__))
  54:Drivers/CMSIS/Include/cmsis_gcc.h **** #endif
  55:Drivers/CMSIS/Include/cmsis_gcc.h **** #ifndef   __USED
  56:Drivers/CMSIS/Include/cmsis_gcc.h ****   #define __USED                                 __attribute__((used))
  57:Drivers/CMSIS/Include/cmsis_gcc.h **** #endif
  58:Drivers/CMSIS/Include/cmsis_gcc.h **** #ifndef   __WEAK
  59:Drivers/CMSIS/Include/cmsis_gcc.h ****   #define __WEAK                                 __attribute__((weak))
  60:Drivers/CMSIS/Include/cmsis_gcc.h **** #endif
ARM GAS  C:\Users\Rick\AppData\Local\Temp\ccbuSalp.s 			page 59


  61:Drivers/CMSIS/Include/cmsis_gcc.h **** #ifndef   __PACKED
  62:Drivers/CMSIS/Include/cmsis_gcc.h ****   #define __PACKED                               __attribute__((packed, aligned(1)))
  63:Drivers/CMSIS/Include/cmsis_gcc.h **** #endif
  64:Drivers/CMSIS/Include/cmsis_gcc.h **** #ifndef   __PACKED_STRUCT
  65:Drivers/CMSIS/Include/cmsis_gcc.h ****   #define __PACKED_STRUCT                        struct __attribute__((packed, aligned(1)))
  66:Drivers/CMSIS/Include/cmsis_gcc.h **** #endif
  67:Drivers/CMSIS/Include/cmsis_gcc.h **** #ifndef   __PACKED_UNION
  68:Drivers/CMSIS/Include/cmsis_gcc.h ****   #define __PACKED_UNION                         union __attribute__((packed, aligned(1)))
  69:Drivers/CMSIS/Include/cmsis_gcc.h **** #endif
  70:Drivers/CMSIS/Include/cmsis_gcc.h **** #ifndef   __UNALIGNED_UINT32        /* deprecated */
  71:Drivers/CMSIS/Include/cmsis_gcc.h ****   #pragma GCC diagnostic push
  72:Drivers/CMSIS/Include/cmsis_gcc.h ****   #pragma GCC diagnostic ignored "-Wpacked"
  73:Drivers/CMSIS/Include/cmsis_gcc.h ****   #pragma GCC diagnostic ignored "-Wattributes"
  74:Drivers/CMSIS/Include/cmsis_gcc.h ****   struct __attribute__((packed)) T_UINT32 { uint32_t v; };
  75:Drivers/CMSIS/Include/cmsis_gcc.h ****   #pragma GCC diagnostic pop
  76:Drivers/CMSIS/Include/cmsis_gcc.h ****   #define __UNALIGNED_UINT32(x)                  (((struct T_UINT32 *)(x))->v)
  77:Drivers/CMSIS/Include/cmsis_gcc.h **** #endif
  78:Drivers/CMSIS/Include/cmsis_gcc.h **** #ifndef   __UNALIGNED_UINT16_WRITE
  79:Drivers/CMSIS/Include/cmsis_gcc.h ****   #pragma GCC diagnostic push
  80:Drivers/CMSIS/Include/cmsis_gcc.h ****   #pragma GCC diagnostic ignored "-Wpacked"
  81:Drivers/CMSIS/Include/cmsis_gcc.h ****   #pragma GCC diagnostic ignored "-Wattributes"
  82:Drivers/CMSIS/Include/cmsis_gcc.h ****   __PACKED_STRUCT T_UINT16_WRITE { uint16_t v; };
  83:Drivers/CMSIS/Include/cmsis_gcc.h ****   #pragma GCC diagnostic pop
  84:Drivers/CMSIS/Include/cmsis_gcc.h ****   #define __UNALIGNED_UINT16_WRITE(addr, val)    (void)((((struct T_UINT16_WRITE *)(void *)(addr))-
  85:Drivers/CMSIS/Include/cmsis_gcc.h **** #endif
  86:Drivers/CMSIS/Include/cmsis_gcc.h **** #ifndef   __UNALIGNED_UINT16_READ
  87:Drivers/CMSIS/Include/cmsis_gcc.h ****   #pragma GCC diagnostic push
  88:Drivers/CMSIS/Include/cmsis_gcc.h ****   #pragma GCC diagnostic ignored "-Wpacked"
  89:Drivers/CMSIS/Include/cmsis_gcc.h ****   #pragma GCC diagnostic ignored "-Wattributes"
  90:Drivers/CMSIS/Include/cmsis_gcc.h ****   __PACKED_STRUCT T_UINT16_READ { uint16_t v; };
  91:Drivers/CMSIS/Include/cmsis_gcc.h ****   #pragma GCC diagnostic pop
  92:Drivers/CMSIS/Include/cmsis_gcc.h ****   #define __UNALIGNED_UINT16_READ(addr)          (((const struct T_UINT16_READ *)(const void *)(add
  93:Drivers/CMSIS/Include/cmsis_gcc.h **** #endif
  94:Drivers/CMSIS/Include/cmsis_gcc.h **** #ifndef   __UNALIGNED_UINT32_WRITE
  95:Drivers/CMSIS/Include/cmsis_gcc.h ****   #pragma GCC diagnostic push
  96:Drivers/CMSIS/Include/cmsis_gcc.h ****   #pragma GCC diagnostic ignored "-Wpacked"
  97:Drivers/CMSIS/Include/cmsis_gcc.h ****   #pragma GCC diagnostic ignored "-Wattributes"
  98:Drivers/CMSIS/Include/cmsis_gcc.h ****   __PACKED_STRUCT T_UINT32_WRITE { uint32_t v; };
  99:Drivers/CMSIS/Include/cmsis_gcc.h ****   #pragma GCC diagnostic pop
 100:Drivers/CMSIS/Include/cmsis_gcc.h ****   #define __UNALIGNED_UINT32_WRITE(addr, val)    (void)((((struct T_UINT32_WRITE *)(void *)(addr))-
 101:Drivers/CMSIS/Include/cmsis_gcc.h **** #endif
 102:Drivers/CMSIS/Include/cmsis_gcc.h **** #ifndef   __UNALIGNED_UINT32_READ
 103:Drivers/CMSIS/Include/cmsis_gcc.h ****   #pragma GCC diagnostic push
 104:Drivers/CMSIS/Include/cmsis_gcc.h ****   #pragma GCC diagnostic ignored "-Wpacked"
 105:Drivers/CMSIS/Include/cmsis_gcc.h ****   #pragma GCC diagnostic ignored "-Wattributes"
 106:Drivers/CMSIS/Include/cmsis_gcc.h ****   __PACKED_STRUCT T_UINT32_READ { uint32_t v; };
 107:Drivers/CMSIS/Include/cmsis_gcc.h ****   #pragma GCC diagnostic pop
 108:Drivers/CMSIS/Include/cmsis_gcc.h ****   #define __UNALIGNED_UINT32_READ(addr)          (((const struct T_UINT32_READ *)(const void *)(add
 109:Drivers/CMSIS/Include/cmsis_gcc.h **** #endif
 110:Drivers/CMSIS/Include/cmsis_gcc.h **** #ifndef   __ALIGNED
 111:Drivers/CMSIS/Include/cmsis_gcc.h ****   #define __ALIGNED(x)                           __attribute__((aligned(x)))
 112:Drivers/CMSIS/Include/cmsis_gcc.h **** #endif
 113:Drivers/CMSIS/Include/cmsis_gcc.h **** #ifndef   __RESTRICT
 114:Drivers/CMSIS/Include/cmsis_gcc.h ****   #define __RESTRICT                             __restrict
 115:Drivers/CMSIS/Include/cmsis_gcc.h **** #endif
 116:Drivers/CMSIS/Include/cmsis_gcc.h **** 
 117:Drivers/CMSIS/Include/cmsis_gcc.h **** 
ARM GAS  C:\Users\Rick\AppData\Local\Temp\ccbuSalp.s 			page 60


 118:Drivers/CMSIS/Include/cmsis_gcc.h **** /* ###########################  Core Function Access  ########################### */
 119:Drivers/CMSIS/Include/cmsis_gcc.h **** /** \ingroup  CMSIS_Core_FunctionInterface
 120:Drivers/CMSIS/Include/cmsis_gcc.h ****     \defgroup CMSIS_Core_RegAccFunctions CMSIS Core Register Access Functions
 121:Drivers/CMSIS/Include/cmsis_gcc.h ****   @{
 122:Drivers/CMSIS/Include/cmsis_gcc.h ****  */
 123:Drivers/CMSIS/Include/cmsis_gcc.h **** 
 124:Drivers/CMSIS/Include/cmsis_gcc.h **** /**
 125:Drivers/CMSIS/Include/cmsis_gcc.h ****   \brief   Enable IRQ Interrupts
 126:Drivers/CMSIS/Include/cmsis_gcc.h ****   \details Enables IRQ interrupts by clearing the I-bit in the CPSR.
 127:Drivers/CMSIS/Include/cmsis_gcc.h ****            Can only be executed in Privileged modes.
 128:Drivers/CMSIS/Include/cmsis_gcc.h ****  */
 129:Drivers/CMSIS/Include/cmsis_gcc.h **** __STATIC_FORCEINLINE void __enable_irq(void)
 130:Drivers/CMSIS/Include/cmsis_gcc.h **** {
 131:Drivers/CMSIS/Include/cmsis_gcc.h ****   __ASM volatile ("cpsie i" : : : "memory");
 132:Drivers/CMSIS/Include/cmsis_gcc.h **** }
 133:Drivers/CMSIS/Include/cmsis_gcc.h **** 
 134:Drivers/CMSIS/Include/cmsis_gcc.h **** 
 135:Drivers/CMSIS/Include/cmsis_gcc.h **** /**
 136:Drivers/CMSIS/Include/cmsis_gcc.h ****   \brief   Disable IRQ Interrupts
 137:Drivers/CMSIS/Include/cmsis_gcc.h ****   \details Disables IRQ interrupts by setting the I-bit in the CPSR.
 138:Drivers/CMSIS/Include/cmsis_gcc.h ****            Can only be executed in Privileged modes.
 139:Drivers/CMSIS/Include/cmsis_gcc.h ****  */
 140:Drivers/CMSIS/Include/cmsis_gcc.h **** __STATIC_FORCEINLINE void __disable_irq(void)
 141:Drivers/CMSIS/Include/cmsis_gcc.h **** {
 142:Drivers/CMSIS/Include/cmsis_gcc.h ****   __ASM volatile ("cpsid i" : : : "memory");
 143:Drivers/CMSIS/Include/cmsis_gcc.h **** }
 144:Drivers/CMSIS/Include/cmsis_gcc.h **** 
 145:Drivers/CMSIS/Include/cmsis_gcc.h **** 
 146:Drivers/CMSIS/Include/cmsis_gcc.h **** /**
 147:Drivers/CMSIS/Include/cmsis_gcc.h ****   \brief   Get Control Register
 148:Drivers/CMSIS/Include/cmsis_gcc.h ****   \details Returns the content of the Control Register.
 149:Drivers/CMSIS/Include/cmsis_gcc.h ****   \return               Control Register value
 150:Drivers/CMSIS/Include/cmsis_gcc.h ****  */
 151:Drivers/CMSIS/Include/cmsis_gcc.h **** __STATIC_FORCEINLINE uint32_t __get_CONTROL(void)
 152:Drivers/CMSIS/Include/cmsis_gcc.h **** {
 153:Drivers/CMSIS/Include/cmsis_gcc.h ****   uint32_t result;
 154:Drivers/CMSIS/Include/cmsis_gcc.h **** 
 155:Drivers/CMSIS/Include/cmsis_gcc.h ****   __ASM volatile ("MRS %0, control" : "=r" (result) );
 156:Drivers/CMSIS/Include/cmsis_gcc.h ****   return(result);
 157:Drivers/CMSIS/Include/cmsis_gcc.h **** }
 158:Drivers/CMSIS/Include/cmsis_gcc.h **** 
 159:Drivers/CMSIS/Include/cmsis_gcc.h **** 
 160:Drivers/CMSIS/Include/cmsis_gcc.h **** #if (defined (__ARM_FEATURE_CMSE ) && (__ARM_FEATURE_CMSE == 3))
 161:Drivers/CMSIS/Include/cmsis_gcc.h **** /**
 162:Drivers/CMSIS/Include/cmsis_gcc.h ****   \brief   Get Control Register (non-secure)
 163:Drivers/CMSIS/Include/cmsis_gcc.h ****   \details Returns the content of the non-secure Control Register when in secure mode.
 164:Drivers/CMSIS/Include/cmsis_gcc.h ****   \return               non-secure Control Register value
 165:Drivers/CMSIS/Include/cmsis_gcc.h ****  */
 166:Drivers/CMSIS/Include/cmsis_gcc.h **** __STATIC_FORCEINLINE uint32_t __TZ_get_CONTROL_NS(void)
 167:Drivers/CMSIS/Include/cmsis_gcc.h **** {
 168:Drivers/CMSIS/Include/cmsis_gcc.h ****   uint32_t result;
 169:Drivers/CMSIS/Include/cmsis_gcc.h **** 
 170:Drivers/CMSIS/Include/cmsis_gcc.h ****   __ASM volatile ("MRS %0, control_ns" : "=r" (result) );
 171:Drivers/CMSIS/Include/cmsis_gcc.h ****   return(result);
 172:Drivers/CMSIS/Include/cmsis_gcc.h **** }
 173:Drivers/CMSIS/Include/cmsis_gcc.h **** #endif
 174:Drivers/CMSIS/Include/cmsis_gcc.h **** 
ARM GAS  C:\Users\Rick\AppData\Local\Temp\ccbuSalp.s 			page 61


 175:Drivers/CMSIS/Include/cmsis_gcc.h **** 
 176:Drivers/CMSIS/Include/cmsis_gcc.h **** /**
 177:Drivers/CMSIS/Include/cmsis_gcc.h ****   \brief   Set Control Register
 178:Drivers/CMSIS/Include/cmsis_gcc.h ****   \details Writes the given value to the Control Register.
 179:Drivers/CMSIS/Include/cmsis_gcc.h ****   \param [in]    control  Control Register value to set
 180:Drivers/CMSIS/Include/cmsis_gcc.h ****  */
 181:Drivers/CMSIS/Include/cmsis_gcc.h **** __STATIC_FORCEINLINE void __set_CONTROL(uint32_t control)
 182:Drivers/CMSIS/Include/cmsis_gcc.h **** {
 183:Drivers/CMSIS/Include/cmsis_gcc.h ****   __ASM volatile ("MSR control, %0" : : "r" (control) : "memory");
 184:Drivers/CMSIS/Include/cmsis_gcc.h **** }
 185:Drivers/CMSIS/Include/cmsis_gcc.h **** 
 186:Drivers/CMSIS/Include/cmsis_gcc.h **** 
 187:Drivers/CMSIS/Include/cmsis_gcc.h **** #if (defined (__ARM_FEATURE_CMSE ) && (__ARM_FEATURE_CMSE == 3))
 188:Drivers/CMSIS/Include/cmsis_gcc.h **** /**
 189:Drivers/CMSIS/Include/cmsis_gcc.h ****   \brief   Set Control Register (non-secure)
 190:Drivers/CMSIS/Include/cmsis_gcc.h ****   \details Writes the given value to the non-secure Control Register when in secure state.
 191:Drivers/CMSIS/Include/cmsis_gcc.h ****   \param [in]    control  Control Register value to set
 192:Drivers/CMSIS/Include/cmsis_gcc.h ****  */
 193:Drivers/CMSIS/Include/cmsis_gcc.h **** __STATIC_FORCEINLINE void __TZ_set_CONTROL_NS(uint32_t control)
 194:Drivers/CMSIS/Include/cmsis_gcc.h **** {
 195:Drivers/CMSIS/Include/cmsis_gcc.h ****   __ASM volatile ("MSR control_ns, %0" : : "r" (control) : "memory");
 196:Drivers/CMSIS/Include/cmsis_gcc.h **** }
 197:Drivers/CMSIS/Include/cmsis_gcc.h **** #endif
 198:Drivers/CMSIS/Include/cmsis_gcc.h **** 
 199:Drivers/CMSIS/Include/cmsis_gcc.h **** 
 200:Drivers/CMSIS/Include/cmsis_gcc.h **** /**
 201:Drivers/CMSIS/Include/cmsis_gcc.h ****   \brief   Get IPSR Register
 202:Drivers/CMSIS/Include/cmsis_gcc.h ****   \details Returns the content of the IPSR Register.
 203:Drivers/CMSIS/Include/cmsis_gcc.h ****   \return               IPSR Register value
 204:Drivers/CMSIS/Include/cmsis_gcc.h ****  */
 205:Drivers/CMSIS/Include/cmsis_gcc.h **** __STATIC_FORCEINLINE uint32_t __get_IPSR(void)
 206:Drivers/CMSIS/Include/cmsis_gcc.h **** {
 207:Drivers/CMSIS/Include/cmsis_gcc.h ****   uint32_t result;
 208:Drivers/CMSIS/Include/cmsis_gcc.h **** 
 209:Drivers/CMSIS/Include/cmsis_gcc.h ****   __ASM volatile ("MRS %0, ipsr" : "=r" (result) );
 210:Drivers/CMSIS/Include/cmsis_gcc.h ****   return(result);
 211:Drivers/CMSIS/Include/cmsis_gcc.h **** }
 212:Drivers/CMSIS/Include/cmsis_gcc.h **** 
 213:Drivers/CMSIS/Include/cmsis_gcc.h **** 
 214:Drivers/CMSIS/Include/cmsis_gcc.h **** /**
 215:Drivers/CMSIS/Include/cmsis_gcc.h ****   \brief   Get APSR Register
 216:Drivers/CMSIS/Include/cmsis_gcc.h ****   \details Returns the content of the APSR Register.
 217:Drivers/CMSIS/Include/cmsis_gcc.h ****   \return               APSR Register value
 218:Drivers/CMSIS/Include/cmsis_gcc.h ****  */
 219:Drivers/CMSIS/Include/cmsis_gcc.h **** __STATIC_FORCEINLINE uint32_t __get_APSR(void)
 220:Drivers/CMSIS/Include/cmsis_gcc.h **** {
 221:Drivers/CMSIS/Include/cmsis_gcc.h ****   uint32_t result;
 222:Drivers/CMSIS/Include/cmsis_gcc.h **** 
 223:Drivers/CMSIS/Include/cmsis_gcc.h ****   __ASM volatile ("MRS %0, apsr" : "=r" (result) );
 224:Drivers/CMSIS/Include/cmsis_gcc.h ****   return(result);
 225:Drivers/CMSIS/Include/cmsis_gcc.h **** }
 226:Drivers/CMSIS/Include/cmsis_gcc.h **** 
 227:Drivers/CMSIS/Include/cmsis_gcc.h **** 
 228:Drivers/CMSIS/Include/cmsis_gcc.h **** /**
 229:Drivers/CMSIS/Include/cmsis_gcc.h ****   \brief   Get xPSR Register
 230:Drivers/CMSIS/Include/cmsis_gcc.h ****   \details Returns the content of the xPSR Register.
 231:Drivers/CMSIS/Include/cmsis_gcc.h ****   \return               xPSR Register value
ARM GAS  C:\Users\Rick\AppData\Local\Temp\ccbuSalp.s 			page 62


 232:Drivers/CMSIS/Include/cmsis_gcc.h ****  */
 233:Drivers/CMSIS/Include/cmsis_gcc.h **** __STATIC_FORCEINLINE uint32_t __get_xPSR(void)
 234:Drivers/CMSIS/Include/cmsis_gcc.h **** {
 235:Drivers/CMSIS/Include/cmsis_gcc.h ****   uint32_t result;
 236:Drivers/CMSIS/Include/cmsis_gcc.h **** 
 237:Drivers/CMSIS/Include/cmsis_gcc.h ****   __ASM volatile ("MRS %0, xpsr" : "=r" (result) );
 238:Drivers/CMSIS/Include/cmsis_gcc.h ****   return(result);
 239:Drivers/CMSIS/Include/cmsis_gcc.h **** }
 240:Drivers/CMSIS/Include/cmsis_gcc.h **** 
 241:Drivers/CMSIS/Include/cmsis_gcc.h **** 
 242:Drivers/CMSIS/Include/cmsis_gcc.h **** /**
 243:Drivers/CMSIS/Include/cmsis_gcc.h ****   \brief   Get Process Stack Pointer
 244:Drivers/CMSIS/Include/cmsis_gcc.h ****   \details Returns the current value of the Process Stack Pointer (PSP).
 245:Drivers/CMSIS/Include/cmsis_gcc.h ****   \return               PSP Register value
 246:Drivers/CMSIS/Include/cmsis_gcc.h ****  */
 247:Drivers/CMSIS/Include/cmsis_gcc.h **** __STATIC_FORCEINLINE uint32_t __get_PSP(void)
 248:Drivers/CMSIS/Include/cmsis_gcc.h **** {
 249:Drivers/CMSIS/Include/cmsis_gcc.h ****   uint32_t result;
 250:Drivers/CMSIS/Include/cmsis_gcc.h **** 
 251:Drivers/CMSIS/Include/cmsis_gcc.h ****   __ASM volatile ("MRS %0, psp"  : "=r" (result) );
 252:Drivers/CMSIS/Include/cmsis_gcc.h ****   return(result);
 253:Drivers/CMSIS/Include/cmsis_gcc.h **** }
 254:Drivers/CMSIS/Include/cmsis_gcc.h **** 
 255:Drivers/CMSIS/Include/cmsis_gcc.h **** 
 256:Drivers/CMSIS/Include/cmsis_gcc.h **** #if (defined (__ARM_FEATURE_CMSE ) && (__ARM_FEATURE_CMSE == 3))
 257:Drivers/CMSIS/Include/cmsis_gcc.h **** /**
 258:Drivers/CMSIS/Include/cmsis_gcc.h ****   \brief   Get Process Stack Pointer (non-secure)
 259:Drivers/CMSIS/Include/cmsis_gcc.h ****   \details Returns the current value of the non-secure Process Stack Pointer (PSP) when in secure s
 260:Drivers/CMSIS/Include/cmsis_gcc.h ****   \return               PSP Register value
 261:Drivers/CMSIS/Include/cmsis_gcc.h ****  */
 262:Drivers/CMSIS/Include/cmsis_gcc.h **** __STATIC_FORCEINLINE uint32_t __TZ_get_PSP_NS(void)
 263:Drivers/CMSIS/Include/cmsis_gcc.h **** {
 264:Drivers/CMSIS/Include/cmsis_gcc.h ****   uint32_t result;
 265:Drivers/CMSIS/Include/cmsis_gcc.h **** 
 266:Drivers/CMSIS/Include/cmsis_gcc.h ****   __ASM volatile ("MRS %0, psp_ns"  : "=r" (result) );
 267:Drivers/CMSIS/Include/cmsis_gcc.h ****   return(result);
 268:Drivers/CMSIS/Include/cmsis_gcc.h **** }
 269:Drivers/CMSIS/Include/cmsis_gcc.h **** #endif
 270:Drivers/CMSIS/Include/cmsis_gcc.h **** 
 271:Drivers/CMSIS/Include/cmsis_gcc.h **** 
 272:Drivers/CMSIS/Include/cmsis_gcc.h **** /**
 273:Drivers/CMSIS/Include/cmsis_gcc.h ****   \brief   Set Process Stack Pointer
 274:Drivers/CMSIS/Include/cmsis_gcc.h ****   \details Assigns the given value to the Process Stack Pointer (PSP).
 275:Drivers/CMSIS/Include/cmsis_gcc.h ****   \param [in]    topOfProcStack  Process Stack Pointer value to set
 276:Drivers/CMSIS/Include/cmsis_gcc.h ****  */
 277:Drivers/CMSIS/Include/cmsis_gcc.h **** __STATIC_FORCEINLINE void __set_PSP(uint32_t topOfProcStack)
 278:Drivers/CMSIS/Include/cmsis_gcc.h **** {
 279:Drivers/CMSIS/Include/cmsis_gcc.h ****   __ASM volatile ("MSR psp, %0" : : "r" (topOfProcStack) : );
 280:Drivers/CMSIS/Include/cmsis_gcc.h **** }
 281:Drivers/CMSIS/Include/cmsis_gcc.h **** 
 282:Drivers/CMSIS/Include/cmsis_gcc.h **** 
 283:Drivers/CMSIS/Include/cmsis_gcc.h **** #if (defined (__ARM_FEATURE_CMSE ) && (__ARM_FEATURE_CMSE == 3))
 284:Drivers/CMSIS/Include/cmsis_gcc.h **** /**
 285:Drivers/CMSIS/Include/cmsis_gcc.h ****   \brief   Set Process Stack Pointer (non-secure)
 286:Drivers/CMSIS/Include/cmsis_gcc.h ****   \details Assigns the given value to the non-secure Process Stack Pointer (PSP) when in secure sta
 287:Drivers/CMSIS/Include/cmsis_gcc.h ****   \param [in]    topOfProcStack  Process Stack Pointer value to set
 288:Drivers/CMSIS/Include/cmsis_gcc.h ****  */
ARM GAS  C:\Users\Rick\AppData\Local\Temp\ccbuSalp.s 			page 63


 289:Drivers/CMSIS/Include/cmsis_gcc.h **** __STATIC_FORCEINLINE void __TZ_set_PSP_NS(uint32_t topOfProcStack)
 290:Drivers/CMSIS/Include/cmsis_gcc.h **** {
 291:Drivers/CMSIS/Include/cmsis_gcc.h ****   __ASM volatile ("MSR psp_ns, %0" : : "r" (topOfProcStack) : );
 292:Drivers/CMSIS/Include/cmsis_gcc.h **** }
 293:Drivers/CMSIS/Include/cmsis_gcc.h **** #endif
 294:Drivers/CMSIS/Include/cmsis_gcc.h **** 
 295:Drivers/CMSIS/Include/cmsis_gcc.h **** 
 296:Drivers/CMSIS/Include/cmsis_gcc.h **** /**
 297:Drivers/CMSIS/Include/cmsis_gcc.h ****   \brief   Get Main Stack Pointer
 298:Drivers/CMSIS/Include/cmsis_gcc.h ****   \details Returns the current value of the Main Stack Pointer (MSP).
 299:Drivers/CMSIS/Include/cmsis_gcc.h ****   \return               MSP Register value
 300:Drivers/CMSIS/Include/cmsis_gcc.h ****  */
 301:Drivers/CMSIS/Include/cmsis_gcc.h **** __STATIC_FORCEINLINE uint32_t __get_MSP(void)
 302:Drivers/CMSIS/Include/cmsis_gcc.h **** {
 303:Drivers/CMSIS/Include/cmsis_gcc.h ****   uint32_t result;
 304:Drivers/CMSIS/Include/cmsis_gcc.h **** 
 305:Drivers/CMSIS/Include/cmsis_gcc.h ****   __ASM volatile ("MRS %0, msp" : "=r" (result) );
 306:Drivers/CMSIS/Include/cmsis_gcc.h ****   return(result);
 307:Drivers/CMSIS/Include/cmsis_gcc.h **** }
 308:Drivers/CMSIS/Include/cmsis_gcc.h **** 
 309:Drivers/CMSIS/Include/cmsis_gcc.h **** 
 310:Drivers/CMSIS/Include/cmsis_gcc.h **** #if (defined (__ARM_FEATURE_CMSE ) && (__ARM_FEATURE_CMSE == 3))
 311:Drivers/CMSIS/Include/cmsis_gcc.h **** /**
 312:Drivers/CMSIS/Include/cmsis_gcc.h ****   \brief   Get Main Stack Pointer (non-secure)
 313:Drivers/CMSIS/Include/cmsis_gcc.h ****   \details Returns the current value of the non-secure Main Stack Pointer (MSP) when in secure stat
 314:Drivers/CMSIS/Include/cmsis_gcc.h ****   \return               MSP Register value
 315:Drivers/CMSIS/Include/cmsis_gcc.h ****  */
 316:Drivers/CMSIS/Include/cmsis_gcc.h **** __STATIC_FORCEINLINE uint32_t __TZ_get_MSP_NS(void)
 317:Drivers/CMSIS/Include/cmsis_gcc.h **** {
 318:Drivers/CMSIS/Include/cmsis_gcc.h ****   uint32_t result;
 319:Drivers/CMSIS/Include/cmsis_gcc.h **** 
 320:Drivers/CMSIS/Include/cmsis_gcc.h ****   __ASM volatile ("MRS %0, msp_ns" : "=r" (result) );
 321:Drivers/CMSIS/Include/cmsis_gcc.h ****   return(result);
 322:Drivers/CMSIS/Include/cmsis_gcc.h **** }
 323:Drivers/CMSIS/Include/cmsis_gcc.h **** #endif
 324:Drivers/CMSIS/Include/cmsis_gcc.h **** 
 325:Drivers/CMSIS/Include/cmsis_gcc.h **** 
 326:Drivers/CMSIS/Include/cmsis_gcc.h **** /**
 327:Drivers/CMSIS/Include/cmsis_gcc.h ****   \brief   Set Main Stack Pointer
 328:Drivers/CMSIS/Include/cmsis_gcc.h ****   \details Assigns the given value to the Main Stack Pointer (MSP).
 329:Drivers/CMSIS/Include/cmsis_gcc.h ****   \param [in]    topOfMainStack  Main Stack Pointer value to set
 330:Drivers/CMSIS/Include/cmsis_gcc.h ****  */
 331:Drivers/CMSIS/Include/cmsis_gcc.h **** __STATIC_FORCEINLINE void __set_MSP(uint32_t topOfMainStack)
 332:Drivers/CMSIS/Include/cmsis_gcc.h **** {
 333:Drivers/CMSIS/Include/cmsis_gcc.h ****   __ASM volatile ("MSR msp, %0" : : "r" (topOfMainStack) : );
 334:Drivers/CMSIS/Include/cmsis_gcc.h **** }
 335:Drivers/CMSIS/Include/cmsis_gcc.h **** 
 336:Drivers/CMSIS/Include/cmsis_gcc.h **** 
 337:Drivers/CMSIS/Include/cmsis_gcc.h **** #if (defined (__ARM_FEATURE_CMSE ) && (__ARM_FEATURE_CMSE == 3))
 338:Drivers/CMSIS/Include/cmsis_gcc.h **** /**
 339:Drivers/CMSIS/Include/cmsis_gcc.h ****   \brief   Set Main Stack Pointer (non-secure)
 340:Drivers/CMSIS/Include/cmsis_gcc.h ****   \details Assigns the given value to the non-secure Main Stack Pointer (MSP) when in secure state.
 341:Drivers/CMSIS/Include/cmsis_gcc.h ****   \param [in]    topOfMainStack  Main Stack Pointer value to set
 342:Drivers/CMSIS/Include/cmsis_gcc.h ****  */
 343:Drivers/CMSIS/Include/cmsis_gcc.h **** __STATIC_FORCEINLINE void __TZ_set_MSP_NS(uint32_t topOfMainStack)
 344:Drivers/CMSIS/Include/cmsis_gcc.h **** {
 345:Drivers/CMSIS/Include/cmsis_gcc.h ****   __ASM volatile ("MSR msp_ns, %0" : : "r" (topOfMainStack) : );
ARM GAS  C:\Users\Rick\AppData\Local\Temp\ccbuSalp.s 			page 64


 346:Drivers/CMSIS/Include/cmsis_gcc.h **** }
 347:Drivers/CMSIS/Include/cmsis_gcc.h **** #endif
 348:Drivers/CMSIS/Include/cmsis_gcc.h **** 
 349:Drivers/CMSIS/Include/cmsis_gcc.h **** 
 350:Drivers/CMSIS/Include/cmsis_gcc.h **** #if (defined (__ARM_FEATURE_CMSE ) && (__ARM_FEATURE_CMSE == 3))
 351:Drivers/CMSIS/Include/cmsis_gcc.h **** /**
 352:Drivers/CMSIS/Include/cmsis_gcc.h ****   \brief   Get Stack Pointer (non-secure)
 353:Drivers/CMSIS/Include/cmsis_gcc.h ****   \details Returns the current value of the non-secure Stack Pointer (SP) when in secure state.
 354:Drivers/CMSIS/Include/cmsis_gcc.h ****   \return               SP Register value
 355:Drivers/CMSIS/Include/cmsis_gcc.h ****  */
 356:Drivers/CMSIS/Include/cmsis_gcc.h **** __STATIC_FORCEINLINE uint32_t __TZ_get_SP_NS(void)
 357:Drivers/CMSIS/Include/cmsis_gcc.h **** {
 358:Drivers/CMSIS/Include/cmsis_gcc.h ****   uint32_t result;
 359:Drivers/CMSIS/Include/cmsis_gcc.h **** 
 360:Drivers/CMSIS/Include/cmsis_gcc.h ****   __ASM volatile ("MRS %0, sp_ns" : "=r" (result) );
 361:Drivers/CMSIS/Include/cmsis_gcc.h ****   return(result);
 362:Drivers/CMSIS/Include/cmsis_gcc.h **** }
 363:Drivers/CMSIS/Include/cmsis_gcc.h **** 
 364:Drivers/CMSIS/Include/cmsis_gcc.h **** 
 365:Drivers/CMSIS/Include/cmsis_gcc.h **** /**
 366:Drivers/CMSIS/Include/cmsis_gcc.h ****   \brief   Set Stack Pointer (non-secure)
 367:Drivers/CMSIS/Include/cmsis_gcc.h ****   \details Assigns the given value to the non-secure Stack Pointer (SP) when in secure state.
 368:Drivers/CMSIS/Include/cmsis_gcc.h ****   \param [in]    topOfStack  Stack Pointer value to set
 369:Drivers/CMSIS/Include/cmsis_gcc.h ****  */
 370:Drivers/CMSIS/Include/cmsis_gcc.h **** __STATIC_FORCEINLINE void __TZ_set_SP_NS(uint32_t topOfStack)
 371:Drivers/CMSIS/Include/cmsis_gcc.h **** {
 372:Drivers/CMSIS/Include/cmsis_gcc.h ****   __ASM volatile ("MSR sp_ns, %0" : : "r" (topOfStack) : );
 373:Drivers/CMSIS/Include/cmsis_gcc.h **** }
 374:Drivers/CMSIS/Include/cmsis_gcc.h **** #endif
 375:Drivers/CMSIS/Include/cmsis_gcc.h **** 
 376:Drivers/CMSIS/Include/cmsis_gcc.h **** 
 377:Drivers/CMSIS/Include/cmsis_gcc.h **** /**
 378:Drivers/CMSIS/Include/cmsis_gcc.h ****   \brief   Get Priority Mask
 379:Drivers/CMSIS/Include/cmsis_gcc.h ****   \details Returns the current state of the priority mask bit from the Priority Mask Register.
 380:Drivers/CMSIS/Include/cmsis_gcc.h ****   \return               Priority Mask value
 381:Drivers/CMSIS/Include/cmsis_gcc.h ****  */
 382:Drivers/CMSIS/Include/cmsis_gcc.h **** __STATIC_FORCEINLINE uint32_t __get_PRIMASK(void)
 383:Drivers/CMSIS/Include/cmsis_gcc.h **** {
 384:Drivers/CMSIS/Include/cmsis_gcc.h ****   uint32_t result;
 385:Drivers/CMSIS/Include/cmsis_gcc.h **** 
 386:Drivers/CMSIS/Include/cmsis_gcc.h ****   __ASM volatile ("MRS %0, primask" : "=r" (result) :: "memory");
 387:Drivers/CMSIS/Include/cmsis_gcc.h ****   return(result);
 388:Drivers/CMSIS/Include/cmsis_gcc.h **** }
 389:Drivers/CMSIS/Include/cmsis_gcc.h **** 
 390:Drivers/CMSIS/Include/cmsis_gcc.h **** 
 391:Drivers/CMSIS/Include/cmsis_gcc.h **** #if (defined (__ARM_FEATURE_CMSE ) && (__ARM_FEATURE_CMSE == 3))
 392:Drivers/CMSIS/Include/cmsis_gcc.h **** /**
 393:Drivers/CMSIS/Include/cmsis_gcc.h ****   \brief   Get Priority Mask (non-secure)
 394:Drivers/CMSIS/Include/cmsis_gcc.h ****   \details Returns the current state of the non-secure priority mask bit from the Priority Mask Reg
 395:Drivers/CMSIS/Include/cmsis_gcc.h ****   \return               Priority Mask value
 396:Drivers/CMSIS/Include/cmsis_gcc.h ****  */
 397:Drivers/CMSIS/Include/cmsis_gcc.h **** __STATIC_FORCEINLINE uint32_t __TZ_get_PRIMASK_NS(void)
 398:Drivers/CMSIS/Include/cmsis_gcc.h **** {
 399:Drivers/CMSIS/Include/cmsis_gcc.h ****   uint32_t result;
 400:Drivers/CMSIS/Include/cmsis_gcc.h **** 
 401:Drivers/CMSIS/Include/cmsis_gcc.h ****   __ASM volatile ("MRS %0, primask_ns" : "=r" (result) :: "memory");
 402:Drivers/CMSIS/Include/cmsis_gcc.h ****   return(result);
ARM GAS  C:\Users\Rick\AppData\Local\Temp\ccbuSalp.s 			page 65


 403:Drivers/CMSIS/Include/cmsis_gcc.h **** }
 404:Drivers/CMSIS/Include/cmsis_gcc.h **** #endif
 405:Drivers/CMSIS/Include/cmsis_gcc.h **** 
 406:Drivers/CMSIS/Include/cmsis_gcc.h **** 
 407:Drivers/CMSIS/Include/cmsis_gcc.h **** /**
 408:Drivers/CMSIS/Include/cmsis_gcc.h ****   \brief   Set Priority Mask
 409:Drivers/CMSIS/Include/cmsis_gcc.h ****   \details Assigns the given value to the Priority Mask Register.
 410:Drivers/CMSIS/Include/cmsis_gcc.h ****   \param [in]    priMask  Priority Mask
 411:Drivers/CMSIS/Include/cmsis_gcc.h ****  */
 412:Drivers/CMSIS/Include/cmsis_gcc.h **** __STATIC_FORCEINLINE void __set_PRIMASK(uint32_t priMask)
 413:Drivers/CMSIS/Include/cmsis_gcc.h **** {
 414:Drivers/CMSIS/Include/cmsis_gcc.h ****   __ASM volatile ("MSR primask, %0" : : "r" (priMask) : "memory");
 415:Drivers/CMSIS/Include/cmsis_gcc.h **** }
 416:Drivers/CMSIS/Include/cmsis_gcc.h **** 
 417:Drivers/CMSIS/Include/cmsis_gcc.h **** 
 418:Drivers/CMSIS/Include/cmsis_gcc.h **** #if (defined (__ARM_FEATURE_CMSE ) && (__ARM_FEATURE_CMSE == 3))
 419:Drivers/CMSIS/Include/cmsis_gcc.h **** /**
 420:Drivers/CMSIS/Include/cmsis_gcc.h ****   \brief   Set Priority Mask (non-secure)
 421:Drivers/CMSIS/Include/cmsis_gcc.h ****   \details Assigns the given value to the non-secure Priority Mask Register when in secure state.
 422:Drivers/CMSIS/Include/cmsis_gcc.h ****   \param [in]    priMask  Priority Mask
 423:Drivers/CMSIS/Include/cmsis_gcc.h ****  */
 424:Drivers/CMSIS/Include/cmsis_gcc.h **** __STATIC_FORCEINLINE void __TZ_set_PRIMASK_NS(uint32_t priMask)
 425:Drivers/CMSIS/Include/cmsis_gcc.h **** {
 426:Drivers/CMSIS/Include/cmsis_gcc.h ****   __ASM volatile ("MSR primask_ns, %0" : : "r" (priMask) : "memory");
 427:Drivers/CMSIS/Include/cmsis_gcc.h **** }
 428:Drivers/CMSIS/Include/cmsis_gcc.h **** #endif
 429:Drivers/CMSIS/Include/cmsis_gcc.h **** 
 430:Drivers/CMSIS/Include/cmsis_gcc.h **** 
 431:Drivers/CMSIS/Include/cmsis_gcc.h **** #if ((defined (__ARM_ARCH_7M__      ) && (__ARM_ARCH_7M__      == 1)) || \
 432:Drivers/CMSIS/Include/cmsis_gcc.h ****      (defined (__ARM_ARCH_7EM__     ) && (__ARM_ARCH_7EM__     == 1)) || \
 433:Drivers/CMSIS/Include/cmsis_gcc.h ****      (defined (__ARM_ARCH_8M_MAIN__ ) && (__ARM_ARCH_8M_MAIN__ == 1))    )
 434:Drivers/CMSIS/Include/cmsis_gcc.h **** /**
 435:Drivers/CMSIS/Include/cmsis_gcc.h ****   \brief   Enable FIQ
 436:Drivers/CMSIS/Include/cmsis_gcc.h ****   \details Enables FIQ interrupts by clearing the F-bit in the CPSR.
 437:Drivers/CMSIS/Include/cmsis_gcc.h ****            Can only be executed in Privileged modes.
 438:Drivers/CMSIS/Include/cmsis_gcc.h ****  */
 439:Drivers/CMSIS/Include/cmsis_gcc.h **** __STATIC_FORCEINLINE void __enable_fault_irq(void)
 440:Drivers/CMSIS/Include/cmsis_gcc.h **** {
 441:Drivers/CMSIS/Include/cmsis_gcc.h ****   __ASM volatile ("cpsie f" : : : "memory");
 442:Drivers/CMSIS/Include/cmsis_gcc.h **** }
 443:Drivers/CMSIS/Include/cmsis_gcc.h **** 
 444:Drivers/CMSIS/Include/cmsis_gcc.h **** 
 445:Drivers/CMSIS/Include/cmsis_gcc.h **** /**
 446:Drivers/CMSIS/Include/cmsis_gcc.h ****   \brief   Disable FIQ
 447:Drivers/CMSIS/Include/cmsis_gcc.h ****   \details Disables FIQ interrupts by setting the F-bit in the CPSR.
 448:Drivers/CMSIS/Include/cmsis_gcc.h ****            Can only be executed in Privileged modes.
 449:Drivers/CMSIS/Include/cmsis_gcc.h ****  */
 450:Drivers/CMSIS/Include/cmsis_gcc.h **** __STATIC_FORCEINLINE void __disable_fault_irq(void)
 451:Drivers/CMSIS/Include/cmsis_gcc.h **** {
 452:Drivers/CMSIS/Include/cmsis_gcc.h ****   __ASM volatile ("cpsid f" : : : "memory");
 453:Drivers/CMSIS/Include/cmsis_gcc.h **** }
 454:Drivers/CMSIS/Include/cmsis_gcc.h **** 
 455:Drivers/CMSIS/Include/cmsis_gcc.h **** 
 456:Drivers/CMSIS/Include/cmsis_gcc.h **** /**
 457:Drivers/CMSIS/Include/cmsis_gcc.h ****   \brief   Get Base Priority
 458:Drivers/CMSIS/Include/cmsis_gcc.h ****   \details Returns the current value of the Base Priority register.
 459:Drivers/CMSIS/Include/cmsis_gcc.h ****   \return               Base Priority register value
ARM GAS  C:\Users\Rick\AppData\Local\Temp\ccbuSalp.s 			page 66


 460:Drivers/CMSIS/Include/cmsis_gcc.h ****  */
 461:Drivers/CMSIS/Include/cmsis_gcc.h **** __STATIC_FORCEINLINE uint32_t __get_BASEPRI(void)
 462:Drivers/CMSIS/Include/cmsis_gcc.h **** {
 463:Drivers/CMSIS/Include/cmsis_gcc.h ****   uint32_t result;
 464:Drivers/CMSIS/Include/cmsis_gcc.h **** 
 465:Drivers/CMSIS/Include/cmsis_gcc.h ****   __ASM volatile ("MRS %0, basepri" : "=r" (result) );
 466:Drivers/CMSIS/Include/cmsis_gcc.h ****   return(result);
 467:Drivers/CMSIS/Include/cmsis_gcc.h **** }
 468:Drivers/CMSIS/Include/cmsis_gcc.h **** 
 469:Drivers/CMSIS/Include/cmsis_gcc.h **** 
 470:Drivers/CMSIS/Include/cmsis_gcc.h **** #if (defined (__ARM_FEATURE_CMSE ) && (__ARM_FEATURE_CMSE == 3))
 471:Drivers/CMSIS/Include/cmsis_gcc.h **** /**
 472:Drivers/CMSIS/Include/cmsis_gcc.h ****   \brief   Get Base Priority (non-secure)
 473:Drivers/CMSIS/Include/cmsis_gcc.h ****   \details Returns the current value of the non-secure Base Priority register when in secure state.
 474:Drivers/CMSIS/Include/cmsis_gcc.h ****   \return               Base Priority register value
 475:Drivers/CMSIS/Include/cmsis_gcc.h ****  */
 476:Drivers/CMSIS/Include/cmsis_gcc.h **** __STATIC_FORCEINLINE uint32_t __TZ_get_BASEPRI_NS(void)
 477:Drivers/CMSIS/Include/cmsis_gcc.h **** {
 478:Drivers/CMSIS/Include/cmsis_gcc.h ****   uint32_t result;
 479:Drivers/CMSIS/Include/cmsis_gcc.h **** 
 480:Drivers/CMSIS/Include/cmsis_gcc.h ****   __ASM volatile ("MRS %0, basepri_ns" : "=r" (result) );
 481:Drivers/CMSIS/Include/cmsis_gcc.h ****   return(result);
 482:Drivers/CMSIS/Include/cmsis_gcc.h **** }
 483:Drivers/CMSIS/Include/cmsis_gcc.h **** #endif
 484:Drivers/CMSIS/Include/cmsis_gcc.h **** 
 485:Drivers/CMSIS/Include/cmsis_gcc.h **** 
 486:Drivers/CMSIS/Include/cmsis_gcc.h **** /**
 487:Drivers/CMSIS/Include/cmsis_gcc.h ****   \brief   Set Base Priority
 488:Drivers/CMSIS/Include/cmsis_gcc.h ****   \details Assigns the given value to the Base Priority register.
 489:Drivers/CMSIS/Include/cmsis_gcc.h ****   \param [in]    basePri  Base Priority value to set
 490:Drivers/CMSIS/Include/cmsis_gcc.h ****  */
 491:Drivers/CMSIS/Include/cmsis_gcc.h **** __STATIC_FORCEINLINE void __set_BASEPRI(uint32_t basePri)
 492:Drivers/CMSIS/Include/cmsis_gcc.h **** {
 493:Drivers/CMSIS/Include/cmsis_gcc.h ****   __ASM volatile ("MSR basepri, %0" : : "r" (basePri) : "memory");
 494:Drivers/CMSIS/Include/cmsis_gcc.h **** }
 495:Drivers/CMSIS/Include/cmsis_gcc.h **** 
 496:Drivers/CMSIS/Include/cmsis_gcc.h **** 
 497:Drivers/CMSIS/Include/cmsis_gcc.h **** #if (defined (__ARM_FEATURE_CMSE ) && (__ARM_FEATURE_CMSE == 3))
 498:Drivers/CMSIS/Include/cmsis_gcc.h **** /**
 499:Drivers/CMSIS/Include/cmsis_gcc.h ****   \brief   Set Base Priority (non-secure)
 500:Drivers/CMSIS/Include/cmsis_gcc.h ****   \details Assigns the given value to the non-secure Base Priority register when in secure state.
 501:Drivers/CMSIS/Include/cmsis_gcc.h ****   \param [in]    basePri  Base Priority value to set
 502:Drivers/CMSIS/Include/cmsis_gcc.h ****  */
 503:Drivers/CMSIS/Include/cmsis_gcc.h **** __STATIC_FORCEINLINE void __TZ_set_BASEPRI_NS(uint32_t basePri)
 504:Drivers/CMSIS/Include/cmsis_gcc.h **** {
 505:Drivers/CMSIS/Include/cmsis_gcc.h ****   __ASM volatile ("MSR basepri_ns, %0" : : "r" (basePri) : "memory");
 506:Drivers/CMSIS/Include/cmsis_gcc.h **** }
 507:Drivers/CMSIS/Include/cmsis_gcc.h **** #endif
 508:Drivers/CMSIS/Include/cmsis_gcc.h **** 
 509:Drivers/CMSIS/Include/cmsis_gcc.h **** 
 510:Drivers/CMSIS/Include/cmsis_gcc.h **** /**
 511:Drivers/CMSIS/Include/cmsis_gcc.h ****   \brief   Set Base Priority with condition
 512:Drivers/CMSIS/Include/cmsis_gcc.h ****   \details Assigns the given value to the Base Priority register only if BASEPRI masking is disable
 513:Drivers/CMSIS/Include/cmsis_gcc.h ****            or the new value increases the BASEPRI priority level.
 514:Drivers/CMSIS/Include/cmsis_gcc.h ****   \param [in]    basePri  Base Priority value to set
 515:Drivers/CMSIS/Include/cmsis_gcc.h ****  */
 516:Drivers/CMSIS/Include/cmsis_gcc.h **** __STATIC_FORCEINLINE void __set_BASEPRI_MAX(uint32_t basePri)
ARM GAS  C:\Users\Rick\AppData\Local\Temp\ccbuSalp.s 			page 67


 517:Drivers/CMSIS/Include/cmsis_gcc.h **** {
 518:Drivers/CMSIS/Include/cmsis_gcc.h ****   __ASM volatile ("MSR basepri_max, %0" : : "r" (basePri) : "memory");
 519:Drivers/CMSIS/Include/cmsis_gcc.h **** }
 520:Drivers/CMSIS/Include/cmsis_gcc.h **** 
 521:Drivers/CMSIS/Include/cmsis_gcc.h **** 
 522:Drivers/CMSIS/Include/cmsis_gcc.h **** /**
 523:Drivers/CMSIS/Include/cmsis_gcc.h ****   \brief   Get Fault Mask
 524:Drivers/CMSIS/Include/cmsis_gcc.h ****   \details Returns the current value of the Fault Mask register.
 525:Drivers/CMSIS/Include/cmsis_gcc.h ****   \return               Fault Mask register value
 526:Drivers/CMSIS/Include/cmsis_gcc.h ****  */
 527:Drivers/CMSIS/Include/cmsis_gcc.h **** __STATIC_FORCEINLINE uint32_t __get_FAULTMASK(void)
 528:Drivers/CMSIS/Include/cmsis_gcc.h **** {
 529:Drivers/CMSIS/Include/cmsis_gcc.h ****   uint32_t result;
 530:Drivers/CMSIS/Include/cmsis_gcc.h **** 
 531:Drivers/CMSIS/Include/cmsis_gcc.h ****   __ASM volatile ("MRS %0, faultmask" : "=r" (result) );
 532:Drivers/CMSIS/Include/cmsis_gcc.h ****   return(result);
 533:Drivers/CMSIS/Include/cmsis_gcc.h **** }
 534:Drivers/CMSIS/Include/cmsis_gcc.h **** 
 535:Drivers/CMSIS/Include/cmsis_gcc.h **** 
 536:Drivers/CMSIS/Include/cmsis_gcc.h **** #if (defined (__ARM_FEATURE_CMSE ) && (__ARM_FEATURE_CMSE == 3))
 537:Drivers/CMSIS/Include/cmsis_gcc.h **** /**
 538:Drivers/CMSIS/Include/cmsis_gcc.h ****   \brief   Get Fault Mask (non-secure)
 539:Drivers/CMSIS/Include/cmsis_gcc.h ****   \details Returns the current value of the non-secure Fault Mask register when in secure state.
 540:Drivers/CMSIS/Include/cmsis_gcc.h ****   \return               Fault Mask register value
 541:Drivers/CMSIS/Include/cmsis_gcc.h ****  */
 542:Drivers/CMSIS/Include/cmsis_gcc.h **** __STATIC_FORCEINLINE uint32_t __TZ_get_FAULTMASK_NS(void)
 543:Drivers/CMSIS/Include/cmsis_gcc.h **** {
 544:Drivers/CMSIS/Include/cmsis_gcc.h ****   uint32_t result;
 545:Drivers/CMSIS/Include/cmsis_gcc.h **** 
 546:Drivers/CMSIS/Include/cmsis_gcc.h ****   __ASM volatile ("MRS %0, faultmask_ns" : "=r" (result) );
 547:Drivers/CMSIS/Include/cmsis_gcc.h ****   return(result);
 548:Drivers/CMSIS/Include/cmsis_gcc.h **** }
 549:Drivers/CMSIS/Include/cmsis_gcc.h **** #endif
 550:Drivers/CMSIS/Include/cmsis_gcc.h **** 
 551:Drivers/CMSIS/Include/cmsis_gcc.h **** 
 552:Drivers/CMSIS/Include/cmsis_gcc.h **** /**
 553:Drivers/CMSIS/Include/cmsis_gcc.h ****   \brief   Set Fault Mask
 554:Drivers/CMSIS/Include/cmsis_gcc.h ****   \details Assigns the given value to the Fault Mask register.
 555:Drivers/CMSIS/Include/cmsis_gcc.h ****   \param [in]    faultMask  Fault Mask value to set
 556:Drivers/CMSIS/Include/cmsis_gcc.h ****  */
 557:Drivers/CMSIS/Include/cmsis_gcc.h **** __STATIC_FORCEINLINE void __set_FAULTMASK(uint32_t faultMask)
 558:Drivers/CMSIS/Include/cmsis_gcc.h **** {
 559:Drivers/CMSIS/Include/cmsis_gcc.h ****   __ASM volatile ("MSR faultmask, %0" : : "r" (faultMask) : "memory");
 560:Drivers/CMSIS/Include/cmsis_gcc.h **** }
 561:Drivers/CMSIS/Include/cmsis_gcc.h **** 
 562:Drivers/CMSIS/Include/cmsis_gcc.h **** 
 563:Drivers/CMSIS/Include/cmsis_gcc.h **** #if (defined (__ARM_FEATURE_CMSE ) && (__ARM_FEATURE_CMSE == 3))
 564:Drivers/CMSIS/Include/cmsis_gcc.h **** /**
 565:Drivers/CMSIS/Include/cmsis_gcc.h ****   \brief   Set Fault Mask (non-secure)
 566:Drivers/CMSIS/Include/cmsis_gcc.h ****   \details Assigns the given value to the non-secure Fault Mask register when in secure state.
 567:Drivers/CMSIS/Include/cmsis_gcc.h ****   \param [in]    faultMask  Fault Mask value to set
 568:Drivers/CMSIS/Include/cmsis_gcc.h ****  */
 569:Drivers/CMSIS/Include/cmsis_gcc.h **** __STATIC_FORCEINLINE void __TZ_set_FAULTMASK_NS(uint32_t faultMask)
 570:Drivers/CMSIS/Include/cmsis_gcc.h **** {
 571:Drivers/CMSIS/Include/cmsis_gcc.h ****   __ASM volatile ("MSR faultmask_ns, %0" : : "r" (faultMask) : "memory");
 572:Drivers/CMSIS/Include/cmsis_gcc.h **** }
 573:Drivers/CMSIS/Include/cmsis_gcc.h **** #endif
ARM GAS  C:\Users\Rick\AppData\Local\Temp\ccbuSalp.s 			page 68


 574:Drivers/CMSIS/Include/cmsis_gcc.h **** 
 575:Drivers/CMSIS/Include/cmsis_gcc.h **** #endif /* ((defined (__ARM_ARCH_7M__      ) && (__ARM_ARCH_7M__      == 1)) || \
 576:Drivers/CMSIS/Include/cmsis_gcc.h ****            (defined (__ARM_ARCH_7EM__     ) && (__ARM_ARCH_7EM__     == 1)) || \
 577:Drivers/CMSIS/Include/cmsis_gcc.h ****            (defined (__ARM_ARCH_8M_MAIN__ ) && (__ARM_ARCH_8M_MAIN__ == 1))    ) */
 578:Drivers/CMSIS/Include/cmsis_gcc.h **** 
 579:Drivers/CMSIS/Include/cmsis_gcc.h **** 
 580:Drivers/CMSIS/Include/cmsis_gcc.h **** #if ((defined (__ARM_ARCH_8M_MAIN__ ) && (__ARM_ARCH_8M_MAIN__ == 1)) || \
 581:Drivers/CMSIS/Include/cmsis_gcc.h ****      (defined (__ARM_ARCH_8M_BASE__ ) && (__ARM_ARCH_8M_BASE__ == 1))    )
 582:Drivers/CMSIS/Include/cmsis_gcc.h **** 
 583:Drivers/CMSIS/Include/cmsis_gcc.h **** /**
 584:Drivers/CMSIS/Include/cmsis_gcc.h ****   \brief   Get Process Stack Pointer Limit
 585:Drivers/CMSIS/Include/cmsis_gcc.h ****   Devices without ARMv8-M Main Extensions (i.e. Cortex-M23) lack the non-secure
 586:Drivers/CMSIS/Include/cmsis_gcc.h ****   Stack Pointer Limit register hence zero is returned always in non-secure
 587:Drivers/CMSIS/Include/cmsis_gcc.h ****   mode.
 588:Drivers/CMSIS/Include/cmsis_gcc.h ****   
 589:Drivers/CMSIS/Include/cmsis_gcc.h ****   \details Returns the current value of the Process Stack Pointer Limit (PSPLIM).
 590:Drivers/CMSIS/Include/cmsis_gcc.h ****   \return               PSPLIM Register value
 591:Drivers/CMSIS/Include/cmsis_gcc.h ****  */
 592:Drivers/CMSIS/Include/cmsis_gcc.h **** __STATIC_FORCEINLINE uint32_t __get_PSPLIM(void)
 593:Drivers/CMSIS/Include/cmsis_gcc.h **** {
 594:Drivers/CMSIS/Include/cmsis_gcc.h **** #if (!(defined (__ARM_ARCH_8M_MAIN__ ) && (__ARM_ARCH_8M_MAIN__ == 1)) && \
 595:Drivers/CMSIS/Include/cmsis_gcc.h ****     (!defined (__ARM_FEATURE_CMSE) || (__ARM_FEATURE_CMSE < 3)))
 596:Drivers/CMSIS/Include/cmsis_gcc.h ****     // without main extensions, the non-secure PSPLIM is RAZ/WI
 597:Drivers/CMSIS/Include/cmsis_gcc.h ****   return 0U;
 598:Drivers/CMSIS/Include/cmsis_gcc.h **** #else
 599:Drivers/CMSIS/Include/cmsis_gcc.h ****   uint32_t result;
 600:Drivers/CMSIS/Include/cmsis_gcc.h ****   __ASM volatile ("MRS %0, psplim"  : "=r" (result) );
 601:Drivers/CMSIS/Include/cmsis_gcc.h ****   return result;
 602:Drivers/CMSIS/Include/cmsis_gcc.h **** #endif
 603:Drivers/CMSIS/Include/cmsis_gcc.h **** }
 604:Drivers/CMSIS/Include/cmsis_gcc.h **** 
 605:Drivers/CMSIS/Include/cmsis_gcc.h **** #if (defined (__ARM_FEATURE_CMSE) && (__ARM_FEATURE_CMSE == 3))
 606:Drivers/CMSIS/Include/cmsis_gcc.h **** /**
 607:Drivers/CMSIS/Include/cmsis_gcc.h ****   \brief   Get Process Stack Pointer Limit (non-secure)
 608:Drivers/CMSIS/Include/cmsis_gcc.h ****   Devices without ARMv8-M Main Extensions (i.e. Cortex-M23) lack the non-secure
 609:Drivers/CMSIS/Include/cmsis_gcc.h ****   Stack Pointer Limit register hence zero is returned always.
 610:Drivers/CMSIS/Include/cmsis_gcc.h **** 
 611:Drivers/CMSIS/Include/cmsis_gcc.h ****   \details Returns the current value of the non-secure Process Stack Pointer Limit (PSPLIM) when in
 612:Drivers/CMSIS/Include/cmsis_gcc.h ****   \return               PSPLIM Register value
 613:Drivers/CMSIS/Include/cmsis_gcc.h ****  */
 614:Drivers/CMSIS/Include/cmsis_gcc.h **** __STATIC_FORCEINLINE uint32_t __TZ_get_PSPLIM_NS(void)
 615:Drivers/CMSIS/Include/cmsis_gcc.h **** {
 616:Drivers/CMSIS/Include/cmsis_gcc.h **** #if (!(defined (__ARM_ARCH_8M_MAIN__ ) && (__ARM_ARCH_8M_MAIN__ == 1)))
 617:Drivers/CMSIS/Include/cmsis_gcc.h ****   // without main extensions, the non-secure PSPLIM is RAZ/WI
 618:Drivers/CMSIS/Include/cmsis_gcc.h ****   return 0U;
 619:Drivers/CMSIS/Include/cmsis_gcc.h **** #else
 620:Drivers/CMSIS/Include/cmsis_gcc.h ****   uint32_t result;
 621:Drivers/CMSIS/Include/cmsis_gcc.h ****   __ASM volatile ("MRS %0, psplim_ns"  : "=r" (result) );
 622:Drivers/CMSIS/Include/cmsis_gcc.h ****   return result;
 623:Drivers/CMSIS/Include/cmsis_gcc.h **** #endif
 624:Drivers/CMSIS/Include/cmsis_gcc.h **** }
 625:Drivers/CMSIS/Include/cmsis_gcc.h **** #endif
 626:Drivers/CMSIS/Include/cmsis_gcc.h **** 
 627:Drivers/CMSIS/Include/cmsis_gcc.h **** 
 628:Drivers/CMSIS/Include/cmsis_gcc.h **** /**
 629:Drivers/CMSIS/Include/cmsis_gcc.h ****   \brief   Set Process Stack Pointer Limit
 630:Drivers/CMSIS/Include/cmsis_gcc.h ****   Devices without ARMv8-M Main Extensions (i.e. Cortex-M23) lack the non-secure
ARM GAS  C:\Users\Rick\AppData\Local\Temp\ccbuSalp.s 			page 69


 631:Drivers/CMSIS/Include/cmsis_gcc.h ****   Stack Pointer Limit register hence the write is silently ignored in non-secure
 632:Drivers/CMSIS/Include/cmsis_gcc.h ****   mode.
 633:Drivers/CMSIS/Include/cmsis_gcc.h ****   
 634:Drivers/CMSIS/Include/cmsis_gcc.h ****   \details Assigns the given value to the Process Stack Pointer Limit (PSPLIM).
 635:Drivers/CMSIS/Include/cmsis_gcc.h ****   \param [in]    ProcStackPtrLimit  Process Stack Pointer Limit value to set
 636:Drivers/CMSIS/Include/cmsis_gcc.h ****  */
 637:Drivers/CMSIS/Include/cmsis_gcc.h **** __STATIC_FORCEINLINE void __set_PSPLIM(uint32_t ProcStackPtrLimit)
 638:Drivers/CMSIS/Include/cmsis_gcc.h **** {
 639:Drivers/CMSIS/Include/cmsis_gcc.h **** #if (!(defined (__ARM_ARCH_8M_MAIN__ ) && (__ARM_ARCH_8M_MAIN__ == 1)) && \
 640:Drivers/CMSIS/Include/cmsis_gcc.h ****     (!defined (__ARM_FEATURE_CMSE) || (__ARM_FEATURE_CMSE < 3)))
 641:Drivers/CMSIS/Include/cmsis_gcc.h ****   // without main extensions, the non-secure PSPLIM is RAZ/WI
 642:Drivers/CMSIS/Include/cmsis_gcc.h ****   (void)ProcStackPtrLimit;
 643:Drivers/CMSIS/Include/cmsis_gcc.h **** #else
 644:Drivers/CMSIS/Include/cmsis_gcc.h ****   __ASM volatile ("MSR psplim, %0" : : "r" (ProcStackPtrLimit));
 645:Drivers/CMSIS/Include/cmsis_gcc.h **** #endif
 646:Drivers/CMSIS/Include/cmsis_gcc.h **** }
 647:Drivers/CMSIS/Include/cmsis_gcc.h **** 
 648:Drivers/CMSIS/Include/cmsis_gcc.h **** 
 649:Drivers/CMSIS/Include/cmsis_gcc.h **** #if (defined (__ARM_FEATURE_CMSE  ) && (__ARM_FEATURE_CMSE   == 3))
 650:Drivers/CMSIS/Include/cmsis_gcc.h **** /**
 651:Drivers/CMSIS/Include/cmsis_gcc.h ****   \brief   Set Process Stack Pointer (non-secure)
 652:Drivers/CMSIS/Include/cmsis_gcc.h ****   Devices without ARMv8-M Main Extensions (i.e. Cortex-M23) lack the non-secure
 653:Drivers/CMSIS/Include/cmsis_gcc.h ****   Stack Pointer Limit register hence the write is silently ignored.
 654:Drivers/CMSIS/Include/cmsis_gcc.h **** 
 655:Drivers/CMSIS/Include/cmsis_gcc.h ****   \details Assigns the given value to the non-secure Process Stack Pointer Limit (PSPLIM) when in s
 656:Drivers/CMSIS/Include/cmsis_gcc.h ****   \param [in]    ProcStackPtrLimit  Process Stack Pointer Limit value to set
 657:Drivers/CMSIS/Include/cmsis_gcc.h ****  */
 658:Drivers/CMSIS/Include/cmsis_gcc.h **** __STATIC_FORCEINLINE void __TZ_set_PSPLIM_NS(uint32_t ProcStackPtrLimit)
 659:Drivers/CMSIS/Include/cmsis_gcc.h **** {
 660:Drivers/CMSIS/Include/cmsis_gcc.h **** #if (!(defined (__ARM_ARCH_8M_MAIN__ ) && (__ARM_ARCH_8M_MAIN__ == 1)))
 661:Drivers/CMSIS/Include/cmsis_gcc.h ****   // without main extensions, the non-secure PSPLIM is RAZ/WI
 662:Drivers/CMSIS/Include/cmsis_gcc.h ****   (void)ProcStackPtrLimit;
 663:Drivers/CMSIS/Include/cmsis_gcc.h **** #else
 664:Drivers/CMSIS/Include/cmsis_gcc.h ****   __ASM volatile ("MSR psplim_ns, %0\n" : : "r" (ProcStackPtrLimit));
 665:Drivers/CMSIS/Include/cmsis_gcc.h **** #endif
 666:Drivers/CMSIS/Include/cmsis_gcc.h **** }
 667:Drivers/CMSIS/Include/cmsis_gcc.h **** #endif
 668:Drivers/CMSIS/Include/cmsis_gcc.h **** 
 669:Drivers/CMSIS/Include/cmsis_gcc.h **** 
 670:Drivers/CMSIS/Include/cmsis_gcc.h **** /**
 671:Drivers/CMSIS/Include/cmsis_gcc.h ****   \brief   Get Main Stack Pointer Limit
 672:Drivers/CMSIS/Include/cmsis_gcc.h ****   Devices without ARMv8-M Main Extensions (i.e. Cortex-M23) lack the non-secure
 673:Drivers/CMSIS/Include/cmsis_gcc.h ****   Stack Pointer Limit register hence zero is returned always in non-secure
 674:Drivers/CMSIS/Include/cmsis_gcc.h ****   mode.
 675:Drivers/CMSIS/Include/cmsis_gcc.h **** 
 676:Drivers/CMSIS/Include/cmsis_gcc.h ****   \details Returns the current value of the Main Stack Pointer Limit (MSPLIM).
 677:Drivers/CMSIS/Include/cmsis_gcc.h ****   \return               MSPLIM Register value
 678:Drivers/CMSIS/Include/cmsis_gcc.h ****  */
 679:Drivers/CMSIS/Include/cmsis_gcc.h **** __STATIC_FORCEINLINE uint32_t __get_MSPLIM(void)
 680:Drivers/CMSIS/Include/cmsis_gcc.h **** {
 681:Drivers/CMSIS/Include/cmsis_gcc.h **** #if (!(defined (__ARM_ARCH_8M_MAIN__ ) && (__ARM_ARCH_8M_MAIN__ == 1)) && \
 682:Drivers/CMSIS/Include/cmsis_gcc.h ****     (!defined (__ARM_FEATURE_CMSE) || (__ARM_FEATURE_CMSE < 3)))
 683:Drivers/CMSIS/Include/cmsis_gcc.h ****   // without main extensions, the non-secure MSPLIM is RAZ/WI
 684:Drivers/CMSIS/Include/cmsis_gcc.h ****   return 0U;
 685:Drivers/CMSIS/Include/cmsis_gcc.h **** #else
 686:Drivers/CMSIS/Include/cmsis_gcc.h ****   uint32_t result;
 687:Drivers/CMSIS/Include/cmsis_gcc.h ****   __ASM volatile ("MRS %0, msplim" : "=r" (result) );
ARM GAS  C:\Users\Rick\AppData\Local\Temp\ccbuSalp.s 			page 70


 688:Drivers/CMSIS/Include/cmsis_gcc.h ****   return result;
 689:Drivers/CMSIS/Include/cmsis_gcc.h **** #endif
 690:Drivers/CMSIS/Include/cmsis_gcc.h **** }
 691:Drivers/CMSIS/Include/cmsis_gcc.h **** 
 692:Drivers/CMSIS/Include/cmsis_gcc.h **** 
 693:Drivers/CMSIS/Include/cmsis_gcc.h **** #if (defined (__ARM_FEATURE_CMSE  ) && (__ARM_FEATURE_CMSE   == 3))
 694:Drivers/CMSIS/Include/cmsis_gcc.h **** /**
 695:Drivers/CMSIS/Include/cmsis_gcc.h ****   \brief   Get Main Stack Pointer Limit (non-secure)
 696:Drivers/CMSIS/Include/cmsis_gcc.h ****   Devices without ARMv8-M Main Extensions (i.e. Cortex-M23) lack the non-secure
 697:Drivers/CMSIS/Include/cmsis_gcc.h ****   Stack Pointer Limit register hence zero is returned always.
 698:Drivers/CMSIS/Include/cmsis_gcc.h **** 
 699:Drivers/CMSIS/Include/cmsis_gcc.h ****   \details Returns the current value of the non-secure Main Stack Pointer Limit(MSPLIM) when in sec
 700:Drivers/CMSIS/Include/cmsis_gcc.h ****   \return               MSPLIM Register value
 701:Drivers/CMSIS/Include/cmsis_gcc.h ****  */
 702:Drivers/CMSIS/Include/cmsis_gcc.h **** __STATIC_FORCEINLINE uint32_t __TZ_get_MSPLIM_NS(void)
 703:Drivers/CMSIS/Include/cmsis_gcc.h **** {
 704:Drivers/CMSIS/Include/cmsis_gcc.h **** #if (!(defined (__ARM_ARCH_8M_MAIN__ ) && (__ARM_ARCH_8M_MAIN__ == 1)))
 705:Drivers/CMSIS/Include/cmsis_gcc.h ****   // without main extensions, the non-secure MSPLIM is RAZ/WI
 706:Drivers/CMSIS/Include/cmsis_gcc.h ****   return 0U;
 707:Drivers/CMSIS/Include/cmsis_gcc.h **** #else
 708:Drivers/CMSIS/Include/cmsis_gcc.h ****   uint32_t result;
 709:Drivers/CMSIS/Include/cmsis_gcc.h ****   __ASM volatile ("MRS %0, msplim_ns" : "=r" (result) );
 710:Drivers/CMSIS/Include/cmsis_gcc.h ****   return result;
 711:Drivers/CMSIS/Include/cmsis_gcc.h **** #endif
 712:Drivers/CMSIS/Include/cmsis_gcc.h **** }
 713:Drivers/CMSIS/Include/cmsis_gcc.h **** #endif
 714:Drivers/CMSIS/Include/cmsis_gcc.h **** 
 715:Drivers/CMSIS/Include/cmsis_gcc.h **** 
 716:Drivers/CMSIS/Include/cmsis_gcc.h **** /**
 717:Drivers/CMSIS/Include/cmsis_gcc.h ****   \brief   Set Main Stack Pointer Limit
 718:Drivers/CMSIS/Include/cmsis_gcc.h ****   Devices without ARMv8-M Main Extensions (i.e. Cortex-M23) lack the non-secure
 719:Drivers/CMSIS/Include/cmsis_gcc.h ****   Stack Pointer Limit register hence the write is silently ignored in non-secure
 720:Drivers/CMSIS/Include/cmsis_gcc.h ****   mode.
 721:Drivers/CMSIS/Include/cmsis_gcc.h **** 
 722:Drivers/CMSIS/Include/cmsis_gcc.h ****   \details Assigns the given value to the Main Stack Pointer Limit (MSPLIM).
 723:Drivers/CMSIS/Include/cmsis_gcc.h ****   \param [in]    MainStackPtrLimit  Main Stack Pointer Limit value to set
 724:Drivers/CMSIS/Include/cmsis_gcc.h ****  */
 725:Drivers/CMSIS/Include/cmsis_gcc.h **** __STATIC_FORCEINLINE void __set_MSPLIM(uint32_t MainStackPtrLimit)
 726:Drivers/CMSIS/Include/cmsis_gcc.h **** {
 727:Drivers/CMSIS/Include/cmsis_gcc.h **** #if (!(defined (__ARM_ARCH_8M_MAIN__ ) && (__ARM_ARCH_8M_MAIN__ == 1)) && \
 728:Drivers/CMSIS/Include/cmsis_gcc.h ****     (!defined (__ARM_FEATURE_CMSE) || (__ARM_FEATURE_CMSE < 3)))
 729:Drivers/CMSIS/Include/cmsis_gcc.h ****   // without main extensions, the non-secure MSPLIM is RAZ/WI
 730:Drivers/CMSIS/Include/cmsis_gcc.h ****   (void)MainStackPtrLimit;
 731:Drivers/CMSIS/Include/cmsis_gcc.h **** #else
 732:Drivers/CMSIS/Include/cmsis_gcc.h ****   __ASM volatile ("MSR msplim, %0" : : "r" (MainStackPtrLimit));
 733:Drivers/CMSIS/Include/cmsis_gcc.h **** #endif
 734:Drivers/CMSIS/Include/cmsis_gcc.h **** }
 735:Drivers/CMSIS/Include/cmsis_gcc.h **** 
 736:Drivers/CMSIS/Include/cmsis_gcc.h **** 
 737:Drivers/CMSIS/Include/cmsis_gcc.h **** #if (defined (__ARM_FEATURE_CMSE  ) && (__ARM_FEATURE_CMSE   == 3))
 738:Drivers/CMSIS/Include/cmsis_gcc.h **** /**
 739:Drivers/CMSIS/Include/cmsis_gcc.h ****   \brief   Set Main Stack Pointer Limit (non-secure)
 740:Drivers/CMSIS/Include/cmsis_gcc.h ****   Devices without ARMv8-M Main Extensions (i.e. Cortex-M23) lack the non-secure
 741:Drivers/CMSIS/Include/cmsis_gcc.h ****   Stack Pointer Limit register hence the write is silently ignored.
 742:Drivers/CMSIS/Include/cmsis_gcc.h **** 
 743:Drivers/CMSIS/Include/cmsis_gcc.h ****   \details Assigns the given value to the non-secure Main Stack Pointer Limit (MSPLIM) when in secu
 744:Drivers/CMSIS/Include/cmsis_gcc.h ****   \param [in]    MainStackPtrLimit  Main Stack Pointer value to set
ARM GAS  C:\Users\Rick\AppData\Local\Temp\ccbuSalp.s 			page 71


 745:Drivers/CMSIS/Include/cmsis_gcc.h ****  */
 746:Drivers/CMSIS/Include/cmsis_gcc.h **** __STATIC_FORCEINLINE void __TZ_set_MSPLIM_NS(uint32_t MainStackPtrLimit)
 747:Drivers/CMSIS/Include/cmsis_gcc.h **** {
 748:Drivers/CMSIS/Include/cmsis_gcc.h **** #if (!(defined (__ARM_ARCH_8M_MAIN__ ) && (__ARM_ARCH_8M_MAIN__ == 1)))
 749:Drivers/CMSIS/Include/cmsis_gcc.h ****   // without main extensions, the non-secure MSPLIM is RAZ/WI
 750:Drivers/CMSIS/Include/cmsis_gcc.h ****   (void)MainStackPtrLimit;
 751:Drivers/CMSIS/Include/cmsis_gcc.h **** #else
 752:Drivers/CMSIS/Include/cmsis_gcc.h ****   __ASM volatile ("MSR msplim_ns, %0" : : "r" (MainStackPtrLimit));
 753:Drivers/CMSIS/Include/cmsis_gcc.h **** #endif
 754:Drivers/CMSIS/Include/cmsis_gcc.h **** }
 755:Drivers/CMSIS/Include/cmsis_gcc.h **** #endif
 756:Drivers/CMSIS/Include/cmsis_gcc.h **** 
 757:Drivers/CMSIS/Include/cmsis_gcc.h **** #endif /* ((defined (__ARM_ARCH_8M_MAIN__ ) && (__ARM_ARCH_8M_MAIN__ == 1)) || \
 758:Drivers/CMSIS/Include/cmsis_gcc.h ****            (defined (__ARM_ARCH_8M_BASE__ ) && (__ARM_ARCH_8M_BASE__ == 1))    ) */
 759:Drivers/CMSIS/Include/cmsis_gcc.h **** 
 760:Drivers/CMSIS/Include/cmsis_gcc.h **** 
 761:Drivers/CMSIS/Include/cmsis_gcc.h **** /**
 762:Drivers/CMSIS/Include/cmsis_gcc.h ****   \brief   Get FPSCR
 763:Drivers/CMSIS/Include/cmsis_gcc.h ****   \details Returns the current value of the Floating Point Status/Control register.
 764:Drivers/CMSIS/Include/cmsis_gcc.h ****   \return               Floating Point Status/Control register value
 765:Drivers/CMSIS/Include/cmsis_gcc.h ****  */
 766:Drivers/CMSIS/Include/cmsis_gcc.h **** __STATIC_FORCEINLINE uint32_t __get_FPSCR(void)
 767:Drivers/CMSIS/Include/cmsis_gcc.h **** {
 768:Drivers/CMSIS/Include/cmsis_gcc.h **** #if ((defined (__FPU_PRESENT) && (__FPU_PRESENT == 1U)) && \
 769:Drivers/CMSIS/Include/cmsis_gcc.h ****      (defined (__FPU_USED   ) && (__FPU_USED    == 1U))     )
 770:Drivers/CMSIS/Include/cmsis_gcc.h **** #if __has_builtin(__builtin_arm_get_fpscr) 
 771:Drivers/CMSIS/Include/cmsis_gcc.h **** // Re-enable using built-in when GCC has been fixed
 772:Drivers/CMSIS/Include/cmsis_gcc.h **** // || (__GNUC__ > 7) || (__GNUC__ == 7 && __GNUC_MINOR__ >= 2)
 773:Drivers/CMSIS/Include/cmsis_gcc.h ****   /* see https://gcc.gnu.org/ml/gcc-patches/2017-04/msg00443.html */
 774:Drivers/CMSIS/Include/cmsis_gcc.h ****   return __builtin_arm_get_fpscr();
 775:Drivers/CMSIS/Include/cmsis_gcc.h **** #else
 776:Drivers/CMSIS/Include/cmsis_gcc.h ****   uint32_t result;
 777:Drivers/CMSIS/Include/cmsis_gcc.h **** 
 778:Drivers/CMSIS/Include/cmsis_gcc.h ****   __ASM volatile ("VMRS %0, fpscr" : "=r" (result) );
 779:Drivers/CMSIS/Include/cmsis_gcc.h ****   return(result);
 780:Drivers/CMSIS/Include/cmsis_gcc.h **** #endif
 781:Drivers/CMSIS/Include/cmsis_gcc.h **** #else
 782:Drivers/CMSIS/Include/cmsis_gcc.h ****   return(0U);
 783:Drivers/CMSIS/Include/cmsis_gcc.h **** #endif
 784:Drivers/CMSIS/Include/cmsis_gcc.h **** }
 785:Drivers/CMSIS/Include/cmsis_gcc.h **** 
 786:Drivers/CMSIS/Include/cmsis_gcc.h **** 
 787:Drivers/CMSIS/Include/cmsis_gcc.h **** /**
 788:Drivers/CMSIS/Include/cmsis_gcc.h ****   \brief   Set FPSCR
 789:Drivers/CMSIS/Include/cmsis_gcc.h ****   \details Assigns the given value to the Floating Point Status/Control register.
 790:Drivers/CMSIS/Include/cmsis_gcc.h ****   \param [in]    fpscr  Floating Point Status/Control value to set
 791:Drivers/CMSIS/Include/cmsis_gcc.h ****  */
 792:Drivers/CMSIS/Include/cmsis_gcc.h **** __STATIC_FORCEINLINE void __set_FPSCR(uint32_t fpscr)
 793:Drivers/CMSIS/Include/cmsis_gcc.h **** {
 794:Drivers/CMSIS/Include/cmsis_gcc.h **** #if ((defined (__FPU_PRESENT) && (__FPU_PRESENT == 1U)) && \
 795:Drivers/CMSIS/Include/cmsis_gcc.h ****      (defined (__FPU_USED   ) && (__FPU_USED    == 1U))     )
 796:Drivers/CMSIS/Include/cmsis_gcc.h **** #if __has_builtin(__builtin_arm_set_fpscr)
 797:Drivers/CMSIS/Include/cmsis_gcc.h **** // Re-enable using built-in when GCC has been fixed
 798:Drivers/CMSIS/Include/cmsis_gcc.h **** // || (__GNUC__ > 7) || (__GNUC__ == 7 && __GNUC_MINOR__ >= 2)
 799:Drivers/CMSIS/Include/cmsis_gcc.h ****   /* see https://gcc.gnu.org/ml/gcc-patches/2017-04/msg00443.html */
 800:Drivers/CMSIS/Include/cmsis_gcc.h ****   __builtin_arm_set_fpscr(fpscr);
 801:Drivers/CMSIS/Include/cmsis_gcc.h **** #else
ARM GAS  C:\Users\Rick\AppData\Local\Temp\ccbuSalp.s 			page 72


 802:Drivers/CMSIS/Include/cmsis_gcc.h ****   __ASM volatile ("VMSR fpscr, %0" : : "r" (fpscr) : "vfpcc", "memory");
 803:Drivers/CMSIS/Include/cmsis_gcc.h **** #endif
 804:Drivers/CMSIS/Include/cmsis_gcc.h **** #else
 805:Drivers/CMSIS/Include/cmsis_gcc.h ****   (void)fpscr;
 806:Drivers/CMSIS/Include/cmsis_gcc.h **** #endif
 807:Drivers/CMSIS/Include/cmsis_gcc.h **** }
 808:Drivers/CMSIS/Include/cmsis_gcc.h **** 
 809:Drivers/CMSIS/Include/cmsis_gcc.h **** 
 810:Drivers/CMSIS/Include/cmsis_gcc.h **** /*@} end of CMSIS_Core_RegAccFunctions */
 811:Drivers/CMSIS/Include/cmsis_gcc.h **** 
 812:Drivers/CMSIS/Include/cmsis_gcc.h **** 
 813:Drivers/CMSIS/Include/cmsis_gcc.h **** /* ##########################  Core Instruction Access  ######################### */
 814:Drivers/CMSIS/Include/cmsis_gcc.h **** /** \defgroup CMSIS_Core_InstructionInterface CMSIS Core Instruction Interface
 815:Drivers/CMSIS/Include/cmsis_gcc.h ****   Access to dedicated instructions
 816:Drivers/CMSIS/Include/cmsis_gcc.h ****   @{
 817:Drivers/CMSIS/Include/cmsis_gcc.h **** */
 818:Drivers/CMSIS/Include/cmsis_gcc.h **** 
 819:Drivers/CMSIS/Include/cmsis_gcc.h **** /* Define macros for porting to both thumb1 and thumb2.
 820:Drivers/CMSIS/Include/cmsis_gcc.h ****  * For thumb1, use low register (r0-r7), specified by constraint "l"
 821:Drivers/CMSIS/Include/cmsis_gcc.h ****  * Otherwise, use general registers, specified by constraint "r" */
 822:Drivers/CMSIS/Include/cmsis_gcc.h **** #if defined (__thumb__) && !defined (__thumb2__)
 823:Drivers/CMSIS/Include/cmsis_gcc.h **** #define __CMSIS_GCC_OUT_REG(r) "=l" (r)
 824:Drivers/CMSIS/Include/cmsis_gcc.h **** #define __CMSIS_GCC_RW_REG(r) "+l" (r)
 825:Drivers/CMSIS/Include/cmsis_gcc.h **** #define __CMSIS_GCC_USE_REG(r) "l" (r)
 826:Drivers/CMSIS/Include/cmsis_gcc.h **** #else
 827:Drivers/CMSIS/Include/cmsis_gcc.h **** #define __CMSIS_GCC_OUT_REG(r) "=r" (r)
 828:Drivers/CMSIS/Include/cmsis_gcc.h **** #define __CMSIS_GCC_RW_REG(r) "+r" (r)
 829:Drivers/CMSIS/Include/cmsis_gcc.h **** #define __CMSIS_GCC_USE_REG(r) "r" (r)
 830:Drivers/CMSIS/Include/cmsis_gcc.h **** #endif
 831:Drivers/CMSIS/Include/cmsis_gcc.h **** 
 832:Drivers/CMSIS/Include/cmsis_gcc.h **** /**
 833:Drivers/CMSIS/Include/cmsis_gcc.h ****   \brief   No Operation
 834:Drivers/CMSIS/Include/cmsis_gcc.h ****   \details No Operation does nothing. This instruction can be used for code alignment purposes.
 835:Drivers/CMSIS/Include/cmsis_gcc.h ****  */
 836:Drivers/CMSIS/Include/cmsis_gcc.h **** #define __NOP()                             __ASM volatile ("nop")
 837:Drivers/CMSIS/Include/cmsis_gcc.h **** 
 838:Drivers/CMSIS/Include/cmsis_gcc.h **** /**
 839:Drivers/CMSIS/Include/cmsis_gcc.h ****   \brief   Wait For Interrupt
 840:Drivers/CMSIS/Include/cmsis_gcc.h ****   \details Wait For Interrupt is a hint instruction that suspends execution until one of a number o
 841:Drivers/CMSIS/Include/cmsis_gcc.h ****  */
 842:Drivers/CMSIS/Include/cmsis_gcc.h **** #define __WFI()                             __ASM volatile ("wfi")
 843:Drivers/CMSIS/Include/cmsis_gcc.h **** 
 844:Drivers/CMSIS/Include/cmsis_gcc.h **** 
 845:Drivers/CMSIS/Include/cmsis_gcc.h **** /**
 846:Drivers/CMSIS/Include/cmsis_gcc.h ****   \brief   Wait For Event
 847:Drivers/CMSIS/Include/cmsis_gcc.h ****   \details Wait For Event is a hint instruction that permits the processor to enter
 848:Drivers/CMSIS/Include/cmsis_gcc.h ****            a low-power state until one of a number of events occurs.
 849:Drivers/CMSIS/Include/cmsis_gcc.h ****  */
 850:Drivers/CMSIS/Include/cmsis_gcc.h **** #define __WFE()                             __ASM volatile ("wfe")
 851:Drivers/CMSIS/Include/cmsis_gcc.h **** 
 852:Drivers/CMSIS/Include/cmsis_gcc.h **** 
 853:Drivers/CMSIS/Include/cmsis_gcc.h **** /**
 854:Drivers/CMSIS/Include/cmsis_gcc.h ****   \brief   Send Event
 855:Drivers/CMSIS/Include/cmsis_gcc.h ****   \details Send Event is a hint instruction. It causes an event to be signaled to the CPU.
 856:Drivers/CMSIS/Include/cmsis_gcc.h ****  */
 857:Drivers/CMSIS/Include/cmsis_gcc.h **** #define __SEV()                             __ASM volatile ("sev")
 858:Drivers/CMSIS/Include/cmsis_gcc.h **** 
ARM GAS  C:\Users\Rick\AppData\Local\Temp\ccbuSalp.s 			page 73


 859:Drivers/CMSIS/Include/cmsis_gcc.h **** 
 860:Drivers/CMSIS/Include/cmsis_gcc.h **** /**
 861:Drivers/CMSIS/Include/cmsis_gcc.h ****   \brief   Instruction Synchronization Barrier
 862:Drivers/CMSIS/Include/cmsis_gcc.h ****   \details Instruction Synchronization Barrier flushes the pipeline in the processor,
 863:Drivers/CMSIS/Include/cmsis_gcc.h ****            so that all instructions following the ISB are fetched from cache or memory,
 864:Drivers/CMSIS/Include/cmsis_gcc.h ****            after the instruction has been completed.
 865:Drivers/CMSIS/Include/cmsis_gcc.h ****  */
 866:Drivers/CMSIS/Include/cmsis_gcc.h **** __STATIC_FORCEINLINE void __ISB(void)
 867:Drivers/CMSIS/Include/cmsis_gcc.h **** {
 868:Drivers/CMSIS/Include/cmsis_gcc.h ****   __ASM volatile ("isb 0xF":::"memory");
 869:Drivers/CMSIS/Include/cmsis_gcc.h **** }
 870:Drivers/CMSIS/Include/cmsis_gcc.h **** 
 871:Drivers/CMSIS/Include/cmsis_gcc.h **** 
 872:Drivers/CMSIS/Include/cmsis_gcc.h **** /**
 873:Drivers/CMSIS/Include/cmsis_gcc.h ****   \brief   Data Synchronization Barrier
 874:Drivers/CMSIS/Include/cmsis_gcc.h ****   \details Acts as a special kind of Data Memory Barrier.
 875:Drivers/CMSIS/Include/cmsis_gcc.h ****            It completes when all explicit memory accesses before this instruction complete.
 876:Drivers/CMSIS/Include/cmsis_gcc.h ****  */
 877:Drivers/CMSIS/Include/cmsis_gcc.h **** __STATIC_FORCEINLINE void __DSB(void)
 878:Drivers/CMSIS/Include/cmsis_gcc.h **** {
 879:Drivers/CMSIS/Include/cmsis_gcc.h ****   __ASM volatile ("dsb 0xF":::"memory");
 880:Drivers/CMSIS/Include/cmsis_gcc.h **** }
 881:Drivers/CMSIS/Include/cmsis_gcc.h **** 
 882:Drivers/CMSIS/Include/cmsis_gcc.h **** 
 883:Drivers/CMSIS/Include/cmsis_gcc.h **** /**
 884:Drivers/CMSIS/Include/cmsis_gcc.h ****   \brief   Data Memory Barrier
 885:Drivers/CMSIS/Include/cmsis_gcc.h ****   \details Ensures the apparent order of the explicit memory operations before
 886:Drivers/CMSIS/Include/cmsis_gcc.h ****            and after the instruction, without ensuring their completion.
 887:Drivers/CMSIS/Include/cmsis_gcc.h ****  */
 888:Drivers/CMSIS/Include/cmsis_gcc.h **** __STATIC_FORCEINLINE void __DMB(void)
 889:Drivers/CMSIS/Include/cmsis_gcc.h **** {
 890:Drivers/CMSIS/Include/cmsis_gcc.h ****   __ASM volatile ("dmb 0xF":::"memory");
 891:Drivers/CMSIS/Include/cmsis_gcc.h **** }
 892:Drivers/CMSIS/Include/cmsis_gcc.h **** 
 893:Drivers/CMSIS/Include/cmsis_gcc.h **** 
 894:Drivers/CMSIS/Include/cmsis_gcc.h **** /**
 895:Drivers/CMSIS/Include/cmsis_gcc.h ****   \brief   Reverse byte order (32 bit)
 896:Drivers/CMSIS/Include/cmsis_gcc.h ****   \details Reverses the byte order in unsigned integer value. For example, 0x12345678 becomes 0x785
 897:Drivers/CMSIS/Include/cmsis_gcc.h ****   \param [in]    value  Value to reverse
 898:Drivers/CMSIS/Include/cmsis_gcc.h ****   \return               Reversed value
 899:Drivers/CMSIS/Include/cmsis_gcc.h ****  */
 900:Drivers/CMSIS/Include/cmsis_gcc.h **** __STATIC_FORCEINLINE uint32_t __REV(uint32_t value)
 901:Drivers/CMSIS/Include/cmsis_gcc.h **** {
 902:Drivers/CMSIS/Include/cmsis_gcc.h **** #if (__GNUC__ > 4) || (__GNUC__ == 4 && __GNUC_MINOR__ >= 5)
 903:Drivers/CMSIS/Include/cmsis_gcc.h ****   return __builtin_bswap32(value);
 904:Drivers/CMSIS/Include/cmsis_gcc.h **** #else
 905:Drivers/CMSIS/Include/cmsis_gcc.h ****   uint32_t result;
 906:Drivers/CMSIS/Include/cmsis_gcc.h **** 
 907:Drivers/CMSIS/Include/cmsis_gcc.h ****   __ASM volatile ("rev %0, %1" : __CMSIS_GCC_OUT_REG (result) : __CMSIS_GCC_USE_REG (value) );
 908:Drivers/CMSIS/Include/cmsis_gcc.h ****   return result;
 909:Drivers/CMSIS/Include/cmsis_gcc.h **** #endif
 910:Drivers/CMSIS/Include/cmsis_gcc.h **** }
 911:Drivers/CMSIS/Include/cmsis_gcc.h **** 
 912:Drivers/CMSIS/Include/cmsis_gcc.h **** 
 913:Drivers/CMSIS/Include/cmsis_gcc.h **** /**
 914:Drivers/CMSIS/Include/cmsis_gcc.h ****   \brief   Reverse byte order (16 bit)
 915:Drivers/CMSIS/Include/cmsis_gcc.h ****   \details Reverses the byte order within each halfword of a word. For example, 0x12345678 becomes 
ARM GAS  C:\Users\Rick\AppData\Local\Temp\ccbuSalp.s 			page 74


 916:Drivers/CMSIS/Include/cmsis_gcc.h ****   \param [in]    value  Value to reverse
 917:Drivers/CMSIS/Include/cmsis_gcc.h ****   \return               Reversed value
 918:Drivers/CMSIS/Include/cmsis_gcc.h ****  */
 919:Drivers/CMSIS/Include/cmsis_gcc.h **** __STATIC_FORCEINLINE uint32_t __REV16(uint32_t value)
 920:Drivers/CMSIS/Include/cmsis_gcc.h **** {
 921:Drivers/CMSIS/Include/cmsis_gcc.h ****   uint32_t result;
 922:Drivers/CMSIS/Include/cmsis_gcc.h **** 
 923:Drivers/CMSIS/Include/cmsis_gcc.h ****   __ASM volatile ("rev16 %0, %1" : __CMSIS_GCC_OUT_REG (result) : __CMSIS_GCC_USE_REG (value) );
 924:Drivers/CMSIS/Include/cmsis_gcc.h ****   return result;
 925:Drivers/CMSIS/Include/cmsis_gcc.h **** }
 926:Drivers/CMSIS/Include/cmsis_gcc.h **** 
 927:Drivers/CMSIS/Include/cmsis_gcc.h **** 
 928:Drivers/CMSIS/Include/cmsis_gcc.h **** /**
 929:Drivers/CMSIS/Include/cmsis_gcc.h ****   \brief   Reverse byte order (16 bit)
 930:Drivers/CMSIS/Include/cmsis_gcc.h ****   \details Reverses the byte order in a 16-bit value and returns the signed 16-bit result. For exam
 931:Drivers/CMSIS/Include/cmsis_gcc.h ****   \param [in]    value  Value to reverse
 932:Drivers/CMSIS/Include/cmsis_gcc.h ****   \return               Reversed value
 933:Drivers/CMSIS/Include/cmsis_gcc.h ****  */
 934:Drivers/CMSIS/Include/cmsis_gcc.h **** __STATIC_FORCEINLINE int16_t __REVSH(int16_t value)
 935:Drivers/CMSIS/Include/cmsis_gcc.h **** {
 936:Drivers/CMSIS/Include/cmsis_gcc.h **** #if (__GNUC__ > 4) || (__GNUC__ == 4 && __GNUC_MINOR__ >= 8)
 937:Drivers/CMSIS/Include/cmsis_gcc.h ****   return (int16_t)__builtin_bswap16(value);
 938:Drivers/CMSIS/Include/cmsis_gcc.h **** #else
 939:Drivers/CMSIS/Include/cmsis_gcc.h ****   int16_t result;
 940:Drivers/CMSIS/Include/cmsis_gcc.h **** 
 941:Drivers/CMSIS/Include/cmsis_gcc.h ****   __ASM volatile ("revsh %0, %1" : __CMSIS_GCC_OUT_REG (result) : __CMSIS_GCC_USE_REG (value) );
 942:Drivers/CMSIS/Include/cmsis_gcc.h ****   return result;
 943:Drivers/CMSIS/Include/cmsis_gcc.h **** #endif
 944:Drivers/CMSIS/Include/cmsis_gcc.h **** }
 945:Drivers/CMSIS/Include/cmsis_gcc.h **** 
 946:Drivers/CMSIS/Include/cmsis_gcc.h **** 
 947:Drivers/CMSIS/Include/cmsis_gcc.h **** /**
 948:Drivers/CMSIS/Include/cmsis_gcc.h ****   \brief   Rotate Right in unsigned value (32 bit)
 949:Drivers/CMSIS/Include/cmsis_gcc.h ****   \details Rotate Right (immediate) provides the value of the contents of a register rotated by a v
 950:Drivers/CMSIS/Include/cmsis_gcc.h ****   \param [in]    op1  Value to rotate
 951:Drivers/CMSIS/Include/cmsis_gcc.h ****   \param [in]    op2  Number of Bits to rotate
 952:Drivers/CMSIS/Include/cmsis_gcc.h ****   \return               Rotated value
 953:Drivers/CMSIS/Include/cmsis_gcc.h ****  */
 954:Drivers/CMSIS/Include/cmsis_gcc.h **** __STATIC_FORCEINLINE uint32_t __ROR(uint32_t op1, uint32_t op2)
 955:Drivers/CMSIS/Include/cmsis_gcc.h **** {
 956:Drivers/CMSIS/Include/cmsis_gcc.h ****   op2 %= 32U;
 957:Drivers/CMSIS/Include/cmsis_gcc.h ****   if (op2 == 0U)
 958:Drivers/CMSIS/Include/cmsis_gcc.h ****   {
 959:Drivers/CMSIS/Include/cmsis_gcc.h ****     return op1;
 960:Drivers/CMSIS/Include/cmsis_gcc.h ****   }
 961:Drivers/CMSIS/Include/cmsis_gcc.h ****   return (op1 >> op2) | (op1 << (32U - op2));
 962:Drivers/CMSIS/Include/cmsis_gcc.h **** }
 963:Drivers/CMSIS/Include/cmsis_gcc.h **** 
 964:Drivers/CMSIS/Include/cmsis_gcc.h **** 
 965:Drivers/CMSIS/Include/cmsis_gcc.h **** /**
 966:Drivers/CMSIS/Include/cmsis_gcc.h ****   \brief   Breakpoint
 967:Drivers/CMSIS/Include/cmsis_gcc.h ****   \details Causes the processor to enter Debug state.
 968:Drivers/CMSIS/Include/cmsis_gcc.h ****            Debug tools can use this to investigate system state when the instruction at a particula
 969:Drivers/CMSIS/Include/cmsis_gcc.h ****   \param [in]    value  is ignored by the processor.
 970:Drivers/CMSIS/Include/cmsis_gcc.h ****                  If required, a debugger can use it to store additional information about the break
 971:Drivers/CMSIS/Include/cmsis_gcc.h ****  */
 972:Drivers/CMSIS/Include/cmsis_gcc.h **** #define __BKPT(value)                       __ASM volatile ("bkpt "#value)
ARM GAS  C:\Users\Rick\AppData\Local\Temp\ccbuSalp.s 			page 75


 973:Drivers/CMSIS/Include/cmsis_gcc.h **** 
 974:Drivers/CMSIS/Include/cmsis_gcc.h **** 
 975:Drivers/CMSIS/Include/cmsis_gcc.h **** /**
 976:Drivers/CMSIS/Include/cmsis_gcc.h ****   \brief   Reverse bit order of value
 977:Drivers/CMSIS/Include/cmsis_gcc.h ****   \details Reverses the bit order of the given value.
 978:Drivers/CMSIS/Include/cmsis_gcc.h ****   \param [in]    value  Value to reverse
 979:Drivers/CMSIS/Include/cmsis_gcc.h ****   \return               Reversed value
 980:Drivers/CMSIS/Include/cmsis_gcc.h ****  */
 981:Drivers/CMSIS/Include/cmsis_gcc.h **** __STATIC_FORCEINLINE uint32_t __RBIT(uint32_t value)
 1524              		.loc 2 981 31 view .LVU494
 1525              	.LBB5:
 982:Drivers/CMSIS/Include/cmsis_gcc.h **** {
 983:Drivers/CMSIS/Include/cmsis_gcc.h ****   uint32_t result;
 1526              		.loc 2 983 3 view .LVU495
 984:Drivers/CMSIS/Include/cmsis_gcc.h **** 
 985:Drivers/CMSIS/Include/cmsis_gcc.h **** #if ((defined (__ARM_ARCH_7M__      ) && (__ARM_ARCH_7M__      == 1)) || \
 986:Drivers/CMSIS/Include/cmsis_gcc.h ****      (defined (__ARM_ARCH_7EM__     ) && (__ARM_ARCH_7EM__     == 1)) || \
 987:Drivers/CMSIS/Include/cmsis_gcc.h ****      (defined (__ARM_ARCH_8M_MAIN__ ) && (__ARM_ARCH_8M_MAIN__ == 1))    )
 988:Drivers/CMSIS/Include/cmsis_gcc.h ****    __ASM volatile ("rbit %0, %1" : "=r" (result) : "r" (value) );
 1527              		.loc 2 988 4 view .LVU496
 1528              		.syntax unified
 1529              	@ 988 "Drivers/CMSIS/Include/cmsis_gcc.h" 1
 1530 0010 91FAA1F1 		rbit r1, r1
 1531              	@ 0 "" 2
 1532              	.LVL114:
 989:Drivers/CMSIS/Include/cmsis_gcc.h **** #else
 990:Drivers/CMSIS/Include/cmsis_gcc.h ****   uint32_t s = (4U /*sizeof(v)*/ * 8U) - 1U; /* extra shift needed at end */
 991:Drivers/CMSIS/Include/cmsis_gcc.h **** 
 992:Drivers/CMSIS/Include/cmsis_gcc.h ****   result = value;                      /* r will be reversed bits of v; first get LSB of v */
 993:Drivers/CMSIS/Include/cmsis_gcc.h ****   for (value >>= 1U; value != 0U; value >>= 1U)
 994:Drivers/CMSIS/Include/cmsis_gcc.h ****   {
 995:Drivers/CMSIS/Include/cmsis_gcc.h ****     result <<= 1U;
 996:Drivers/CMSIS/Include/cmsis_gcc.h ****     result |= value & 1U;
 997:Drivers/CMSIS/Include/cmsis_gcc.h ****     s--;
 998:Drivers/CMSIS/Include/cmsis_gcc.h ****   }
 999:Drivers/CMSIS/Include/cmsis_gcc.h ****   result <<= s;                        /* shift when v's highest bits are zero */
1000:Drivers/CMSIS/Include/cmsis_gcc.h **** #endif
1001:Drivers/CMSIS/Include/cmsis_gcc.h ****   return result;
 1533              		.loc 2 1001 3 view .LVU497
 1534              		.loc 2 1001 3 is_stmt 0 view .LVU498
 1535              		.thumb
 1536              		.syntax unified
 1537              	.LBE5:
 1538              	.LBE4:
1460:Drivers/STM32F1xx_HAL_Driver/Src/stm32f1xx_hal_can.c **** 
 1539              		.loc 1 1460 21 view .LVU499
 1540 0014 B1FA81F1 		clz	r1, r1
 1541              	.LVL115:
1463:Drivers/STM32F1xx_HAL_Driver/Src/stm32f1xx_hal_can.c ****   }
 1542              		.loc 1 1463 5 is_stmt 1 view .LVU500
1463:Drivers/STM32F1xx_HAL_Driver/Src/stm32f1xx_hal_can.c ****   }
 1543              		.loc 1 1463 22 is_stmt 0 view .LVU501
 1544 0018 0368     		ldr	r3, [r0]
1463:Drivers/STM32F1xx_HAL_Driver/Src/stm32f1xx_hal_can.c ****   }
 1545              		.loc 1 1463 61 view .LVU502
 1546 001a 1831     		adds	r1, r1, #24
 1547              	.LVL116:
ARM GAS  C:\Users\Rick\AppData\Local\Temp\ccbuSalp.s 			page 76


1463:Drivers/STM32F1xx_HAL_Driver/Src/stm32f1xx_hal_can.c ****   }
 1548              		.loc 1 1463 61 view .LVU503
 1549 001c 03EB0111 		add	r1, r3, r1, lsl #4
 1550              	.LVL117:
1463:Drivers/STM32F1xx_HAL_Driver/Src/stm32f1xx_hal_can.c ****   }
 1551              		.loc 1 1463 61 view .LVU504
 1552 0020 4868     		ldr	r0, [r1, #4]
 1553              	.LVL118:
1463:Drivers/STM32F1xx_HAL_Driver/Src/stm32f1xx_hal_can.c ****   }
 1554              		.loc 1 1463 85 view .LVU505
 1555 0022 000C     		lsrs	r0, r0, #16
 1556              	.LVL119:
1463:Drivers/STM32F1xx_HAL_Driver/Src/stm32f1xx_hal_can.c ****   }
 1557              		.loc 1 1463 85 view .LVU506
 1558 0024 7047     		bx	lr
 1559              		.cfi_endproc
 1560              	.LFE79:
 1562              		.section	.text.HAL_CAN_GetRxMessage,"ax",%progbits
 1563              		.align	1
 1564              		.global	HAL_CAN_GetRxMessage
 1565              		.syntax unified
 1566              		.thumb
 1567              		.thumb_func
 1569              	HAL_CAN_GetRxMessage:
 1570              	.LVL120:
 1571              	.LFB80:
1469:Drivers/STM32F1xx_HAL_Driver/Src/stm32f1xx_hal_can.c **** 
1470:Drivers/STM32F1xx_HAL_Driver/Src/stm32f1xx_hal_can.c **** /**
1471:Drivers/STM32F1xx_HAL_Driver/Src/stm32f1xx_hal_can.c ****   * @brief  Get an CAN frame from the Rx FIFO zone into the message RAM.
1472:Drivers/STM32F1xx_HAL_Driver/Src/stm32f1xx_hal_can.c ****   * @param  hcan pointer to an CAN_HandleTypeDef structure that contains
1473:Drivers/STM32F1xx_HAL_Driver/Src/stm32f1xx_hal_can.c ****   *         the configuration information for the specified CAN.
1474:Drivers/STM32F1xx_HAL_Driver/Src/stm32f1xx_hal_can.c ****   * @param  RxFifo Fifo number of the received message to be read.
1475:Drivers/STM32F1xx_HAL_Driver/Src/stm32f1xx_hal_can.c ****   *         This parameter can be a value of @arg CAN_receive_FIFO_number.
1476:Drivers/STM32F1xx_HAL_Driver/Src/stm32f1xx_hal_can.c ****   * @param  pHeader pointer to a CAN_RxHeaderTypeDef structure where the header
1477:Drivers/STM32F1xx_HAL_Driver/Src/stm32f1xx_hal_can.c ****   *         of the Rx frame will be stored.
1478:Drivers/STM32F1xx_HAL_Driver/Src/stm32f1xx_hal_can.c ****   * @param  aData array where the payload of the Rx frame will be stored.
1479:Drivers/STM32F1xx_HAL_Driver/Src/stm32f1xx_hal_can.c ****   * @retval HAL status
1480:Drivers/STM32F1xx_HAL_Driver/Src/stm32f1xx_hal_can.c ****   */
1481:Drivers/STM32F1xx_HAL_Driver/Src/stm32f1xx_hal_can.c **** HAL_StatusTypeDef HAL_CAN_GetRxMessage(CAN_HandleTypeDef *hcan, uint32_t RxFifo,
1482:Drivers/STM32F1xx_HAL_Driver/Src/stm32f1xx_hal_can.c ****                                        CAN_RxHeaderTypeDef *pHeader, uint8_t aData[])
1483:Drivers/STM32F1xx_HAL_Driver/Src/stm32f1xx_hal_can.c **** {
 1572              		.loc 1 1483 1 is_stmt 1 view -0
 1573              		.cfi_startproc
 1574              		@ args = 0, pretend = 0, frame = 0
 1575              		@ frame_needed = 0, uses_anonymous_args = 0
 1576              		@ link register save eliminated.
1484:Drivers/STM32F1xx_HAL_Driver/Src/stm32f1xx_hal_can.c ****   HAL_CAN_StateTypeDef state = hcan->State;
 1577              		.loc 1 1484 3 view .LVU508
 1578              		.loc 1 1484 24 is_stmt 0 view .LVU509
 1579 0000 90F820C0 		ldrb	ip, [r0, #32]	@ zero_extendqisi2
 1580              	.LVL121:
1485:Drivers/STM32F1xx_HAL_Driver/Src/stm32f1xx_hal_can.c **** 
1486:Drivers/STM32F1xx_HAL_Driver/Src/stm32f1xx_hal_can.c ****   assert_param(IS_CAN_RX_FIFO(RxFifo));
 1581              		.loc 1 1486 3 is_stmt 1 view .LVU510
1487:Drivers/STM32F1xx_HAL_Driver/Src/stm32f1xx_hal_can.c **** 
1488:Drivers/STM32F1xx_HAL_Driver/Src/stm32f1xx_hal_can.c ****   if ((state == HAL_CAN_STATE_READY) ||
 1582              		.loc 1 1488 3 view .LVU511
ARM GAS  C:\Users\Rick\AppData\Local\Temp\ccbuSalp.s 			page 77


 1583              		.loc 1 1488 38 is_stmt 0 view .LVU512
 1584 0004 0CF1FF3C 		add	ip, ip, #-1
 1585              	.LVL122:
 1586              		.loc 1 1488 38 view .LVU513
 1587 0008 5FFA8CFC 		uxtb	ip, ip
 1588              		.loc 1 1488 6 view .LVU514
 1589 000c BCF1010F 		cmp	ip, #1
 1590 0010 00F2A580 		bhi	.L128
1483:Drivers/STM32F1xx_HAL_Driver/Src/stm32f1xx_hal_can.c ****   HAL_CAN_StateTypeDef state = hcan->State;
 1591              		.loc 1 1483 1 view .LVU515
 1592 0014 30B4     		push	{r4, r5}
 1593              	.LCFI10:
 1594              		.cfi_def_cfa_offset 8
 1595              		.cfi_offset 4, -8
 1596              		.cfi_offset 5, -4
1489:Drivers/STM32F1xx_HAL_Driver/Src/stm32f1xx_hal_can.c ****       (state == HAL_CAN_STATE_LISTENING))
1490:Drivers/STM32F1xx_HAL_Driver/Src/stm32f1xx_hal_can.c ****   {
1491:Drivers/STM32F1xx_HAL_Driver/Src/stm32f1xx_hal_can.c ****     /* Check the Rx FIFO */
1492:Drivers/STM32F1xx_HAL_Driver/Src/stm32f1xx_hal_can.c ****     if (RxFifo == CAN_RX_FIFO0) /* Rx element is assigned to Rx FIFO 0 */
 1597              		.loc 1 1492 5 is_stmt 1 view .LVU516
 1598              		.loc 1 1492 8 is_stmt 0 view .LVU517
 1599 0016 51B9     		cbnz	r1, .L129
1493:Drivers/STM32F1xx_HAL_Driver/Src/stm32f1xx_hal_can.c ****     {
1494:Drivers/STM32F1xx_HAL_Driver/Src/stm32f1xx_hal_can.c ****       /* Check that the Rx FIFO 0 is not empty */
1495:Drivers/STM32F1xx_HAL_Driver/Src/stm32f1xx_hal_can.c ****       if ((hcan->Instance->RF0R & CAN_RF0R_FMP0) == 0U)
 1600              		.loc 1 1495 7 is_stmt 1 view .LVU518
 1601              		.loc 1 1495 16 is_stmt 0 view .LVU519
 1602 0018 0468     		ldr	r4, [r0]
 1603              		.loc 1 1495 26 view .LVU520
 1604 001a E468     		ldr	r4, [r4, #12]
 1605              		.loc 1 1495 10 view .LVU521
 1606 001c 14F0030F 		tst	r4, #3
 1607 0020 10D1     		bne	.L130
1496:Drivers/STM32F1xx_HAL_Driver/Src/stm32f1xx_hal_can.c ****       {
1497:Drivers/STM32F1xx_HAL_Driver/Src/stm32f1xx_hal_can.c ****         /* Update error code */
1498:Drivers/STM32F1xx_HAL_Driver/Src/stm32f1xx_hal_can.c ****         hcan->ErrorCode |= HAL_CAN_ERROR_PARAM;
 1608              		.loc 1 1498 9 is_stmt 1 view .LVU522
 1609              		.loc 1 1498 25 is_stmt 0 view .LVU523
 1610 0022 436A     		ldr	r3, [r0, #36]
 1611              	.LVL123:
 1612              		.loc 1 1498 25 view .LVU524
 1613 0024 43F40013 		orr	r3, r3, #2097152
 1614 0028 4362     		str	r3, [r0, #36]
1499:Drivers/STM32F1xx_HAL_Driver/Src/stm32f1xx_hal_can.c **** 
1500:Drivers/STM32F1xx_HAL_Driver/Src/stm32f1xx_hal_can.c ****         return HAL_ERROR;
 1615              		.loc 1 1500 9 is_stmt 1 view .LVU525
 1616              		.loc 1 1500 16 is_stmt 0 view .LVU526
 1617 002a 0120     		movs	r0, #1
 1618              	.LVL124:
 1619              		.loc 1 1500 16 view .LVU527
 1620 002c 7EE0     		b	.L131
 1621              	.LVL125:
 1622              	.L129:
1501:Drivers/STM32F1xx_HAL_Driver/Src/stm32f1xx_hal_can.c ****       }
1502:Drivers/STM32F1xx_HAL_Driver/Src/stm32f1xx_hal_can.c ****     }
1503:Drivers/STM32F1xx_HAL_Driver/Src/stm32f1xx_hal_can.c ****     else /* Rx element is assigned to Rx FIFO 1 */
1504:Drivers/STM32F1xx_HAL_Driver/Src/stm32f1xx_hal_can.c ****     {
ARM GAS  C:\Users\Rick\AppData\Local\Temp\ccbuSalp.s 			page 78


1505:Drivers/STM32F1xx_HAL_Driver/Src/stm32f1xx_hal_can.c ****       /* Check that the Rx FIFO 1 is not empty */
1506:Drivers/STM32F1xx_HAL_Driver/Src/stm32f1xx_hal_can.c ****       if ((hcan->Instance->RF1R & CAN_RF1R_FMP1) == 0U)
 1623              		.loc 1 1506 7 is_stmt 1 view .LVU528
 1624              		.loc 1 1506 16 is_stmt 0 view .LVU529
 1625 002e 0468     		ldr	r4, [r0]
 1626              		.loc 1 1506 26 view .LVU530
 1627 0030 2469     		ldr	r4, [r4, #16]
 1628              		.loc 1 1506 10 view .LVU531
 1629 0032 14F0030F 		tst	r4, #3
 1630 0036 05D1     		bne	.L130
1507:Drivers/STM32F1xx_HAL_Driver/Src/stm32f1xx_hal_can.c ****       {
1508:Drivers/STM32F1xx_HAL_Driver/Src/stm32f1xx_hal_can.c ****         /* Update error code */
1509:Drivers/STM32F1xx_HAL_Driver/Src/stm32f1xx_hal_can.c ****         hcan->ErrorCode |= HAL_CAN_ERROR_PARAM;
 1631              		.loc 1 1509 9 is_stmt 1 view .LVU532
 1632              		.loc 1 1509 25 is_stmt 0 view .LVU533
 1633 0038 436A     		ldr	r3, [r0, #36]
 1634              	.LVL126:
 1635              		.loc 1 1509 25 view .LVU534
 1636 003a 43F40013 		orr	r3, r3, #2097152
 1637 003e 4362     		str	r3, [r0, #36]
1510:Drivers/STM32F1xx_HAL_Driver/Src/stm32f1xx_hal_can.c **** 
1511:Drivers/STM32F1xx_HAL_Driver/Src/stm32f1xx_hal_can.c ****         return HAL_ERROR;
 1638              		.loc 1 1511 9 is_stmt 1 view .LVU535
 1639              		.loc 1 1511 16 is_stmt 0 view .LVU536
 1640 0040 0120     		movs	r0, #1
 1641              	.LVL127:
 1642              		.loc 1 1511 16 view .LVU537
 1643 0042 73E0     		b	.L131
 1644              	.LVL128:
 1645              	.L130:
1512:Drivers/STM32F1xx_HAL_Driver/Src/stm32f1xx_hal_can.c ****       }
1513:Drivers/STM32F1xx_HAL_Driver/Src/stm32f1xx_hal_can.c ****     }
1514:Drivers/STM32F1xx_HAL_Driver/Src/stm32f1xx_hal_can.c **** 
1515:Drivers/STM32F1xx_HAL_Driver/Src/stm32f1xx_hal_can.c ****     /* Get the header */
1516:Drivers/STM32F1xx_HAL_Driver/Src/stm32f1xx_hal_can.c ****     pHeader->IDE = CAN_RI0R_IDE & hcan->Instance->sFIFOMailBox[RxFifo].RIR;
 1646              		.loc 1 1516 5 is_stmt 1 view .LVU538
 1647              		.loc 1 1516 39 is_stmt 0 view .LVU539
 1648 0044 0568     		ldr	r5, [r0]
 1649              		.loc 1 1516 71 view .LVU540
 1650 0046 01F11B04 		add	r4, r1, #27
 1651 004a 2401     		lsls	r4, r4, #4
 1652 004c 2C59     		ldr	r4, [r5, r4]
 1653              		.loc 1 1516 33 view .LVU541
 1654 004e 04F00404 		and	r4, r4, #4
 1655              		.loc 1 1516 18 view .LVU542
 1656 0052 9460     		str	r4, [r2, #8]
1517:Drivers/STM32F1xx_HAL_Driver/Src/stm32f1xx_hal_can.c ****     if (pHeader->IDE == CAN_ID_STD)
 1657              		.loc 1 1517 5 is_stmt 1 view .LVU543
 1658              		.loc 1 1517 8 is_stmt 0 view .LVU544
 1659 0054 002C     		cmp	r4, #0
 1660 0056 6BD1     		bne	.L132
1518:Drivers/STM32F1xx_HAL_Driver/Src/stm32f1xx_hal_can.c ****     {
1519:Drivers/STM32F1xx_HAL_Driver/Src/stm32f1xx_hal_can.c ****       pHeader->StdId = (CAN_RI0R_STID & hcan->Instance->sFIFOMailBox[RxFifo].RIR) >> CAN_TI0R_STID_
 1661              		.loc 1 1519 7 is_stmt 1 view .LVU545
 1662              		.loc 1 1519 45 is_stmt 0 view .LVU546
 1663 0058 0568     		ldr	r5, [r0]
 1664              		.loc 1 1519 77 view .LVU547
ARM GAS  C:\Users\Rick\AppData\Local\Temp\ccbuSalp.s 			page 79


 1665 005a 01F11B04 		add	r4, r1, #27
 1666 005e 2401     		lsls	r4, r4, #4
 1667 0060 2C59     		ldr	r4, [r5, r4]
 1668              		.loc 1 1519 83 view .LVU548
 1669 0062 640D     		lsrs	r4, r4, #21
 1670              		.loc 1 1519 22 view .LVU549
 1671 0064 1460     		str	r4, [r2]
 1672              	.L133:
1520:Drivers/STM32F1xx_HAL_Driver/Src/stm32f1xx_hal_can.c ****     }
1521:Drivers/STM32F1xx_HAL_Driver/Src/stm32f1xx_hal_can.c ****     else
1522:Drivers/STM32F1xx_HAL_Driver/Src/stm32f1xx_hal_can.c ****     {
1523:Drivers/STM32F1xx_HAL_Driver/Src/stm32f1xx_hal_can.c ****       pHeader->ExtId = ((CAN_RI0R_EXID | CAN_RI0R_STID) &
1524:Drivers/STM32F1xx_HAL_Driver/Src/stm32f1xx_hal_can.c ****                         hcan->Instance->sFIFOMailBox[RxFifo].RIR) >> CAN_RI0R_EXID_Pos;
1525:Drivers/STM32F1xx_HAL_Driver/Src/stm32f1xx_hal_can.c ****     }
1526:Drivers/STM32F1xx_HAL_Driver/Src/stm32f1xx_hal_can.c ****     pHeader->RTR = (CAN_RI0R_RTR & hcan->Instance->sFIFOMailBox[RxFifo].RIR);
 1673              		.loc 1 1526 5 is_stmt 1 view .LVU550
 1674              		.loc 1 1526 40 is_stmt 0 view .LVU551
 1675 0066 0468     		ldr	r4, [r0]
 1676              		.loc 1 1526 72 view .LVU552
 1677 0068 01F11B0C 		add	ip, r1, #27
 1678 006c 4FEA0C1C 		lsl	ip, ip, #4
 1679 0070 54F80C40 		ldr	r4, [r4, ip]
 1680              		.loc 1 1526 34 view .LVU553
 1681 0074 04F00204 		and	r4, r4, #2
 1682              		.loc 1 1526 18 view .LVU554
 1683 0078 D460     		str	r4, [r2, #12]
1527:Drivers/STM32F1xx_HAL_Driver/Src/stm32f1xx_hal_can.c ****     if (((CAN_RDT0R_DLC & hcan->Instance->sFIFOMailBox[RxFifo].RDTR) >> CAN_RDT0R_DLC_Pos) >= 8U)
 1684              		.loc 1 1527 5 is_stmt 1 view .LVU555
 1685              		.loc 1 1527 31 is_stmt 0 view .LVU556
 1686 007a 0468     		ldr	r4, [r0]
 1687              		.loc 1 1527 63 view .LVU557
 1688 007c A444     		add	ip, ip, r4
 1689 007e DCF80450 		ldr	r5, [ip, #4]
 1690              		.loc 1 1527 8 view .LVU558
 1691 0082 15F0080F 		tst	r5, #8
 1692 0086 5BD0     		beq	.L134
1528:Drivers/STM32F1xx_HAL_Driver/Src/stm32f1xx_hal_can.c ****     {
1529:Drivers/STM32F1xx_HAL_Driver/Src/stm32f1xx_hal_can.c ****       /* Truncate DLC to 8 if received field is over range */
1530:Drivers/STM32F1xx_HAL_Driver/Src/stm32f1xx_hal_can.c ****       pHeader->DLC = 8U;
 1693              		.loc 1 1530 7 is_stmt 1 view .LVU559
 1694              		.loc 1 1530 20 is_stmt 0 view .LVU560
 1695 0088 0824     		movs	r4, #8
 1696 008a 1461     		str	r4, [r2, #16]
 1697              	.L135:
1531:Drivers/STM32F1xx_HAL_Driver/Src/stm32f1xx_hal_can.c ****     }
1532:Drivers/STM32F1xx_HAL_Driver/Src/stm32f1xx_hal_can.c ****     else
1533:Drivers/STM32F1xx_HAL_Driver/Src/stm32f1xx_hal_can.c ****     {
1534:Drivers/STM32F1xx_HAL_Driver/Src/stm32f1xx_hal_can.c ****       pHeader->DLC = (CAN_RDT0R_DLC & hcan->Instance->sFIFOMailBox[RxFifo].RDTR) >> CAN_RDT0R_DLC_P
1535:Drivers/STM32F1xx_HAL_Driver/Src/stm32f1xx_hal_can.c ****     }
1536:Drivers/STM32F1xx_HAL_Driver/Src/stm32f1xx_hal_can.c ****     pHeader->FilterMatchIndex = (CAN_RDT0R_FMI & hcan->Instance->sFIFOMailBox[RxFifo].RDTR) >> CAN_
 1698              		.loc 1 1536 5 is_stmt 1 view .LVU561
 1699              		.loc 1 1536 54 is_stmt 0 view .LVU562
 1700 008c 0568     		ldr	r5, [r0]
 1701              		.loc 1 1536 86 view .LVU563
 1702 008e 01F11B0C 		add	ip, r1, #27
 1703 0092 05EB0C15 		add	r5, r5, ip, lsl #4
 1704 0096 6D68     		ldr	r5, [r5, #4]
ARM GAS  C:\Users\Rick\AppData\Local\Temp\ccbuSalp.s 			page 80


 1705              		.loc 1 1536 93 view .LVU564
 1706 0098 C5F30725 		ubfx	r5, r5, #8, #8
 1707              		.loc 1 1536 31 view .LVU565
 1708 009c 9561     		str	r5, [r2, #24]
1537:Drivers/STM32F1xx_HAL_Driver/Src/stm32f1xx_hal_can.c ****     pHeader->Timestamp = (CAN_RDT0R_TIME & hcan->Instance->sFIFOMailBox[RxFifo].RDTR) >> CAN_RDT0R_
 1709              		.loc 1 1537 5 is_stmt 1 view .LVU566
 1710              		.loc 1 1537 48 is_stmt 0 view .LVU567
 1711 009e 0468     		ldr	r4, [r0]
 1712              		.loc 1 1537 80 view .LVU568
 1713 00a0 04EB0C14 		add	r4, r4, ip, lsl #4
 1714 00a4 6468     		ldr	r4, [r4, #4]
 1715              		.loc 1 1537 87 view .LVU569
 1716 00a6 240C     		lsrs	r4, r4, #16
 1717              		.loc 1 1537 24 view .LVU570
 1718 00a8 5461     		str	r4, [r2, #20]
1538:Drivers/STM32F1xx_HAL_Driver/Src/stm32f1xx_hal_can.c **** 
1539:Drivers/STM32F1xx_HAL_Driver/Src/stm32f1xx_hal_can.c ****     /* Get the data */
1540:Drivers/STM32F1xx_HAL_Driver/Src/stm32f1xx_hal_can.c ****     aData[0] = (uint8_t)((CAN_RDL0R_DATA0 & hcan->Instance->sFIFOMailBox[RxFifo].RDLR) >> CAN_RDL0R
 1719              		.loc 1 1540 5 is_stmt 1 view .LVU571
 1720              		.loc 1 1540 49 is_stmt 0 view .LVU572
 1721 00aa 0268     		ldr	r2, [r0]
 1722              	.LVL129:
 1723              		.loc 1 1540 81 view .LVU573
 1724 00ac 02EB0112 		add	r2, r2, r1, lsl #4
 1725 00b0 D2F8B821 		ldr	r2, [r2, #440]
 1726              		.loc 1 1540 14 view .LVU574
 1727 00b4 1A70     		strb	r2, [r3]
1541:Drivers/STM32F1xx_HAL_Driver/Src/stm32f1xx_hal_can.c ****     aData[1] = (uint8_t)((CAN_RDL0R_DATA1 & hcan->Instance->sFIFOMailBox[RxFifo].RDLR) >> CAN_RDL0R
 1728              		.loc 1 1541 5 is_stmt 1 view .LVU575
 1729              		.loc 1 1541 49 is_stmt 0 view .LVU576
 1730 00b6 0268     		ldr	r2, [r0]
 1731              		.loc 1 1541 81 view .LVU577
 1732 00b8 02EB0112 		add	r2, r2, r1, lsl #4
 1733 00bc D2F8B821 		ldr	r2, [r2, #440]
 1734              		.loc 1 1541 16 view .LVU578
 1735 00c0 C2F30722 		ubfx	r2, r2, #8, #8
 1736              		.loc 1 1541 14 view .LVU579
 1737 00c4 5A70     		strb	r2, [r3, #1]
1542:Drivers/STM32F1xx_HAL_Driver/Src/stm32f1xx_hal_can.c ****     aData[2] = (uint8_t)((CAN_RDL0R_DATA2 & hcan->Instance->sFIFOMailBox[RxFifo].RDLR) >> CAN_RDL0R
 1738              		.loc 1 1542 5 is_stmt 1 view .LVU580
 1739              		.loc 1 1542 49 is_stmt 0 view .LVU581
 1740 00c6 0268     		ldr	r2, [r0]
 1741              		.loc 1 1542 81 view .LVU582
 1742 00c8 02EB0112 		add	r2, r2, r1, lsl #4
 1743 00cc D2F8B821 		ldr	r2, [r2, #440]
 1744              		.loc 1 1542 16 view .LVU583
 1745 00d0 C2F30742 		ubfx	r2, r2, #16, #8
 1746              		.loc 1 1542 14 view .LVU584
 1747 00d4 9A70     		strb	r2, [r3, #2]
1543:Drivers/STM32F1xx_HAL_Driver/Src/stm32f1xx_hal_can.c ****     aData[3] = (uint8_t)((CAN_RDL0R_DATA3 & hcan->Instance->sFIFOMailBox[RxFifo].RDLR) >> CAN_RDL0R
 1748              		.loc 1 1543 5 is_stmt 1 view .LVU585
 1749              		.loc 1 1543 49 is_stmt 0 view .LVU586
 1750 00d6 0268     		ldr	r2, [r0]
 1751              		.loc 1 1543 81 view .LVU587
 1752 00d8 02EB0112 		add	r2, r2, r1, lsl #4
 1753 00dc D2F8B821 		ldr	r2, [r2, #440]
 1754              		.loc 1 1543 16 view .LVU588
ARM GAS  C:\Users\Rick\AppData\Local\Temp\ccbuSalp.s 			page 81


 1755 00e0 120E     		lsrs	r2, r2, #24
 1756              		.loc 1 1543 14 view .LVU589
 1757 00e2 DA70     		strb	r2, [r3, #3]
1544:Drivers/STM32F1xx_HAL_Driver/Src/stm32f1xx_hal_can.c ****     aData[4] = (uint8_t)((CAN_RDH0R_DATA4 & hcan->Instance->sFIFOMailBox[RxFifo].RDHR) >> CAN_RDH0R
 1758              		.loc 1 1544 5 is_stmt 1 view .LVU590
 1759              		.loc 1 1544 49 is_stmt 0 view .LVU591
 1760 00e4 0268     		ldr	r2, [r0]
 1761              		.loc 1 1544 81 view .LVU592
 1762 00e6 02EB0112 		add	r2, r2, r1, lsl #4
 1763 00ea D2F8BC21 		ldr	r2, [r2, #444]
 1764              		.loc 1 1544 14 view .LVU593
 1765 00ee 1A71     		strb	r2, [r3, #4]
1545:Drivers/STM32F1xx_HAL_Driver/Src/stm32f1xx_hal_can.c ****     aData[5] = (uint8_t)((CAN_RDH0R_DATA5 & hcan->Instance->sFIFOMailBox[RxFifo].RDHR) >> CAN_RDH0R
 1766              		.loc 1 1545 5 is_stmt 1 view .LVU594
 1767              		.loc 1 1545 49 is_stmt 0 view .LVU595
 1768 00f0 0268     		ldr	r2, [r0]
 1769              		.loc 1 1545 81 view .LVU596
 1770 00f2 02EB0112 		add	r2, r2, r1, lsl #4
 1771 00f6 D2F8BC21 		ldr	r2, [r2, #444]
 1772              		.loc 1 1545 16 view .LVU597
 1773 00fa C2F30722 		ubfx	r2, r2, #8, #8
 1774              		.loc 1 1545 14 view .LVU598
 1775 00fe 5A71     		strb	r2, [r3, #5]
1546:Drivers/STM32F1xx_HAL_Driver/Src/stm32f1xx_hal_can.c ****     aData[6] = (uint8_t)((CAN_RDH0R_DATA6 & hcan->Instance->sFIFOMailBox[RxFifo].RDHR) >> CAN_RDH0R
 1776              		.loc 1 1546 5 is_stmt 1 view .LVU599
 1777              		.loc 1 1546 49 is_stmt 0 view .LVU600
 1778 0100 0268     		ldr	r2, [r0]
 1779              		.loc 1 1546 81 view .LVU601
 1780 0102 02EB0112 		add	r2, r2, r1, lsl #4
 1781 0106 D2F8BC21 		ldr	r2, [r2, #444]
 1782              		.loc 1 1546 16 view .LVU602
 1783 010a C2F30742 		ubfx	r2, r2, #16, #8
 1784              		.loc 1 1546 14 view .LVU603
 1785 010e 9A71     		strb	r2, [r3, #6]
1547:Drivers/STM32F1xx_HAL_Driver/Src/stm32f1xx_hal_can.c ****     aData[7] = (uint8_t)((CAN_RDH0R_DATA7 & hcan->Instance->sFIFOMailBox[RxFifo].RDHR) >> CAN_RDH0R
 1786              		.loc 1 1547 5 is_stmt 1 view .LVU604
 1787              		.loc 1 1547 49 is_stmt 0 view .LVU605
 1788 0110 0268     		ldr	r2, [r0]
 1789              		.loc 1 1547 81 view .LVU606
 1790 0112 02EB0112 		add	r2, r2, r1, lsl #4
 1791 0116 D2F8BC21 		ldr	r2, [r2, #444]
 1792              		.loc 1 1547 16 view .LVU607
 1793 011a 120E     		lsrs	r2, r2, #24
 1794              		.loc 1 1547 14 view .LVU608
 1795 011c DA71     		strb	r2, [r3, #7]
1548:Drivers/STM32F1xx_HAL_Driver/Src/stm32f1xx_hal_can.c **** 
1549:Drivers/STM32F1xx_HAL_Driver/Src/stm32f1xx_hal_can.c ****     /* Release the FIFO */
1550:Drivers/STM32F1xx_HAL_Driver/Src/stm32f1xx_hal_can.c ****     if (RxFifo == CAN_RX_FIFO0) /* Rx element is assigned to Rx FIFO 0 */
 1796              		.loc 1 1550 5 is_stmt 1 view .LVU609
 1797              		.loc 1 1550 8 is_stmt 0 view .LVU610
 1798 011e C1B9     		cbnz	r1, .L136
1551:Drivers/STM32F1xx_HAL_Driver/Src/stm32f1xx_hal_can.c ****     {
1552:Drivers/STM32F1xx_HAL_Driver/Src/stm32f1xx_hal_can.c ****       /* Release RX FIFO 0 */
1553:Drivers/STM32F1xx_HAL_Driver/Src/stm32f1xx_hal_can.c ****       SET_BIT(hcan->Instance->RF0R, CAN_RF0R_RFOM0);
 1799              		.loc 1 1553 7 is_stmt 1 view .LVU611
 1800 0120 0268     		ldr	r2, [r0]
 1801 0122 D368     		ldr	r3, [r2, #12]
ARM GAS  C:\Users\Rick\AppData\Local\Temp\ccbuSalp.s 			page 82


 1802              	.LVL130:
 1803              		.loc 1 1553 7 is_stmt 0 view .LVU612
 1804 0124 43F02003 		orr	r3, r3, #32
 1805 0128 D360     		str	r3, [r2, #12]
 1806              	.L137:
1554:Drivers/STM32F1xx_HAL_Driver/Src/stm32f1xx_hal_can.c ****     }
1555:Drivers/STM32F1xx_HAL_Driver/Src/stm32f1xx_hal_can.c ****     else /* Rx element is assigned to Rx FIFO 1 */
1556:Drivers/STM32F1xx_HAL_Driver/Src/stm32f1xx_hal_can.c ****     {
1557:Drivers/STM32F1xx_HAL_Driver/Src/stm32f1xx_hal_can.c ****       /* Release RX FIFO 1 */
1558:Drivers/STM32F1xx_HAL_Driver/Src/stm32f1xx_hal_can.c ****       SET_BIT(hcan->Instance->RF1R, CAN_RF1R_RFOM1);
1559:Drivers/STM32F1xx_HAL_Driver/Src/stm32f1xx_hal_can.c ****     }
1560:Drivers/STM32F1xx_HAL_Driver/Src/stm32f1xx_hal_can.c **** 
1561:Drivers/STM32F1xx_HAL_Driver/Src/stm32f1xx_hal_can.c ****     /* Return function status */
1562:Drivers/STM32F1xx_HAL_Driver/Src/stm32f1xx_hal_can.c ****     return HAL_OK;
 1807              		.loc 1 1562 5 is_stmt 1 view .LVU613
 1808              		.loc 1 1562 12 is_stmt 0 view .LVU614
 1809 012a 0020     		movs	r0, #0
 1810              	.LVL131:
 1811              	.L131:
1563:Drivers/STM32F1xx_HAL_Driver/Src/stm32f1xx_hal_can.c ****   }
1564:Drivers/STM32F1xx_HAL_Driver/Src/stm32f1xx_hal_can.c ****   else
1565:Drivers/STM32F1xx_HAL_Driver/Src/stm32f1xx_hal_can.c ****   {
1566:Drivers/STM32F1xx_HAL_Driver/Src/stm32f1xx_hal_can.c ****     /* Update error code */
1567:Drivers/STM32F1xx_HAL_Driver/Src/stm32f1xx_hal_can.c ****     hcan->ErrorCode |= HAL_CAN_ERROR_NOT_INITIALIZED;
1568:Drivers/STM32F1xx_HAL_Driver/Src/stm32f1xx_hal_can.c **** 
1569:Drivers/STM32F1xx_HAL_Driver/Src/stm32f1xx_hal_can.c ****     return HAL_ERROR;
1570:Drivers/STM32F1xx_HAL_Driver/Src/stm32f1xx_hal_can.c ****   }
1571:Drivers/STM32F1xx_HAL_Driver/Src/stm32f1xx_hal_can.c **** }
 1812              		.loc 1 1571 1 view .LVU615
 1813 012c 30BC     		pop	{r4, r5}
 1814              	.LCFI11:
 1815              		.cfi_remember_state
 1816              		.cfi_restore 5
 1817              		.cfi_restore 4
 1818              		.cfi_def_cfa_offset 0
 1819 012e 7047     		bx	lr
 1820              	.LVL132:
 1821              	.L132:
 1822              	.LCFI12:
 1823              		.cfi_restore_state
1523:Drivers/STM32F1xx_HAL_Driver/Src/stm32f1xx_hal_can.c ****                         hcan->Instance->sFIFOMailBox[RxFifo].RIR) >> CAN_RI0R_EXID_Pos;
 1824              		.loc 1 1523 7 is_stmt 1 view .LVU616
1524:Drivers/STM32F1xx_HAL_Driver/Src/stm32f1xx_hal_can.c ****     }
 1825              		.loc 1 1524 29 is_stmt 0 view .LVU617
 1826 0130 0568     		ldr	r5, [r0]
1524:Drivers/STM32F1xx_HAL_Driver/Src/stm32f1xx_hal_can.c ****     }
 1827              		.loc 1 1524 61 view .LVU618
 1828 0132 01F11B04 		add	r4, r1, #27
 1829 0136 2401     		lsls	r4, r4, #4
 1830 0138 2C59     		ldr	r4, [r5, r4]
1524:Drivers/STM32F1xx_HAL_Driver/Src/stm32f1xx_hal_can.c ****     }
 1831              		.loc 1 1524 67 view .LVU619
 1832 013a E408     		lsrs	r4, r4, #3
1523:Drivers/STM32F1xx_HAL_Driver/Src/stm32f1xx_hal_can.c ****                         hcan->Instance->sFIFOMailBox[RxFifo].RIR) >> CAN_RI0R_EXID_Pos;
 1833              		.loc 1 1523 22 view .LVU620
 1834 013c 5460     		str	r4, [r2, #4]
 1835 013e 92E7     		b	.L133
ARM GAS  C:\Users\Rick\AppData\Local\Temp\ccbuSalp.s 			page 83


 1836              	.L134:
1534:Drivers/STM32F1xx_HAL_Driver/Src/stm32f1xx_hal_can.c ****     }
 1837              		.loc 1 1534 7 is_stmt 1 view .LVU621
1534:Drivers/STM32F1xx_HAL_Driver/Src/stm32f1xx_hal_can.c ****     }
 1838              		.loc 1 1534 75 is_stmt 0 view .LVU622
 1839 0140 01F11B05 		add	r5, r1, #27
 1840 0144 04EB0514 		add	r4, r4, r5, lsl #4
 1841 0148 6468     		ldr	r4, [r4, #4]
1534:Drivers/STM32F1xx_HAL_Driver/Src/stm32f1xx_hal_can.c ****     }
 1842              		.loc 1 1534 82 view .LVU623
 1843 014a 04F00F04 		and	r4, r4, #15
1534:Drivers/STM32F1xx_HAL_Driver/Src/stm32f1xx_hal_can.c ****     }
 1844              		.loc 1 1534 20 view .LVU624
 1845 014e 1461     		str	r4, [r2, #16]
 1846 0150 9CE7     		b	.L135
 1847              	.LVL133:
 1848              	.L136:
1558:Drivers/STM32F1xx_HAL_Driver/Src/stm32f1xx_hal_can.c ****     }
 1849              		.loc 1 1558 7 is_stmt 1 view .LVU625
 1850 0152 0268     		ldr	r2, [r0]
 1851 0154 1369     		ldr	r3, [r2, #16]
 1852              	.LVL134:
1558:Drivers/STM32F1xx_HAL_Driver/Src/stm32f1xx_hal_can.c ****     }
 1853              		.loc 1 1558 7 is_stmt 0 view .LVU626
 1854 0156 43F02003 		orr	r3, r3, #32
 1855 015a 1361     		str	r3, [r2, #16]
 1856 015c E5E7     		b	.L137
 1857              	.LVL135:
 1858              	.L128:
 1859              	.LCFI13:
 1860              		.cfi_def_cfa_offset 0
 1861              		.cfi_restore 4
 1862              		.cfi_restore 5
1567:Drivers/STM32F1xx_HAL_Driver/Src/stm32f1xx_hal_can.c **** 
 1863              		.loc 1 1567 5 is_stmt 1 view .LVU627
1567:Drivers/STM32F1xx_HAL_Driver/Src/stm32f1xx_hal_can.c **** 
 1864              		.loc 1 1567 21 is_stmt 0 view .LVU628
 1865 015e 436A     		ldr	r3, [r0, #36]
 1866              	.LVL136:
1567:Drivers/STM32F1xx_HAL_Driver/Src/stm32f1xx_hal_can.c **** 
 1867              		.loc 1 1567 21 view .LVU629
 1868 0160 43F48023 		orr	r3, r3, #262144
 1869 0164 4362     		str	r3, [r0, #36]
1569:Drivers/STM32F1xx_HAL_Driver/Src/stm32f1xx_hal_can.c ****   }
 1870              		.loc 1 1569 5 is_stmt 1 view .LVU630
1569:Drivers/STM32F1xx_HAL_Driver/Src/stm32f1xx_hal_can.c ****   }
 1871              		.loc 1 1569 12 is_stmt 0 view .LVU631
 1872 0166 0120     		movs	r0, #1
 1873              	.LVL137:
 1874              		.loc 1 1571 1 view .LVU632
 1875 0168 7047     		bx	lr
 1876              		.cfi_endproc
 1877              	.LFE80:
 1879              		.section	.text.HAL_CAN_GetRxFifoFillLevel,"ax",%progbits
 1880              		.align	1
 1881              		.global	HAL_CAN_GetRxFifoFillLevel
 1882              		.syntax unified
ARM GAS  C:\Users\Rick\AppData\Local\Temp\ccbuSalp.s 			page 84


 1883              		.thumb
 1884              		.thumb_func
 1886              	HAL_CAN_GetRxFifoFillLevel:
 1887              	.LVL138:
 1888              	.LFB81:
1572:Drivers/STM32F1xx_HAL_Driver/Src/stm32f1xx_hal_can.c **** 
1573:Drivers/STM32F1xx_HAL_Driver/Src/stm32f1xx_hal_can.c **** /**
1574:Drivers/STM32F1xx_HAL_Driver/Src/stm32f1xx_hal_can.c ****   * @brief  Return Rx FIFO fill level.
1575:Drivers/STM32F1xx_HAL_Driver/Src/stm32f1xx_hal_can.c ****   * @param  hcan pointer to an CAN_HandleTypeDef structure that contains
1576:Drivers/STM32F1xx_HAL_Driver/Src/stm32f1xx_hal_can.c ****   *         the configuration information for the specified CAN.
1577:Drivers/STM32F1xx_HAL_Driver/Src/stm32f1xx_hal_can.c ****   * @param  RxFifo Rx FIFO.
1578:Drivers/STM32F1xx_HAL_Driver/Src/stm32f1xx_hal_can.c ****   *         This parameter can be a value of @arg CAN_receive_FIFO_number.
1579:Drivers/STM32F1xx_HAL_Driver/Src/stm32f1xx_hal_can.c ****   * @retval Number of messages available in Rx FIFO.
1580:Drivers/STM32F1xx_HAL_Driver/Src/stm32f1xx_hal_can.c ****   */
1581:Drivers/STM32F1xx_HAL_Driver/Src/stm32f1xx_hal_can.c **** uint32_t HAL_CAN_GetRxFifoFillLevel(const CAN_HandleTypeDef *hcan, uint32_t RxFifo)
1582:Drivers/STM32F1xx_HAL_Driver/Src/stm32f1xx_hal_can.c **** {
 1889              		.loc 1 1582 1 is_stmt 1 view -0
 1890              		.cfi_startproc
 1891              		@ args = 0, pretend = 0, frame = 0
 1892              		@ frame_needed = 0, uses_anonymous_args = 0
 1893              		@ link register save eliminated.
1583:Drivers/STM32F1xx_HAL_Driver/Src/stm32f1xx_hal_can.c ****   uint32_t filllevel = 0U;
 1894              		.loc 1 1583 3 view .LVU634
1584:Drivers/STM32F1xx_HAL_Driver/Src/stm32f1xx_hal_can.c ****   HAL_CAN_StateTypeDef state = hcan->State;
 1895              		.loc 1 1584 3 view .LVU635
 1896              		.loc 1 1584 24 is_stmt 0 view .LVU636
 1897 0000 90F82030 		ldrb	r3, [r0, #32]	@ zero_extendqisi2
 1898              	.LVL139:
1585:Drivers/STM32F1xx_HAL_Driver/Src/stm32f1xx_hal_can.c **** 
1586:Drivers/STM32F1xx_HAL_Driver/Src/stm32f1xx_hal_can.c ****   /* Check function parameters */
1587:Drivers/STM32F1xx_HAL_Driver/Src/stm32f1xx_hal_can.c ****   assert_param(IS_CAN_RX_FIFO(RxFifo));
 1899              		.loc 1 1587 3 is_stmt 1 view .LVU637
1588:Drivers/STM32F1xx_HAL_Driver/Src/stm32f1xx_hal_can.c **** 
1589:Drivers/STM32F1xx_HAL_Driver/Src/stm32f1xx_hal_can.c ****   if ((state == HAL_CAN_STATE_READY) ||
 1900              		.loc 1 1589 3 view .LVU638
 1901              		.loc 1 1589 38 is_stmt 0 view .LVU639
 1902 0004 013B     		subs	r3, r3, #1
 1903              	.LVL140:
 1904              		.loc 1 1589 38 view .LVU640
 1905 0006 DBB2     		uxtb	r3, r3
 1906              		.loc 1 1589 6 view .LVU641
 1907 0008 012B     		cmp	r3, #1
 1908 000a 01D9     		bls	.L146
1583:Drivers/STM32F1xx_HAL_Driver/Src/stm32f1xx_hal_can.c ****   HAL_CAN_StateTypeDef state = hcan->State;
 1909              		.loc 1 1583 12 view .LVU642
 1910 000c 0020     		movs	r0, #0
 1911              	.LVL141:
1590:Drivers/STM32F1xx_HAL_Driver/Src/stm32f1xx_hal_can.c ****       (state == HAL_CAN_STATE_LISTENING))
1591:Drivers/STM32F1xx_HAL_Driver/Src/stm32f1xx_hal_can.c ****   {
1592:Drivers/STM32F1xx_HAL_Driver/Src/stm32f1xx_hal_can.c ****     if (RxFifo == CAN_RX_FIFO0)
1593:Drivers/STM32F1xx_HAL_Driver/Src/stm32f1xx_hal_can.c ****     {
1594:Drivers/STM32F1xx_HAL_Driver/Src/stm32f1xx_hal_can.c ****       filllevel = hcan->Instance->RF0R & CAN_RF0R_FMP0;
1595:Drivers/STM32F1xx_HAL_Driver/Src/stm32f1xx_hal_can.c ****     }
1596:Drivers/STM32F1xx_HAL_Driver/Src/stm32f1xx_hal_can.c ****     else /* RxFifo == CAN_RX_FIFO1 */
1597:Drivers/STM32F1xx_HAL_Driver/Src/stm32f1xx_hal_can.c ****     {
1598:Drivers/STM32F1xx_HAL_Driver/Src/stm32f1xx_hal_can.c ****       filllevel = hcan->Instance->RF1R & CAN_RF1R_FMP1;
1599:Drivers/STM32F1xx_HAL_Driver/Src/stm32f1xx_hal_can.c ****     }
ARM GAS  C:\Users\Rick\AppData\Local\Temp\ccbuSalp.s 			page 85


1600:Drivers/STM32F1xx_HAL_Driver/Src/stm32f1xx_hal_can.c ****   }
1601:Drivers/STM32F1xx_HAL_Driver/Src/stm32f1xx_hal_can.c **** 
1602:Drivers/STM32F1xx_HAL_Driver/Src/stm32f1xx_hal_can.c ****   /* Return Rx FIFO fill level */
1603:Drivers/STM32F1xx_HAL_Driver/Src/stm32f1xx_hal_can.c ****   return filllevel;
 1912              		.loc 1 1603 3 is_stmt 1 view .LVU643
1604:Drivers/STM32F1xx_HAL_Driver/Src/stm32f1xx_hal_can.c **** }
 1913              		.loc 1 1604 1 is_stmt 0 view .LVU644
 1914 000e 7047     		bx	lr
 1915              	.LVL142:
 1916              	.L146:
1592:Drivers/STM32F1xx_HAL_Driver/Src/stm32f1xx_hal_can.c ****     {
 1917              		.loc 1 1592 5 is_stmt 1 view .LVU645
1592:Drivers/STM32F1xx_HAL_Driver/Src/stm32f1xx_hal_can.c ****     {
 1918              		.loc 1 1592 8 is_stmt 0 view .LVU646
 1919 0010 21B9     		cbnz	r1, .L144
1594:Drivers/STM32F1xx_HAL_Driver/Src/stm32f1xx_hal_can.c ****     }
 1920              		.loc 1 1594 7 is_stmt 1 view .LVU647
1594:Drivers/STM32F1xx_HAL_Driver/Src/stm32f1xx_hal_can.c ****     }
 1921              		.loc 1 1594 23 is_stmt 0 view .LVU648
 1922 0012 0368     		ldr	r3, [r0]
1594:Drivers/STM32F1xx_HAL_Driver/Src/stm32f1xx_hal_can.c ****     }
 1923              		.loc 1 1594 33 view .LVU649
 1924 0014 D868     		ldr	r0, [r3, #12]
 1925              	.LVL143:
1594:Drivers/STM32F1xx_HAL_Driver/Src/stm32f1xx_hal_can.c ****     }
 1926              		.loc 1 1594 17 view .LVU650
 1927 0016 00F00300 		and	r0, r0, #3
 1928              	.LVL144:
1594:Drivers/STM32F1xx_HAL_Driver/Src/stm32f1xx_hal_can.c ****     }
 1929              		.loc 1 1594 17 view .LVU651
 1930 001a 7047     		bx	lr
 1931              	.LVL145:
 1932              	.L144:
1598:Drivers/STM32F1xx_HAL_Driver/Src/stm32f1xx_hal_can.c ****     }
 1933              		.loc 1 1598 7 is_stmt 1 view .LVU652
1598:Drivers/STM32F1xx_HAL_Driver/Src/stm32f1xx_hal_can.c ****     }
 1934              		.loc 1 1598 23 is_stmt 0 view .LVU653
 1935 001c 0368     		ldr	r3, [r0]
1598:Drivers/STM32F1xx_HAL_Driver/Src/stm32f1xx_hal_can.c ****     }
 1936              		.loc 1 1598 33 view .LVU654
 1937 001e 1869     		ldr	r0, [r3, #16]
 1938              	.LVL146:
1598:Drivers/STM32F1xx_HAL_Driver/Src/stm32f1xx_hal_can.c ****     }
 1939              		.loc 1 1598 17 view .LVU655
 1940 0020 00F00300 		and	r0, r0, #3
 1941              	.LVL147:
1598:Drivers/STM32F1xx_HAL_Driver/Src/stm32f1xx_hal_can.c ****     }
 1942              		.loc 1 1598 17 view .LVU656
 1943 0024 7047     		bx	lr
 1944              		.cfi_endproc
 1945              	.LFE81:
 1947              		.section	.text.HAL_CAN_ActivateNotification,"ax",%progbits
 1948              		.align	1
 1949              		.global	HAL_CAN_ActivateNotification
 1950              		.syntax unified
 1951              		.thumb
 1952              		.thumb_func
ARM GAS  C:\Users\Rick\AppData\Local\Temp\ccbuSalp.s 			page 86


 1954              	HAL_CAN_ActivateNotification:
 1955              	.LVL148:
 1956              	.LFB82:
1605:Drivers/STM32F1xx_HAL_Driver/Src/stm32f1xx_hal_can.c **** 
1606:Drivers/STM32F1xx_HAL_Driver/Src/stm32f1xx_hal_can.c **** /**
1607:Drivers/STM32F1xx_HAL_Driver/Src/stm32f1xx_hal_can.c ****   * @}
1608:Drivers/STM32F1xx_HAL_Driver/Src/stm32f1xx_hal_can.c ****   */
1609:Drivers/STM32F1xx_HAL_Driver/Src/stm32f1xx_hal_can.c **** 
1610:Drivers/STM32F1xx_HAL_Driver/Src/stm32f1xx_hal_can.c **** /** @defgroup CAN_Exported_Functions_Group4 Interrupts management
1611:Drivers/STM32F1xx_HAL_Driver/Src/stm32f1xx_hal_can.c ****  *  @brief    Interrupts management
1612:Drivers/STM32F1xx_HAL_Driver/Src/stm32f1xx_hal_can.c ****  *
1613:Drivers/STM32F1xx_HAL_Driver/Src/stm32f1xx_hal_can.c **** @verbatim
1614:Drivers/STM32F1xx_HAL_Driver/Src/stm32f1xx_hal_can.c ****   ==============================================================================
1615:Drivers/STM32F1xx_HAL_Driver/Src/stm32f1xx_hal_can.c ****                        ##### Interrupts management #####
1616:Drivers/STM32F1xx_HAL_Driver/Src/stm32f1xx_hal_can.c ****   ==============================================================================
1617:Drivers/STM32F1xx_HAL_Driver/Src/stm32f1xx_hal_can.c ****     [..]  This section provides functions allowing to:
1618:Drivers/STM32F1xx_HAL_Driver/Src/stm32f1xx_hal_can.c ****       (+) HAL_CAN_ActivateNotification      : Enable interrupts
1619:Drivers/STM32F1xx_HAL_Driver/Src/stm32f1xx_hal_can.c ****       (+) HAL_CAN_DeactivateNotification    : Disable interrupts
1620:Drivers/STM32F1xx_HAL_Driver/Src/stm32f1xx_hal_can.c ****       (+) HAL_CAN_IRQHandler                : Handles CAN interrupt request
1621:Drivers/STM32F1xx_HAL_Driver/Src/stm32f1xx_hal_can.c **** 
1622:Drivers/STM32F1xx_HAL_Driver/Src/stm32f1xx_hal_can.c **** @endverbatim
1623:Drivers/STM32F1xx_HAL_Driver/Src/stm32f1xx_hal_can.c ****   * @{
1624:Drivers/STM32F1xx_HAL_Driver/Src/stm32f1xx_hal_can.c ****   */
1625:Drivers/STM32F1xx_HAL_Driver/Src/stm32f1xx_hal_can.c **** 
1626:Drivers/STM32F1xx_HAL_Driver/Src/stm32f1xx_hal_can.c **** /**
1627:Drivers/STM32F1xx_HAL_Driver/Src/stm32f1xx_hal_can.c ****   * @brief  Enable interrupts.
1628:Drivers/STM32F1xx_HAL_Driver/Src/stm32f1xx_hal_can.c ****   * @param  hcan pointer to an CAN_HandleTypeDef structure that contains
1629:Drivers/STM32F1xx_HAL_Driver/Src/stm32f1xx_hal_can.c ****   *         the configuration information for the specified CAN.
1630:Drivers/STM32F1xx_HAL_Driver/Src/stm32f1xx_hal_can.c ****   * @param  ActiveITs indicates which interrupts will be enabled.
1631:Drivers/STM32F1xx_HAL_Driver/Src/stm32f1xx_hal_can.c ****   *         This parameter can be any combination of @arg CAN_Interrupts.
1632:Drivers/STM32F1xx_HAL_Driver/Src/stm32f1xx_hal_can.c ****   * @retval HAL status
1633:Drivers/STM32F1xx_HAL_Driver/Src/stm32f1xx_hal_can.c ****   */
1634:Drivers/STM32F1xx_HAL_Driver/Src/stm32f1xx_hal_can.c **** HAL_StatusTypeDef HAL_CAN_ActivateNotification(CAN_HandleTypeDef *hcan, uint32_t ActiveITs)
1635:Drivers/STM32F1xx_HAL_Driver/Src/stm32f1xx_hal_can.c **** {
 1957              		.loc 1 1635 1 is_stmt 1 view -0
 1958              		.cfi_startproc
 1959              		@ args = 0, pretend = 0, frame = 0
 1960              		@ frame_needed = 0, uses_anonymous_args = 0
 1961              		@ link register save eliminated.
1636:Drivers/STM32F1xx_HAL_Driver/Src/stm32f1xx_hal_can.c ****   HAL_CAN_StateTypeDef state = hcan->State;
 1962              		.loc 1 1636 3 view .LVU658
 1963              		.loc 1 1636 24 is_stmt 0 view .LVU659
 1964 0000 90F82030 		ldrb	r3, [r0, #32]	@ zero_extendqisi2
 1965              	.LVL149:
1637:Drivers/STM32F1xx_HAL_Driver/Src/stm32f1xx_hal_can.c **** 
1638:Drivers/STM32F1xx_HAL_Driver/Src/stm32f1xx_hal_can.c ****   /* Check function parameters */
1639:Drivers/STM32F1xx_HAL_Driver/Src/stm32f1xx_hal_can.c ****   assert_param(IS_CAN_IT(ActiveITs));
 1966              		.loc 1 1639 3 is_stmt 1 view .LVU660
1640:Drivers/STM32F1xx_HAL_Driver/Src/stm32f1xx_hal_can.c **** 
1641:Drivers/STM32F1xx_HAL_Driver/Src/stm32f1xx_hal_can.c ****   if ((state == HAL_CAN_STATE_READY) ||
 1967              		.loc 1 1641 3 view .LVU661
 1968              		.loc 1 1641 38 is_stmt 0 view .LVU662
 1969 0004 013B     		subs	r3, r3, #1
 1970              	.LVL150:
 1971              		.loc 1 1641 38 view .LVU663
 1972 0006 DBB2     		uxtb	r3, r3
 1973              		.loc 1 1641 6 view .LVU664
ARM GAS  C:\Users\Rick\AppData\Local\Temp\ccbuSalp.s 			page 87


 1974 0008 012B     		cmp	r3, #1
 1975 000a 05D9     		bls	.L150
1642:Drivers/STM32F1xx_HAL_Driver/Src/stm32f1xx_hal_can.c ****       (state == HAL_CAN_STATE_LISTENING))
1643:Drivers/STM32F1xx_HAL_Driver/Src/stm32f1xx_hal_can.c ****   {
1644:Drivers/STM32F1xx_HAL_Driver/Src/stm32f1xx_hal_can.c ****     /* Enable the selected interrupts */
1645:Drivers/STM32F1xx_HAL_Driver/Src/stm32f1xx_hal_can.c ****     __HAL_CAN_ENABLE_IT(hcan, ActiveITs);
1646:Drivers/STM32F1xx_HAL_Driver/Src/stm32f1xx_hal_can.c **** 
1647:Drivers/STM32F1xx_HAL_Driver/Src/stm32f1xx_hal_can.c ****     /* Return function status */
1648:Drivers/STM32F1xx_HAL_Driver/Src/stm32f1xx_hal_can.c ****     return HAL_OK;
1649:Drivers/STM32F1xx_HAL_Driver/Src/stm32f1xx_hal_can.c ****   }
1650:Drivers/STM32F1xx_HAL_Driver/Src/stm32f1xx_hal_can.c ****   else
1651:Drivers/STM32F1xx_HAL_Driver/Src/stm32f1xx_hal_can.c ****   {
1652:Drivers/STM32F1xx_HAL_Driver/Src/stm32f1xx_hal_can.c ****     /* Update error code */
1653:Drivers/STM32F1xx_HAL_Driver/Src/stm32f1xx_hal_can.c ****     hcan->ErrorCode |= HAL_CAN_ERROR_NOT_INITIALIZED;
 1976              		.loc 1 1653 5 is_stmt 1 view .LVU665
 1977              		.loc 1 1653 21 is_stmt 0 view .LVU666
 1978 000c 436A     		ldr	r3, [r0, #36]
 1979 000e 43F48023 		orr	r3, r3, #262144
 1980 0012 4362     		str	r3, [r0, #36]
1654:Drivers/STM32F1xx_HAL_Driver/Src/stm32f1xx_hal_can.c **** 
1655:Drivers/STM32F1xx_HAL_Driver/Src/stm32f1xx_hal_can.c ****     return HAL_ERROR;
 1981              		.loc 1 1655 5 is_stmt 1 view .LVU667
 1982              		.loc 1 1655 12 is_stmt 0 view .LVU668
 1983 0014 0120     		movs	r0, #1
 1984              	.LVL151:
1656:Drivers/STM32F1xx_HAL_Driver/Src/stm32f1xx_hal_can.c ****   }
1657:Drivers/STM32F1xx_HAL_Driver/Src/stm32f1xx_hal_can.c **** }
 1985              		.loc 1 1657 1 view .LVU669
 1986 0016 7047     		bx	lr
 1987              	.LVL152:
 1988              	.L150:
1645:Drivers/STM32F1xx_HAL_Driver/Src/stm32f1xx_hal_can.c **** 
 1989              		.loc 1 1645 5 is_stmt 1 view .LVU670
 1990 0018 0268     		ldr	r2, [r0]
 1991 001a 5369     		ldr	r3, [r2, #20]
 1992 001c 1943     		orrs	r1, r1, r3
 1993              	.LVL153:
1645:Drivers/STM32F1xx_HAL_Driver/Src/stm32f1xx_hal_can.c **** 
 1994              		.loc 1 1645 5 is_stmt 0 view .LVU671
 1995 001e 5161     		str	r1, [r2, #20]
1648:Drivers/STM32F1xx_HAL_Driver/Src/stm32f1xx_hal_can.c ****   }
 1996              		.loc 1 1648 5 is_stmt 1 view .LVU672
1648:Drivers/STM32F1xx_HAL_Driver/Src/stm32f1xx_hal_can.c ****   }
 1997              		.loc 1 1648 12 is_stmt 0 view .LVU673
 1998 0020 0020     		movs	r0, #0
 1999              	.LVL154:
1648:Drivers/STM32F1xx_HAL_Driver/Src/stm32f1xx_hal_can.c ****   }
 2000              		.loc 1 1648 12 view .LVU674
 2001 0022 7047     		bx	lr
 2002              		.cfi_endproc
 2003              	.LFE82:
 2005              		.section	.text.HAL_CAN_DeactivateNotification,"ax",%progbits
 2006              		.align	1
 2007              		.global	HAL_CAN_DeactivateNotification
 2008              		.syntax unified
 2009              		.thumb
 2010              		.thumb_func
ARM GAS  C:\Users\Rick\AppData\Local\Temp\ccbuSalp.s 			page 88


 2012              	HAL_CAN_DeactivateNotification:
 2013              	.LVL155:
 2014              	.LFB83:
1658:Drivers/STM32F1xx_HAL_Driver/Src/stm32f1xx_hal_can.c **** 
1659:Drivers/STM32F1xx_HAL_Driver/Src/stm32f1xx_hal_can.c **** /**
1660:Drivers/STM32F1xx_HAL_Driver/Src/stm32f1xx_hal_can.c ****   * @brief  Disable interrupts.
1661:Drivers/STM32F1xx_HAL_Driver/Src/stm32f1xx_hal_can.c ****   * @param  hcan pointer to an CAN_HandleTypeDef structure that contains
1662:Drivers/STM32F1xx_HAL_Driver/Src/stm32f1xx_hal_can.c ****   *         the configuration information for the specified CAN.
1663:Drivers/STM32F1xx_HAL_Driver/Src/stm32f1xx_hal_can.c ****   * @param  InactiveITs indicates which interrupts will be disabled.
1664:Drivers/STM32F1xx_HAL_Driver/Src/stm32f1xx_hal_can.c ****   *         This parameter can be any combination of @arg CAN_Interrupts.
1665:Drivers/STM32F1xx_HAL_Driver/Src/stm32f1xx_hal_can.c ****   * @retval HAL status
1666:Drivers/STM32F1xx_HAL_Driver/Src/stm32f1xx_hal_can.c ****   */
1667:Drivers/STM32F1xx_HAL_Driver/Src/stm32f1xx_hal_can.c **** HAL_StatusTypeDef HAL_CAN_DeactivateNotification(CAN_HandleTypeDef *hcan, uint32_t InactiveITs)
1668:Drivers/STM32F1xx_HAL_Driver/Src/stm32f1xx_hal_can.c **** {
 2015              		.loc 1 1668 1 is_stmt 1 view -0
 2016              		.cfi_startproc
 2017              		@ args = 0, pretend = 0, frame = 0
 2018              		@ frame_needed = 0, uses_anonymous_args = 0
 2019              		@ link register save eliminated.
1669:Drivers/STM32F1xx_HAL_Driver/Src/stm32f1xx_hal_can.c ****   HAL_CAN_StateTypeDef state = hcan->State;
 2020              		.loc 1 1669 3 view .LVU676
 2021              		.loc 1 1669 24 is_stmt 0 view .LVU677
 2022 0000 90F82030 		ldrb	r3, [r0, #32]	@ zero_extendqisi2
 2023              	.LVL156:
1670:Drivers/STM32F1xx_HAL_Driver/Src/stm32f1xx_hal_can.c **** 
1671:Drivers/STM32F1xx_HAL_Driver/Src/stm32f1xx_hal_can.c ****   /* Check function parameters */
1672:Drivers/STM32F1xx_HAL_Driver/Src/stm32f1xx_hal_can.c ****   assert_param(IS_CAN_IT(InactiveITs));
 2024              		.loc 1 1672 3 is_stmt 1 view .LVU678
1673:Drivers/STM32F1xx_HAL_Driver/Src/stm32f1xx_hal_can.c **** 
1674:Drivers/STM32F1xx_HAL_Driver/Src/stm32f1xx_hal_can.c ****   if ((state == HAL_CAN_STATE_READY) ||
 2025              		.loc 1 1674 3 view .LVU679
 2026              		.loc 1 1674 38 is_stmt 0 view .LVU680
 2027 0004 013B     		subs	r3, r3, #1
 2028              	.LVL157:
 2029              		.loc 1 1674 38 view .LVU681
 2030 0006 DBB2     		uxtb	r3, r3
 2031              		.loc 1 1674 6 view .LVU682
 2032 0008 012B     		cmp	r3, #1
 2033 000a 05D9     		bls	.L154
1675:Drivers/STM32F1xx_HAL_Driver/Src/stm32f1xx_hal_can.c ****       (state == HAL_CAN_STATE_LISTENING))
1676:Drivers/STM32F1xx_HAL_Driver/Src/stm32f1xx_hal_can.c ****   {
1677:Drivers/STM32F1xx_HAL_Driver/Src/stm32f1xx_hal_can.c ****     /* Disable the selected interrupts */
1678:Drivers/STM32F1xx_HAL_Driver/Src/stm32f1xx_hal_can.c ****     __HAL_CAN_DISABLE_IT(hcan, InactiveITs);
1679:Drivers/STM32F1xx_HAL_Driver/Src/stm32f1xx_hal_can.c **** 
1680:Drivers/STM32F1xx_HAL_Driver/Src/stm32f1xx_hal_can.c ****     /* Return function status */
1681:Drivers/STM32F1xx_HAL_Driver/Src/stm32f1xx_hal_can.c ****     return HAL_OK;
1682:Drivers/STM32F1xx_HAL_Driver/Src/stm32f1xx_hal_can.c ****   }
1683:Drivers/STM32F1xx_HAL_Driver/Src/stm32f1xx_hal_can.c ****   else
1684:Drivers/STM32F1xx_HAL_Driver/Src/stm32f1xx_hal_can.c ****   {
1685:Drivers/STM32F1xx_HAL_Driver/Src/stm32f1xx_hal_can.c ****     /* Update error code */
1686:Drivers/STM32F1xx_HAL_Driver/Src/stm32f1xx_hal_can.c ****     hcan->ErrorCode |= HAL_CAN_ERROR_NOT_INITIALIZED;
 2034              		.loc 1 1686 5 is_stmt 1 view .LVU683
 2035              		.loc 1 1686 21 is_stmt 0 view .LVU684
 2036 000c 436A     		ldr	r3, [r0, #36]
 2037 000e 43F48023 		orr	r3, r3, #262144
 2038 0012 4362     		str	r3, [r0, #36]
1687:Drivers/STM32F1xx_HAL_Driver/Src/stm32f1xx_hal_can.c **** 
ARM GAS  C:\Users\Rick\AppData\Local\Temp\ccbuSalp.s 			page 89


1688:Drivers/STM32F1xx_HAL_Driver/Src/stm32f1xx_hal_can.c ****     return HAL_ERROR;
 2039              		.loc 1 1688 5 is_stmt 1 view .LVU685
 2040              		.loc 1 1688 12 is_stmt 0 view .LVU686
 2041 0014 0120     		movs	r0, #1
 2042              	.LVL158:
1689:Drivers/STM32F1xx_HAL_Driver/Src/stm32f1xx_hal_can.c ****   }
1690:Drivers/STM32F1xx_HAL_Driver/Src/stm32f1xx_hal_can.c **** }
 2043              		.loc 1 1690 1 view .LVU687
 2044 0016 7047     		bx	lr
 2045              	.LVL159:
 2046              	.L154:
1678:Drivers/STM32F1xx_HAL_Driver/Src/stm32f1xx_hal_can.c **** 
 2047              		.loc 1 1678 5 is_stmt 1 view .LVU688
 2048 0018 0268     		ldr	r2, [r0]
 2049 001a 5369     		ldr	r3, [r2, #20]
 2050 001c 23EA0101 		bic	r1, r3, r1
 2051              	.LVL160:
1678:Drivers/STM32F1xx_HAL_Driver/Src/stm32f1xx_hal_can.c **** 
 2052              		.loc 1 1678 5 is_stmt 0 view .LVU689
 2053 0020 5161     		str	r1, [r2, #20]
1681:Drivers/STM32F1xx_HAL_Driver/Src/stm32f1xx_hal_can.c ****   }
 2054              		.loc 1 1681 5 is_stmt 1 view .LVU690
1681:Drivers/STM32F1xx_HAL_Driver/Src/stm32f1xx_hal_can.c ****   }
 2055              		.loc 1 1681 12 is_stmt 0 view .LVU691
 2056 0022 0020     		movs	r0, #0
 2057              	.LVL161:
1681:Drivers/STM32F1xx_HAL_Driver/Src/stm32f1xx_hal_can.c ****   }
 2058              		.loc 1 1681 12 view .LVU692
 2059 0024 7047     		bx	lr
 2060              		.cfi_endproc
 2061              	.LFE83:
 2063              		.section	.text.HAL_CAN_TxMailbox0CompleteCallback,"ax",%progbits
 2064              		.align	1
 2065              		.weak	HAL_CAN_TxMailbox0CompleteCallback
 2066              		.syntax unified
 2067              		.thumb
 2068              		.thumb_func
 2070              	HAL_CAN_TxMailbox0CompleteCallback:
 2071              	.LVL162:
 2072              	.LFB85:
1691:Drivers/STM32F1xx_HAL_Driver/Src/stm32f1xx_hal_can.c **** 
1692:Drivers/STM32F1xx_HAL_Driver/Src/stm32f1xx_hal_can.c **** /**
1693:Drivers/STM32F1xx_HAL_Driver/Src/stm32f1xx_hal_can.c ****   * @brief  Handles CAN interrupt request
1694:Drivers/STM32F1xx_HAL_Driver/Src/stm32f1xx_hal_can.c ****   * @param  hcan pointer to a CAN_HandleTypeDef structure that contains
1695:Drivers/STM32F1xx_HAL_Driver/Src/stm32f1xx_hal_can.c ****   *         the configuration information for the specified CAN.
1696:Drivers/STM32F1xx_HAL_Driver/Src/stm32f1xx_hal_can.c ****   * @retval None
1697:Drivers/STM32F1xx_HAL_Driver/Src/stm32f1xx_hal_can.c ****   */
1698:Drivers/STM32F1xx_HAL_Driver/Src/stm32f1xx_hal_can.c **** void HAL_CAN_IRQHandler(CAN_HandleTypeDef *hcan)
1699:Drivers/STM32F1xx_HAL_Driver/Src/stm32f1xx_hal_can.c **** {
1700:Drivers/STM32F1xx_HAL_Driver/Src/stm32f1xx_hal_can.c ****   uint32_t errorcode = HAL_CAN_ERROR_NONE;
1701:Drivers/STM32F1xx_HAL_Driver/Src/stm32f1xx_hal_can.c ****   uint32_t interrupts = READ_REG(hcan->Instance->IER);
1702:Drivers/STM32F1xx_HAL_Driver/Src/stm32f1xx_hal_can.c ****   uint32_t msrflags = READ_REG(hcan->Instance->MSR);
1703:Drivers/STM32F1xx_HAL_Driver/Src/stm32f1xx_hal_can.c ****   uint32_t tsrflags = READ_REG(hcan->Instance->TSR);
1704:Drivers/STM32F1xx_HAL_Driver/Src/stm32f1xx_hal_can.c ****   uint32_t rf0rflags = READ_REG(hcan->Instance->RF0R);
1705:Drivers/STM32F1xx_HAL_Driver/Src/stm32f1xx_hal_can.c ****   uint32_t rf1rflags = READ_REG(hcan->Instance->RF1R);
1706:Drivers/STM32F1xx_HAL_Driver/Src/stm32f1xx_hal_can.c ****   uint32_t esrflags = READ_REG(hcan->Instance->ESR);
1707:Drivers/STM32F1xx_HAL_Driver/Src/stm32f1xx_hal_can.c **** 
ARM GAS  C:\Users\Rick\AppData\Local\Temp\ccbuSalp.s 			page 90


1708:Drivers/STM32F1xx_HAL_Driver/Src/stm32f1xx_hal_can.c ****   /* Transmit Mailbox empty interrupt management *****************************/
1709:Drivers/STM32F1xx_HAL_Driver/Src/stm32f1xx_hal_can.c ****   if ((interrupts & CAN_IT_TX_MAILBOX_EMPTY) != 0U)
1710:Drivers/STM32F1xx_HAL_Driver/Src/stm32f1xx_hal_can.c ****   {
1711:Drivers/STM32F1xx_HAL_Driver/Src/stm32f1xx_hal_can.c ****     /* Transmit Mailbox 0 management *****************************************/
1712:Drivers/STM32F1xx_HAL_Driver/Src/stm32f1xx_hal_can.c ****     if ((tsrflags & CAN_TSR_RQCP0) != 0U)
1713:Drivers/STM32F1xx_HAL_Driver/Src/stm32f1xx_hal_can.c ****     {
1714:Drivers/STM32F1xx_HAL_Driver/Src/stm32f1xx_hal_can.c ****       /* Clear the Transmission Complete flag (and TXOK0,ALST0,TERR0 bits) */
1715:Drivers/STM32F1xx_HAL_Driver/Src/stm32f1xx_hal_can.c ****       __HAL_CAN_CLEAR_FLAG(hcan, CAN_FLAG_RQCP0);
1716:Drivers/STM32F1xx_HAL_Driver/Src/stm32f1xx_hal_can.c **** 
1717:Drivers/STM32F1xx_HAL_Driver/Src/stm32f1xx_hal_can.c ****       if ((tsrflags & CAN_TSR_TXOK0) != 0U)
1718:Drivers/STM32F1xx_HAL_Driver/Src/stm32f1xx_hal_can.c ****       {
1719:Drivers/STM32F1xx_HAL_Driver/Src/stm32f1xx_hal_can.c ****         /* Transmission Mailbox 0 complete callback */
1720:Drivers/STM32F1xx_HAL_Driver/Src/stm32f1xx_hal_can.c **** #if USE_HAL_CAN_REGISTER_CALLBACKS == 1
1721:Drivers/STM32F1xx_HAL_Driver/Src/stm32f1xx_hal_can.c ****         /* Call registered callback*/
1722:Drivers/STM32F1xx_HAL_Driver/Src/stm32f1xx_hal_can.c ****         hcan->TxMailbox0CompleteCallback(hcan);
1723:Drivers/STM32F1xx_HAL_Driver/Src/stm32f1xx_hal_can.c **** #else
1724:Drivers/STM32F1xx_HAL_Driver/Src/stm32f1xx_hal_can.c ****         /* Call weak (surcharged) callback */
1725:Drivers/STM32F1xx_HAL_Driver/Src/stm32f1xx_hal_can.c ****         HAL_CAN_TxMailbox0CompleteCallback(hcan);
1726:Drivers/STM32F1xx_HAL_Driver/Src/stm32f1xx_hal_can.c **** #endif /* USE_HAL_CAN_REGISTER_CALLBACKS */
1727:Drivers/STM32F1xx_HAL_Driver/Src/stm32f1xx_hal_can.c ****       }
1728:Drivers/STM32F1xx_HAL_Driver/Src/stm32f1xx_hal_can.c ****       else
1729:Drivers/STM32F1xx_HAL_Driver/Src/stm32f1xx_hal_can.c ****       {
1730:Drivers/STM32F1xx_HAL_Driver/Src/stm32f1xx_hal_can.c ****         if ((tsrflags & CAN_TSR_ALST0) != 0U)
1731:Drivers/STM32F1xx_HAL_Driver/Src/stm32f1xx_hal_can.c ****         {
1732:Drivers/STM32F1xx_HAL_Driver/Src/stm32f1xx_hal_can.c ****           /* Update error code */
1733:Drivers/STM32F1xx_HAL_Driver/Src/stm32f1xx_hal_can.c ****           errorcode |= HAL_CAN_ERROR_TX_ALST0;
1734:Drivers/STM32F1xx_HAL_Driver/Src/stm32f1xx_hal_can.c ****         }
1735:Drivers/STM32F1xx_HAL_Driver/Src/stm32f1xx_hal_can.c ****         else if ((tsrflags & CAN_TSR_TERR0) != 0U)
1736:Drivers/STM32F1xx_HAL_Driver/Src/stm32f1xx_hal_can.c ****         {
1737:Drivers/STM32F1xx_HAL_Driver/Src/stm32f1xx_hal_can.c ****           /* Update error code */
1738:Drivers/STM32F1xx_HAL_Driver/Src/stm32f1xx_hal_can.c ****           errorcode |= HAL_CAN_ERROR_TX_TERR0;
1739:Drivers/STM32F1xx_HAL_Driver/Src/stm32f1xx_hal_can.c ****         }
1740:Drivers/STM32F1xx_HAL_Driver/Src/stm32f1xx_hal_can.c ****         else
1741:Drivers/STM32F1xx_HAL_Driver/Src/stm32f1xx_hal_can.c ****         {
1742:Drivers/STM32F1xx_HAL_Driver/Src/stm32f1xx_hal_can.c ****           /* Transmission Mailbox 0 abort callback */
1743:Drivers/STM32F1xx_HAL_Driver/Src/stm32f1xx_hal_can.c **** #if USE_HAL_CAN_REGISTER_CALLBACKS == 1
1744:Drivers/STM32F1xx_HAL_Driver/Src/stm32f1xx_hal_can.c ****           /* Call registered callback*/
1745:Drivers/STM32F1xx_HAL_Driver/Src/stm32f1xx_hal_can.c ****           hcan->TxMailbox0AbortCallback(hcan);
1746:Drivers/STM32F1xx_HAL_Driver/Src/stm32f1xx_hal_can.c **** #else
1747:Drivers/STM32F1xx_HAL_Driver/Src/stm32f1xx_hal_can.c ****           /* Call weak (surcharged) callback */
1748:Drivers/STM32F1xx_HAL_Driver/Src/stm32f1xx_hal_can.c ****           HAL_CAN_TxMailbox0AbortCallback(hcan);
1749:Drivers/STM32F1xx_HAL_Driver/Src/stm32f1xx_hal_can.c **** #endif /* USE_HAL_CAN_REGISTER_CALLBACKS */
1750:Drivers/STM32F1xx_HAL_Driver/Src/stm32f1xx_hal_can.c ****         }
1751:Drivers/STM32F1xx_HAL_Driver/Src/stm32f1xx_hal_can.c ****       }
1752:Drivers/STM32F1xx_HAL_Driver/Src/stm32f1xx_hal_can.c ****     }
1753:Drivers/STM32F1xx_HAL_Driver/Src/stm32f1xx_hal_can.c **** 
1754:Drivers/STM32F1xx_HAL_Driver/Src/stm32f1xx_hal_can.c ****     /* Transmit Mailbox 1 management *****************************************/
1755:Drivers/STM32F1xx_HAL_Driver/Src/stm32f1xx_hal_can.c ****     if ((tsrflags & CAN_TSR_RQCP1) != 0U)
1756:Drivers/STM32F1xx_HAL_Driver/Src/stm32f1xx_hal_can.c ****     {
1757:Drivers/STM32F1xx_HAL_Driver/Src/stm32f1xx_hal_can.c ****       /* Clear the Transmission Complete flag (and TXOK1,ALST1,TERR1 bits) */
1758:Drivers/STM32F1xx_HAL_Driver/Src/stm32f1xx_hal_can.c ****       __HAL_CAN_CLEAR_FLAG(hcan, CAN_FLAG_RQCP1);
1759:Drivers/STM32F1xx_HAL_Driver/Src/stm32f1xx_hal_can.c **** 
1760:Drivers/STM32F1xx_HAL_Driver/Src/stm32f1xx_hal_can.c ****       if ((tsrflags & CAN_TSR_TXOK1) != 0U)
1761:Drivers/STM32F1xx_HAL_Driver/Src/stm32f1xx_hal_can.c ****       {
1762:Drivers/STM32F1xx_HAL_Driver/Src/stm32f1xx_hal_can.c ****         /* Transmission Mailbox 1 complete callback */
1763:Drivers/STM32F1xx_HAL_Driver/Src/stm32f1xx_hal_can.c **** #if USE_HAL_CAN_REGISTER_CALLBACKS == 1
1764:Drivers/STM32F1xx_HAL_Driver/Src/stm32f1xx_hal_can.c ****         /* Call registered callback*/
ARM GAS  C:\Users\Rick\AppData\Local\Temp\ccbuSalp.s 			page 91


1765:Drivers/STM32F1xx_HAL_Driver/Src/stm32f1xx_hal_can.c ****         hcan->TxMailbox1CompleteCallback(hcan);
1766:Drivers/STM32F1xx_HAL_Driver/Src/stm32f1xx_hal_can.c **** #else
1767:Drivers/STM32F1xx_HAL_Driver/Src/stm32f1xx_hal_can.c ****         /* Call weak (surcharged) callback */
1768:Drivers/STM32F1xx_HAL_Driver/Src/stm32f1xx_hal_can.c ****         HAL_CAN_TxMailbox1CompleteCallback(hcan);
1769:Drivers/STM32F1xx_HAL_Driver/Src/stm32f1xx_hal_can.c **** #endif /* USE_HAL_CAN_REGISTER_CALLBACKS */
1770:Drivers/STM32F1xx_HAL_Driver/Src/stm32f1xx_hal_can.c ****       }
1771:Drivers/STM32F1xx_HAL_Driver/Src/stm32f1xx_hal_can.c ****       else
1772:Drivers/STM32F1xx_HAL_Driver/Src/stm32f1xx_hal_can.c ****       {
1773:Drivers/STM32F1xx_HAL_Driver/Src/stm32f1xx_hal_can.c ****         if ((tsrflags & CAN_TSR_ALST1) != 0U)
1774:Drivers/STM32F1xx_HAL_Driver/Src/stm32f1xx_hal_can.c ****         {
1775:Drivers/STM32F1xx_HAL_Driver/Src/stm32f1xx_hal_can.c ****           /* Update error code */
1776:Drivers/STM32F1xx_HAL_Driver/Src/stm32f1xx_hal_can.c ****           errorcode |= HAL_CAN_ERROR_TX_ALST1;
1777:Drivers/STM32F1xx_HAL_Driver/Src/stm32f1xx_hal_can.c ****         }
1778:Drivers/STM32F1xx_HAL_Driver/Src/stm32f1xx_hal_can.c ****         else if ((tsrflags & CAN_TSR_TERR1) != 0U)
1779:Drivers/STM32F1xx_HAL_Driver/Src/stm32f1xx_hal_can.c ****         {
1780:Drivers/STM32F1xx_HAL_Driver/Src/stm32f1xx_hal_can.c ****           /* Update error code */
1781:Drivers/STM32F1xx_HAL_Driver/Src/stm32f1xx_hal_can.c ****           errorcode |= HAL_CAN_ERROR_TX_TERR1;
1782:Drivers/STM32F1xx_HAL_Driver/Src/stm32f1xx_hal_can.c ****         }
1783:Drivers/STM32F1xx_HAL_Driver/Src/stm32f1xx_hal_can.c ****         else
1784:Drivers/STM32F1xx_HAL_Driver/Src/stm32f1xx_hal_can.c ****         {
1785:Drivers/STM32F1xx_HAL_Driver/Src/stm32f1xx_hal_can.c ****           /* Transmission Mailbox 1 abort callback */
1786:Drivers/STM32F1xx_HAL_Driver/Src/stm32f1xx_hal_can.c **** #if USE_HAL_CAN_REGISTER_CALLBACKS == 1
1787:Drivers/STM32F1xx_HAL_Driver/Src/stm32f1xx_hal_can.c ****           /* Call registered callback*/
1788:Drivers/STM32F1xx_HAL_Driver/Src/stm32f1xx_hal_can.c ****           hcan->TxMailbox1AbortCallback(hcan);
1789:Drivers/STM32F1xx_HAL_Driver/Src/stm32f1xx_hal_can.c **** #else
1790:Drivers/STM32F1xx_HAL_Driver/Src/stm32f1xx_hal_can.c ****           /* Call weak (surcharged) callback */
1791:Drivers/STM32F1xx_HAL_Driver/Src/stm32f1xx_hal_can.c ****           HAL_CAN_TxMailbox1AbortCallback(hcan);
1792:Drivers/STM32F1xx_HAL_Driver/Src/stm32f1xx_hal_can.c **** #endif /* USE_HAL_CAN_REGISTER_CALLBACKS */
1793:Drivers/STM32F1xx_HAL_Driver/Src/stm32f1xx_hal_can.c ****         }
1794:Drivers/STM32F1xx_HAL_Driver/Src/stm32f1xx_hal_can.c ****       }
1795:Drivers/STM32F1xx_HAL_Driver/Src/stm32f1xx_hal_can.c ****     }
1796:Drivers/STM32F1xx_HAL_Driver/Src/stm32f1xx_hal_can.c **** 
1797:Drivers/STM32F1xx_HAL_Driver/Src/stm32f1xx_hal_can.c ****     /* Transmit Mailbox 2 management *****************************************/
1798:Drivers/STM32F1xx_HAL_Driver/Src/stm32f1xx_hal_can.c ****     if ((tsrflags & CAN_TSR_RQCP2) != 0U)
1799:Drivers/STM32F1xx_HAL_Driver/Src/stm32f1xx_hal_can.c ****     {
1800:Drivers/STM32F1xx_HAL_Driver/Src/stm32f1xx_hal_can.c ****       /* Clear the Transmission Complete flag (and TXOK2,ALST2,TERR2 bits) */
1801:Drivers/STM32F1xx_HAL_Driver/Src/stm32f1xx_hal_can.c ****       __HAL_CAN_CLEAR_FLAG(hcan, CAN_FLAG_RQCP2);
1802:Drivers/STM32F1xx_HAL_Driver/Src/stm32f1xx_hal_can.c **** 
1803:Drivers/STM32F1xx_HAL_Driver/Src/stm32f1xx_hal_can.c ****       if ((tsrflags & CAN_TSR_TXOK2) != 0U)
1804:Drivers/STM32F1xx_HAL_Driver/Src/stm32f1xx_hal_can.c ****       {
1805:Drivers/STM32F1xx_HAL_Driver/Src/stm32f1xx_hal_can.c ****         /* Transmission Mailbox 2 complete callback */
1806:Drivers/STM32F1xx_HAL_Driver/Src/stm32f1xx_hal_can.c **** #if USE_HAL_CAN_REGISTER_CALLBACKS == 1
1807:Drivers/STM32F1xx_HAL_Driver/Src/stm32f1xx_hal_can.c ****         /* Call registered callback*/
1808:Drivers/STM32F1xx_HAL_Driver/Src/stm32f1xx_hal_can.c ****         hcan->TxMailbox2CompleteCallback(hcan);
1809:Drivers/STM32F1xx_HAL_Driver/Src/stm32f1xx_hal_can.c **** #else
1810:Drivers/STM32F1xx_HAL_Driver/Src/stm32f1xx_hal_can.c ****         /* Call weak (surcharged) callback */
1811:Drivers/STM32F1xx_HAL_Driver/Src/stm32f1xx_hal_can.c ****         HAL_CAN_TxMailbox2CompleteCallback(hcan);
1812:Drivers/STM32F1xx_HAL_Driver/Src/stm32f1xx_hal_can.c **** #endif /* USE_HAL_CAN_REGISTER_CALLBACKS */
1813:Drivers/STM32F1xx_HAL_Driver/Src/stm32f1xx_hal_can.c ****       }
1814:Drivers/STM32F1xx_HAL_Driver/Src/stm32f1xx_hal_can.c ****       else
1815:Drivers/STM32F1xx_HAL_Driver/Src/stm32f1xx_hal_can.c ****       {
1816:Drivers/STM32F1xx_HAL_Driver/Src/stm32f1xx_hal_can.c ****         if ((tsrflags & CAN_TSR_ALST2) != 0U)
1817:Drivers/STM32F1xx_HAL_Driver/Src/stm32f1xx_hal_can.c ****         {
1818:Drivers/STM32F1xx_HAL_Driver/Src/stm32f1xx_hal_can.c ****           /* Update error code */
1819:Drivers/STM32F1xx_HAL_Driver/Src/stm32f1xx_hal_can.c ****           errorcode |= HAL_CAN_ERROR_TX_ALST2;
1820:Drivers/STM32F1xx_HAL_Driver/Src/stm32f1xx_hal_can.c ****         }
1821:Drivers/STM32F1xx_HAL_Driver/Src/stm32f1xx_hal_can.c ****         else if ((tsrflags & CAN_TSR_TERR2) != 0U)
ARM GAS  C:\Users\Rick\AppData\Local\Temp\ccbuSalp.s 			page 92


1822:Drivers/STM32F1xx_HAL_Driver/Src/stm32f1xx_hal_can.c ****         {
1823:Drivers/STM32F1xx_HAL_Driver/Src/stm32f1xx_hal_can.c ****           /* Update error code */
1824:Drivers/STM32F1xx_HAL_Driver/Src/stm32f1xx_hal_can.c ****           errorcode |= HAL_CAN_ERROR_TX_TERR2;
1825:Drivers/STM32F1xx_HAL_Driver/Src/stm32f1xx_hal_can.c ****         }
1826:Drivers/STM32F1xx_HAL_Driver/Src/stm32f1xx_hal_can.c ****         else
1827:Drivers/STM32F1xx_HAL_Driver/Src/stm32f1xx_hal_can.c ****         {
1828:Drivers/STM32F1xx_HAL_Driver/Src/stm32f1xx_hal_can.c ****           /* Transmission Mailbox 2 abort callback */
1829:Drivers/STM32F1xx_HAL_Driver/Src/stm32f1xx_hal_can.c **** #if USE_HAL_CAN_REGISTER_CALLBACKS == 1
1830:Drivers/STM32F1xx_HAL_Driver/Src/stm32f1xx_hal_can.c ****           /* Call registered callback*/
1831:Drivers/STM32F1xx_HAL_Driver/Src/stm32f1xx_hal_can.c ****           hcan->TxMailbox2AbortCallback(hcan);
1832:Drivers/STM32F1xx_HAL_Driver/Src/stm32f1xx_hal_can.c **** #else
1833:Drivers/STM32F1xx_HAL_Driver/Src/stm32f1xx_hal_can.c ****           /* Call weak (surcharged) callback */
1834:Drivers/STM32F1xx_HAL_Driver/Src/stm32f1xx_hal_can.c ****           HAL_CAN_TxMailbox2AbortCallback(hcan);
1835:Drivers/STM32F1xx_HAL_Driver/Src/stm32f1xx_hal_can.c **** #endif /* USE_HAL_CAN_REGISTER_CALLBACKS */
1836:Drivers/STM32F1xx_HAL_Driver/Src/stm32f1xx_hal_can.c ****         }
1837:Drivers/STM32F1xx_HAL_Driver/Src/stm32f1xx_hal_can.c ****       }
1838:Drivers/STM32F1xx_HAL_Driver/Src/stm32f1xx_hal_can.c ****     }
1839:Drivers/STM32F1xx_HAL_Driver/Src/stm32f1xx_hal_can.c ****   }
1840:Drivers/STM32F1xx_HAL_Driver/Src/stm32f1xx_hal_can.c **** 
1841:Drivers/STM32F1xx_HAL_Driver/Src/stm32f1xx_hal_can.c ****   /* Receive FIFO 0 overrun interrupt management *****************************/
1842:Drivers/STM32F1xx_HAL_Driver/Src/stm32f1xx_hal_can.c ****   if ((interrupts & CAN_IT_RX_FIFO0_OVERRUN) != 0U)
1843:Drivers/STM32F1xx_HAL_Driver/Src/stm32f1xx_hal_can.c ****   {
1844:Drivers/STM32F1xx_HAL_Driver/Src/stm32f1xx_hal_can.c ****     if ((rf0rflags & CAN_RF0R_FOVR0) != 0U)
1845:Drivers/STM32F1xx_HAL_Driver/Src/stm32f1xx_hal_can.c ****     {
1846:Drivers/STM32F1xx_HAL_Driver/Src/stm32f1xx_hal_can.c ****       /* Set CAN error code to Rx Fifo 0 overrun error */
1847:Drivers/STM32F1xx_HAL_Driver/Src/stm32f1xx_hal_can.c ****       errorcode |= HAL_CAN_ERROR_RX_FOV0;
1848:Drivers/STM32F1xx_HAL_Driver/Src/stm32f1xx_hal_can.c **** 
1849:Drivers/STM32F1xx_HAL_Driver/Src/stm32f1xx_hal_can.c ****       /* Clear FIFO0 Overrun Flag */
1850:Drivers/STM32F1xx_HAL_Driver/Src/stm32f1xx_hal_can.c ****       __HAL_CAN_CLEAR_FLAG(hcan, CAN_FLAG_FOV0);
1851:Drivers/STM32F1xx_HAL_Driver/Src/stm32f1xx_hal_can.c ****     }
1852:Drivers/STM32F1xx_HAL_Driver/Src/stm32f1xx_hal_can.c ****   }
1853:Drivers/STM32F1xx_HAL_Driver/Src/stm32f1xx_hal_can.c **** 
1854:Drivers/STM32F1xx_HAL_Driver/Src/stm32f1xx_hal_can.c ****   /* Receive FIFO 0 full interrupt management ********************************/
1855:Drivers/STM32F1xx_HAL_Driver/Src/stm32f1xx_hal_can.c ****   if ((interrupts & CAN_IT_RX_FIFO0_FULL) != 0U)
1856:Drivers/STM32F1xx_HAL_Driver/Src/stm32f1xx_hal_can.c ****   {
1857:Drivers/STM32F1xx_HAL_Driver/Src/stm32f1xx_hal_can.c ****     if ((rf0rflags & CAN_RF0R_FULL0) != 0U)
1858:Drivers/STM32F1xx_HAL_Driver/Src/stm32f1xx_hal_can.c ****     {
1859:Drivers/STM32F1xx_HAL_Driver/Src/stm32f1xx_hal_can.c ****       /* Clear FIFO 0 full Flag */
1860:Drivers/STM32F1xx_HAL_Driver/Src/stm32f1xx_hal_can.c ****       __HAL_CAN_CLEAR_FLAG(hcan, CAN_FLAG_FF0);
1861:Drivers/STM32F1xx_HAL_Driver/Src/stm32f1xx_hal_can.c **** 
1862:Drivers/STM32F1xx_HAL_Driver/Src/stm32f1xx_hal_can.c ****       /* Receive FIFO 0 full Callback */
1863:Drivers/STM32F1xx_HAL_Driver/Src/stm32f1xx_hal_can.c **** #if USE_HAL_CAN_REGISTER_CALLBACKS == 1
1864:Drivers/STM32F1xx_HAL_Driver/Src/stm32f1xx_hal_can.c ****       /* Call registered callback*/
1865:Drivers/STM32F1xx_HAL_Driver/Src/stm32f1xx_hal_can.c ****       hcan->RxFifo0FullCallback(hcan);
1866:Drivers/STM32F1xx_HAL_Driver/Src/stm32f1xx_hal_can.c **** #else
1867:Drivers/STM32F1xx_HAL_Driver/Src/stm32f1xx_hal_can.c ****       /* Call weak (surcharged) callback */
1868:Drivers/STM32F1xx_HAL_Driver/Src/stm32f1xx_hal_can.c ****       HAL_CAN_RxFifo0FullCallback(hcan);
1869:Drivers/STM32F1xx_HAL_Driver/Src/stm32f1xx_hal_can.c **** #endif /* USE_HAL_CAN_REGISTER_CALLBACKS */
1870:Drivers/STM32F1xx_HAL_Driver/Src/stm32f1xx_hal_can.c ****     }
1871:Drivers/STM32F1xx_HAL_Driver/Src/stm32f1xx_hal_can.c ****   }
1872:Drivers/STM32F1xx_HAL_Driver/Src/stm32f1xx_hal_can.c **** 
1873:Drivers/STM32F1xx_HAL_Driver/Src/stm32f1xx_hal_can.c ****   /* Receive FIFO 0 message pending interrupt management *********************/
1874:Drivers/STM32F1xx_HAL_Driver/Src/stm32f1xx_hal_can.c ****   if ((interrupts & CAN_IT_RX_FIFO0_MSG_PENDING) != 0U)
1875:Drivers/STM32F1xx_HAL_Driver/Src/stm32f1xx_hal_can.c ****   {
1876:Drivers/STM32F1xx_HAL_Driver/Src/stm32f1xx_hal_can.c ****     /* Check if message is still pending */
1877:Drivers/STM32F1xx_HAL_Driver/Src/stm32f1xx_hal_can.c ****     if ((hcan->Instance->RF0R & CAN_RF0R_FMP0) != 0U)
1878:Drivers/STM32F1xx_HAL_Driver/Src/stm32f1xx_hal_can.c ****     {
ARM GAS  C:\Users\Rick\AppData\Local\Temp\ccbuSalp.s 			page 93


1879:Drivers/STM32F1xx_HAL_Driver/Src/stm32f1xx_hal_can.c ****       /* Receive FIFO 0 message pending Callback */
1880:Drivers/STM32F1xx_HAL_Driver/Src/stm32f1xx_hal_can.c **** #if USE_HAL_CAN_REGISTER_CALLBACKS == 1
1881:Drivers/STM32F1xx_HAL_Driver/Src/stm32f1xx_hal_can.c ****       /* Call registered callback*/
1882:Drivers/STM32F1xx_HAL_Driver/Src/stm32f1xx_hal_can.c ****       hcan->RxFifo0MsgPendingCallback(hcan);
1883:Drivers/STM32F1xx_HAL_Driver/Src/stm32f1xx_hal_can.c **** #else
1884:Drivers/STM32F1xx_HAL_Driver/Src/stm32f1xx_hal_can.c ****       /* Call weak (surcharged) callback */
1885:Drivers/STM32F1xx_HAL_Driver/Src/stm32f1xx_hal_can.c ****       HAL_CAN_RxFifo0MsgPendingCallback(hcan);
1886:Drivers/STM32F1xx_HAL_Driver/Src/stm32f1xx_hal_can.c **** #endif /* USE_HAL_CAN_REGISTER_CALLBACKS */
1887:Drivers/STM32F1xx_HAL_Driver/Src/stm32f1xx_hal_can.c ****     }
1888:Drivers/STM32F1xx_HAL_Driver/Src/stm32f1xx_hal_can.c ****   }
1889:Drivers/STM32F1xx_HAL_Driver/Src/stm32f1xx_hal_can.c **** 
1890:Drivers/STM32F1xx_HAL_Driver/Src/stm32f1xx_hal_can.c ****   /* Receive FIFO 1 overrun interrupt management *****************************/
1891:Drivers/STM32F1xx_HAL_Driver/Src/stm32f1xx_hal_can.c ****   if ((interrupts & CAN_IT_RX_FIFO1_OVERRUN) != 0U)
1892:Drivers/STM32F1xx_HAL_Driver/Src/stm32f1xx_hal_can.c ****   {
1893:Drivers/STM32F1xx_HAL_Driver/Src/stm32f1xx_hal_can.c ****     if ((rf1rflags & CAN_RF1R_FOVR1) != 0U)
1894:Drivers/STM32F1xx_HAL_Driver/Src/stm32f1xx_hal_can.c ****     {
1895:Drivers/STM32F1xx_HAL_Driver/Src/stm32f1xx_hal_can.c ****       /* Set CAN error code to Rx Fifo 1 overrun error */
1896:Drivers/STM32F1xx_HAL_Driver/Src/stm32f1xx_hal_can.c ****       errorcode |= HAL_CAN_ERROR_RX_FOV1;
1897:Drivers/STM32F1xx_HAL_Driver/Src/stm32f1xx_hal_can.c **** 
1898:Drivers/STM32F1xx_HAL_Driver/Src/stm32f1xx_hal_can.c ****       /* Clear FIFO1 Overrun Flag */
1899:Drivers/STM32F1xx_HAL_Driver/Src/stm32f1xx_hal_can.c ****       __HAL_CAN_CLEAR_FLAG(hcan, CAN_FLAG_FOV1);
1900:Drivers/STM32F1xx_HAL_Driver/Src/stm32f1xx_hal_can.c ****     }
1901:Drivers/STM32F1xx_HAL_Driver/Src/stm32f1xx_hal_can.c ****   }
1902:Drivers/STM32F1xx_HAL_Driver/Src/stm32f1xx_hal_can.c **** 
1903:Drivers/STM32F1xx_HAL_Driver/Src/stm32f1xx_hal_can.c ****   /* Receive FIFO 1 full interrupt management ********************************/
1904:Drivers/STM32F1xx_HAL_Driver/Src/stm32f1xx_hal_can.c ****   if ((interrupts & CAN_IT_RX_FIFO1_FULL) != 0U)
1905:Drivers/STM32F1xx_HAL_Driver/Src/stm32f1xx_hal_can.c ****   {
1906:Drivers/STM32F1xx_HAL_Driver/Src/stm32f1xx_hal_can.c ****     if ((rf1rflags & CAN_RF1R_FULL1) != 0U)
1907:Drivers/STM32F1xx_HAL_Driver/Src/stm32f1xx_hal_can.c ****     {
1908:Drivers/STM32F1xx_HAL_Driver/Src/stm32f1xx_hal_can.c ****       /* Clear FIFO 1 full Flag */
1909:Drivers/STM32F1xx_HAL_Driver/Src/stm32f1xx_hal_can.c ****       __HAL_CAN_CLEAR_FLAG(hcan, CAN_FLAG_FF1);
1910:Drivers/STM32F1xx_HAL_Driver/Src/stm32f1xx_hal_can.c **** 
1911:Drivers/STM32F1xx_HAL_Driver/Src/stm32f1xx_hal_can.c ****       /* Receive FIFO 1 full Callback */
1912:Drivers/STM32F1xx_HAL_Driver/Src/stm32f1xx_hal_can.c **** #if USE_HAL_CAN_REGISTER_CALLBACKS == 1
1913:Drivers/STM32F1xx_HAL_Driver/Src/stm32f1xx_hal_can.c ****       /* Call registered callback*/
1914:Drivers/STM32F1xx_HAL_Driver/Src/stm32f1xx_hal_can.c ****       hcan->RxFifo1FullCallback(hcan);
1915:Drivers/STM32F1xx_HAL_Driver/Src/stm32f1xx_hal_can.c **** #else
1916:Drivers/STM32F1xx_HAL_Driver/Src/stm32f1xx_hal_can.c ****       /* Call weak (surcharged) callback */
1917:Drivers/STM32F1xx_HAL_Driver/Src/stm32f1xx_hal_can.c ****       HAL_CAN_RxFifo1FullCallback(hcan);
1918:Drivers/STM32F1xx_HAL_Driver/Src/stm32f1xx_hal_can.c **** #endif /* USE_HAL_CAN_REGISTER_CALLBACKS */
1919:Drivers/STM32F1xx_HAL_Driver/Src/stm32f1xx_hal_can.c ****     }
1920:Drivers/STM32F1xx_HAL_Driver/Src/stm32f1xx_hal_can.c ****   }
1921:Drivers/STM32F1xx_HAL_Driver/Src/stm32f1xx_hal_can.c **** 
1922:Drivers/STM32F1xx_HAL_Driver/Src/stm32f1xx_hal_can.c ****   /* Receive FIFO 1 message pending interrupt management *********************/
1923:Drivers/STM32F1xx_HAL_Driver/Src/stm32f1xx_hal_can.c ****   if ((interrupts & CAN_IT_RX_FIFO1_MSG_PENDING) != 0U)
1924:Drivers/STM32F1xx_HAL_Driver/Src/stm32f1xx_hal_can.c ****   {
1925:Drivers/STM32F1xx_HAL_Driver/Src/stm32f1xx_hal_can.c ****     /* Check if message is still pending */
1926:Drivers/STM32F1xx_HAL_Driver/Src/stm32f1xx_hal_can.c ****     if ((hcan->Instance->RF1R & CAN_RF1R_FMP1) != 0U)
1927:Drivers/STM32F1xx_HAL_Driver/Src/stm32f1xx_hal_can.c ****     {
1928:Drivers/STM32F1xx_HAL_Driver/Src/stm32f1xx_hal_can.c ****       /* Receive FIFO 1 message pending Callback */
1929:Drivers/STM32F1xx_HAL_Driver/Src/stm32f1xx_hal_can.c **** #if USE_HAL_CAN_REGISTER_CALLBACKS == 1
1930:Drivers/STM32F1xx_HAL_Driver/Src/stm32f1xx_hal_can.c ****       /* Call registered callback*/
1931:Drivers/STM32F1xx_HAL_Driver/Src/stm32f1xx_hal_can.c ****       hcan->RxFifo1MsgPendingCallback(hcan);
1932:Drivers/STM32F1xx_HAL_Driver/Src/stm32f1xx_hal_can.c **** #else
1933:Drivers/STM32F1xx_HAL_Driver/Src/stm32f1xx_hal_can.c ****       /* Call weak (surcharged) callback */
1934:Drivers/STM32F1xx_HAL_Driver/Src/stm32f1xx_hal_can.c ****       HAL_CAN_RxFifo1MsgPendingCallback(hcan);
1935:Drivers/STM32F1xx_HAL_Driver/Src/stm32f1xx_hal_can.c **** #endif /* USE_HAL_CAN_REGISTER_CALLBACKS */
ARM GAS  C:\Users\Rick\AppData\Local\Temp\ccbuSalp.s 			page 94


1936:Drivers/STM32F1xx_HAL_Driver/Src/stm32f1xx_hal_can.c ****     }
1937:Drivers/STM32F1xx_HAL_Driver/Src/stm32f1xx_hal_can.c ****   }
1938:Drivers/STM32F1xx_HAL_Driver/Src/stm32f1xx_hal_can.c **** 
1939:Drivers/STM32F1xx_HAL_Driver/Src/stm32f1xx_hal_can.c ****   /* Sleep interrupt management *********************************************/
1940:Drivers/STM32F1xx_HAL_Driver/Src/stm32f1xx_hal_can.c ****   if ((interrupts & CAN_IT_SLEEP_ACK) != 0U)
1941:Drivers/STM32F1xx_HAL_Driver/Src/stm32f1xx_hal_can.c ****   {
1942:Drivers/STM32F1xx_HAL_Driver/Src/stm32f1xx_hal_can.c ****     if ((msrflags & CAN_MSR_SLAKI) != 0U)
1943:Drivers/STM32F1xx_HAL_Driver/Src/stm32f1xx_hal_can.c ****     {
1944:Drivers/STM32F1xx_HAL_Driver/Src/stm32f1xx_hal_can.c ****       /* Clear Sleep interrupt Flag */
1945:Drivers/STM32F1xx_HAL_Driver/Src/stm32f1xx_hal_can.c ****       __HAL_CAN_CLEAR_FLAG(hcan, CAN_FLAG_SLAKI);
1946:Drivers/STM32F1xx_HAL_Driver/Src/stm32f1xx_hal_can.c **** 
1947:Drivers/STM32F1xx_HAL_Driver/Src/stm32f1xx_hal_can.c ****       /* Sleep Callback */
1948:Drivers/STM32F1xx_HAL_Driver/Src/stm32f1xx_hal_can.c **** #if USE_HAL_CAN_REGISTER_CALLBACKS == 1
1949:Drivers/STM32F1xx_HAL_Driver/Src/stm32f1xx_hal_can.c ****       /* Call registered callback*/
1950:Drivers/STM32F1xx_HAL_Driver/Src/stm32f1xx_hal_can.c ****       hcan->SleepCallback(hcan);
1951:Drivers/STM32F1xx_HAL_Driver/Src/stm32f1xx_hal_can.c **** #else
1952:Drivers/STM32F1xx_HAL_Driver/Src/stm32f1xx_hal_can.c ****       /* Call weak (surcharged) callback */
1953:Drivers/STM32F1xx_HAL_Driver/Src/stm32f1xx_hal_can.c ****       HAL_CAN_SleepCallback(hcan);
1954:Drivers/STM32F1xx_HAL_Driver/Src/stm32f1xx_hal_can.c **** #endif /* USE_HAL_CAN_REGISTER_CALLBACKS */
1955:Drivers/STM32F1xx_HAL_Driver/Src/stm32f1xx_hal_can.c ****     }
1956:Drivers/STM32F1xx_HAL_Driver/Src/stm32f1xx_hal_can.c ****   }
1957:Drivers/STM32F1xx_HAL_Driver/Src/stm32f1xx_hal_can.c **** 
1958:Drivers/STM32F1xx_HAL_Driver/Src/stm32f1xx_hal_can.c ****   /* WakeUp interrupt management *********************************************/
1959:Drivers/STM32F1xx_HAL_Driver/Src/stm32f1xx_hal_can.c ****   if ((interrupts & CAN_IT_WAKEUP) != 0U)
1960:Drivers/STM32F1xx_HAL_Driver/Src/stm32f1xx_hal_can.c ****   {
1961:Drivers/STM32F1xx_HAL_Driver/Src/stm32f1xx_hal_can.c ****     if ((msrflags & CAN_MSR_WKUI) != 0U)
1962:Drivers/STM32F1xx_HAL_Driver/Src/stm32f1xx_hal_can.c ****     {
1963:Drivers/STM32F1xx_HAL_Driver/Src/stm32f1xx_hal_can.c ****       /* Clear WakeUp Flag */
1964:Drivers/STM32F1xx_HAL_Driver/Src/stm32f1xx_hal_can.c ****       __HAL_CAN_CLEAR_FLAG(hcan, CAN_FLAG_WKU);
1965:Drivers/STM32F1xx_HAL_Driver/Src/stm32f1xx_hal_can.c **** 
1966:Drivers/STM32F1xx_HAL_Driver/Src/stm32f1xx_hal_can.c ****       /* WakeUp Callback */
1967:Drivers/STM32F1xx_HAL_Driver/Src/stm32f1xx_hal_can.c **** #if USE_HAL_CAN_REGISTER_CALLBACKS == 1
1968:Drivers/STM32F1xx_HAL_Driver/Src/stm32f1xx_hal_can.c ****       /* Call registered callback*/
1969:Drivers/STM32F1xx_HAL_Driver/Src/stm32f1xx_hal_can.c ****       hcan->WakeUpFromRxMsgCallback(hcan);
1970:Drivers/STM32F1xx_HAL_Driver/Src/stm32f1xx_hal_can.c **** #else
1971:Drivers/STM32F1xx_HAL_Driver/Src/stm32f1xx_hal_can.c ****       /* Call weak (surcharged) callback */
1972:Drivers/STM32F1xx_HAL_Driver/Src/stm32f1xx_hal_can.c ****       HAL_CAN_WakeUpFromRxMsgCallback(hcan);
1973:Drivers/STM32F1xx_HAL_Driver/Src/stm32f1xx_hal_can.c **** #endif /* USE_HAL_CAN_REGISTER_CALLBACKS */
1974:Drivers/STM32F1xx_HAL_Driver/Src/stm32f1xx_hal_can.c ****     }
1975:Drivers/STM32F1xx_HAL_Driver/Src/stm32f1xx_hal_can.c ****   }
1976:Drivers/STM32F1xx_HAL_Driver/Src/stm32f1xx_hal_can.c **** 
1977:Drivers/STM32F1xx_HAL_Driver/Src/stm32f1xx_hal_can.c ****   /* Error interrupts management *********************************************/
1978:Drivers/STM32F1xx_HAL_Driver/Src/stm32f1xx_hal_can.c ****   if ((interrupts & CAN_IT_ERROR) != 0U)
1979:Drivers/STM32F1xx_HAL_Driver/Src/stm32f1xx_hal_can.c ****   {
1980:Drivers/STM32F1xx_HAL_Driver/Src/stm32f1xx_hal_can.c ****     if ((msrflags & CAN_MSR_ERRI) != 0U)
1981:Drivers/STM32F1xx_HAL_Driver/Src/stm32f1xx_hal_can.c ****     {
1982:Drivers/STM32F1xx_HAL_Driver/Src/stm32f1xx_hal_can.c ****       /* Check Error Warning Flag */
1983:Drivers/STM32F1xx_HAL_Driver/Src/stm32f1xx_hal_can.c ****       if (((interrupts & CAN_IT_ERROR_WARNING) != 0U) &&
1984:Drivers/STM32F1xx_HAL_Driver/Src/stm32f1xx_hal_can.c ****           ((esrflags & CAN_ESR_EWGF) != 0U))
1985:Drivers/STM32F1xx_HAL_Driver/Src/stm32f1xx_hal_can.c ****       {
1986:Drivers/STM32F1xx_HAL_Driver/Src/stm32f1xx_hal_can.c ****         /* Set CAN error code to Error Warning */
1987:Drivers/STM32F1xx_HAL_Driver/Src/stm32f1xx_hal_can.c ****         errorcode |= HAL_CAN_ERROR_EWG;
1988:Drivers/STM32F1xx_HAL_Driver/Src/stm32f1xx_hal_can.c **** 
1989:Drivers/STM32F1xx_HAL_Driver/Src/stm32f1xx_hal_can.c ****         /* No need for clear of Error Warning Flag as read-only */
1990:Drivers/STM32F1xx_HAL_Driver/Src/stm32f1xx_hal_can.c ****       }
1991:Drivers/STM32F1xx_HAL_Driver/Src/stm32f1xx_hal_can.c **** 
1992:Drivers/STM32F1xx_HAL_Driver/Src/stm32f1xx_hal_can.c ****       /* Check Error Passive Flag */
ARM GAS  C:\Users\Rick\AppData\Local\Temp\ccbuSalp.s 			page 95


1993:Drivers/STM32F1xx_HAL_Driver/Src/stm32f1xx_hal_can.c ****       if (((interrupts & CAN_IT_ERROR_PASSIVE) != 0U) &&
1994:Drivers/STM32F1xx_HAL_Driver/Src/stm32f1xx_hal_can.c ****           ((esrflags & CAN_ESR_EPVF) != 0U))
1995:Drivers/STM32F1xx_HAL_Driver/Src/stm32f1xx_hal_can.c ****       {
1996:Drivers/STM32F1xx_HAL_Driver/Src/stm32f1xx_hal_can.c ****         /* Set CAN error code to Error Passive */
1997:Drivers/STM32F1xx_HAL_Driver/Src/stm32f1xx_hal_can.c ****         errorcode |= HAL_CAN_ERROR_EPV;
1998:Drivers/STM32F1xx_HAL_Driver/Src/stm32f1xx_hal_can.c **** 
1999:Drivers/STM32F1xx_HAL_Driver/Src/stm32f1xx_hal_can.c ****         /* No need for clear of Error Passive Flag as read-only */
2000:Drivers/STM32F1xx_HAL_Driver/Src/stm32f1xx_hal_can.c ****       }
2001:Drivers/STM32F1xx_HAL_Driver/Src/stm32f1xx_hal_can.c **** 
2002:Drivers/STM32F1xx_HAL_Driver/Src/stm32f1xx_hal_can.c ****       /* Check Bus-off Flag */
2003:Drivers/STM32F1xx_HAL_Driver/Src/stm32f1xx_hal_can.c ****       if (((interrupts & CAN_IT_BUSOFF) != 0U) &&
2004:Drivers/STM32F1xx_HAL_Driver/Src/stm32f1xx_hal_can.c ****           ((esrflags & CAN_ESR_BOFF) != 0U))
2005:Drivers/STM32F1xx_HAL_Driver/Src/stm32f1xx_hal_can.c ****       {
2006:Drivers/STM32F1xx_HAL_Driver/Src/stm32f1xx_hal_can.c ****         /* Set CAN error code to Bus-Off */
2007:Drivers/STM32F1xx_HAL_Driver/Src/stm32f1xx_hal_can.c ****         errorcode |= HAL_CAN_ERROR_BOF;
2008:Drivers/STM32F1xx_HAL_Driver/Src/stm32f1xx_hal_can.c **** 
2009:Drivers/STM32F1xx_HAL_Driver/Src/stm32f1xx_hal_can.c ****         /* No need for clear of Error Bus-Off as read-only */
2010:Drivers/STM32F1xx_HAL_Driver/Src/stm32f1xx_hal_can.c ****       }
2011:Drivers/STM32F1xx_HAL_Driver/Src/stm32f1xx_hal_can.c **** 
2012:Drivers/STM32F1xx_HAL_Driver/Src/stm32f1xx_hal_can.c ****       /* Check Last Error Code Flag */
2013:Drivers/STM32F1xx_HAL_Driver/Src/stm32f1xx_hal_can.c ****       if (((interrupts & CAN_IT_LAST_ERROR_CODE) != 0U) &&
2014:Drivers/STM32F1xx_HAL_Driver/Src/stm32f1xx_hal_can.c ****           ((esrflags & CAN_ESR_LEC) != 0U))
2015:Drivers/STM32F1xx_HAL_Driver/Src/stm32f1xx_hal_can.c ****       {
2016:Drivers/STM32F1xx_HAL_Driver/Src/stm32f1xx_hal_can.c ****         switch (esrflags & CAN_ESR_LEC)
2017:Drivers/STM32F1xx_HAL_Driver/Src/stm32f1xx_hal_can.c ****         {
2018:Drivers/STM32F1xx_HAL_Driver/Src/stm32f1xx_hal_can.c ****           case (CAN_ESR_LEC_0):
2019:Drivers/STM32F1xx_HAL_Driver/Src/stm32f1xx_hal_can.c ****             /* Set CAN error code to Stuff error */
2020:Drivers/STM32F1xx_HAL_Driver/Src/stm32f1xx_hal_can.c ****             errorcode |= HAL_CAN_ERROR_STF;
2021:Drivers/STM32F1xx_HAL_Driver/Src/stm32f1xx_hal_can.c ****             break;
2022:Drivers/STM32F1xx_HAL_Driver/Src/stm32f1xx_hal_can.c ****           case (CAN_ESR_LEC_1):
2023:Drivers/STM32F1xx_HAL_Driver/Src/stm32f1xx_hal_can.c ****             /* Set CAN error code to Form error */
2024:Drivers/STM32F1xx_HAL_Driver/Src/stm32f1xx_hal_can.c ****             errorcode |= HAL_CAN_ERROR_FOR;
2025:Drivers/STM32F1xx_HAL_Driver/Src/stm32f1xx_hal_can.c ****             break;
2026:Drivers/STM32F1xx_HAL_Driver/Src/stm32f1xx_hal_can.c ****           case (CAN_ESR_LEC_1 | CAN_ESR_LEC_0):
2027:Drivers/STM32F1xx_HAL_Driver/Src/stm32f1xx_hal_can.c ****             /* Set CAN error code to Acknowledgement error */
2028:Drivers/STM32F1xx_HAL_Driver/Src/stm32f1xx_hal_can.c ****             errorcode |= HAL_CAN_ERROR_ACK;
2029:Drivers/STM32F1xx_HAL_Driver/Src/stm32f1xx_hal_can.c ****             break;
2030:Drivers/STM32F1xx_HAL_Driver/Src/stm32f1xx_hal_can.c ****           case (CAN_ESR_LEC_2):
2031:Drivers/STM32F1xx_HAL_Driver/Src/stm32f1xx_hal_can.c ****             /* Set CAN error code to Bit recessive error */
2032:Drivers/STM32F1xx_HAL_Driver/Src/stm32f1xx_hal_can.c ****             errorcode |= HAL_CAN_ERROR_BR;
2033:Drivers/STM32F1xx_HAL_Driver/Src/stm32f1xx_hal_can.c ****             break;
2034:Drivers/STM32F1xx_HAL_Driver/Src/stm32f1xx_hal_can.c ****           case (CAN_ESR_LEC_2 | CAN_ESR_LEC_0):
2035:Drivers/STM32F1xx_HAL_Driver/Src/stm32f1xx_hal_can.c ****             /* Set CAN error code to Bit Dominant error */
2036:Drivers/STM32F1xx_HAL_Driver/Src/stm32f1xx_hal_can.c ****             errorcode |= HAL_CAN_ERROR_BD;
2037:Drivers/STM32F1xx_HAL_Driver/Src/stm32f1xx_hal_can.c ****             break;
2038:Drivers/STM32F1xx_HAL_Driver/Src/stm32f1xx_hal_can.c ****           case (CAN_ESR_LEC_2 | CAN_ESR_LEC_1):
2039:Drivers/STM32F1xx_HAL_Driver/Src/stm32f1xx_hal_can.c ****             /* Set CAN error code to CRC error */
2040:Drivers/STM32F1xx_HAL_Driver/Src/stm32f1xx_hal_can.c ****             errorcode |= HAL_CAN_ERROR_CRC;
2041:Drivers/STM32F1xx_HAL_Driver/Src/stm32f1xx_hal_can.c ****             break;
2042:Drivers/STM32F1xx_HAL_Driver/Src/stm32f1xx_hal_can.c ****           default:
2043:Drivers/STM32F1xx_HAL_Driver/Src/stm32f1xx_hal_can.c ****             break;
2044:Drivers/STM32F1xx_HAL_Driver/Src/stm32f1xx_hal_can.c ****         }
2045:Drivers/STM32F1xx_HAL_Driver/Src/stm32f1xx_hal_can.c **** 
2046:Drivers/STM32F1xx_HAL_Driver/Src/stm32f1xx_hal_can.c ****         /* Clear Last error code Flag */
2047:Drivers/STM32F1xx_HAL_Driver/Src/stm32f1xx_hal_can.c ****         CLEAR_BIT(hcan->Instance->ESR, CAN_ESR_LEC);
2048:Drivers/STM32F1xx_HAL_Driver/Src/stm32f1xx_hal_can.c ****       }
2049:Drivers/STM32F1xx_HAL_Driver/Src/stm32f1xx_hal_can.c ****     }
ARM GAS  C:\Users\Rick\AppData\Local\Temp\ccbuSalp.s 			page 96


2050:Drivers/STM32F1xx_HAL_Driver/Src/stm32f1xx_hal_can.c **** 
2051:Drivers/STM32F1xx_HAL_Driver/Src/stm32f1xx_hal_can.c ****     /* Clear ERRI Flag */
2052:Drivers/STM32F1xx_HAL_Driver/Src/stm32f1xx_hal_can.c ****     __HAL_CAN_CLEAR_FLAG(hcan, CAN_FLAG_ERRI);
2053:Drivers/STM32F1xx_HAL_Driver/Src/stm32f1xx_hal_can.c ****   }
2054:Drivers/STM32F1xx_HAL_Driver/Src/stm32f1xx_hal_can.c **** 
2055:Drivers/STM32F1xx_HAL_Driver/Src/stm32f1xx_hal_can.c ****   /* Call the Error call Back in case of Errors */
2056:Drivers/STM32F1xx_HAL_Driver/Src/stm32f1xx_hal_can.c ****   if (errorcode != HAL_CAN_ERROR_NONE)
2057:Drivers/STM32F1xx_HAL_Driver/Src/stm32f1xx_hal_can.c ****   {
2058:Drivers/STM32F1xx_HAL_Driver/Src/stm32f1xx_hal_can.c ****     /* Update error code in handle */
2059:Drivers/STM32F1xx_HAL_Driver/Src/stm32f1xx_hal_can.c ****     hcan->ErrorCode |= errorcode;
2060:Drivers/STM32F1xx_HAL_Driver/Src/stm32f1xx_hal_can.c **** 
2061:Drivers/STM32F1xx_HAL_Driver/Src/stm32f1xx_hal_can.c ****     /* Call Error callback function */
2062:Drivers/STM32F1xx_HAL_Driver/Src/stm32f1xx_hal_can.c **** #if USE_HAL_CAN_REGISTER_CALLBACKS == 1
2063:Drivers/STM32F1xx_HAL_Driver/Src/stm32f1xx_hal_can.c ****     /* Call registered callback*/
2064:Drivers/STM32F1xx_HAL_Driver/Src/stm32f1xx_hal_can.c ****     hcan->ErrorCallback(hcan);
2065:Drivers/STM32F1xx_HAL_Driver/Src/stm32f1xx_hal_can.c **** #else
2066:Drivers/STM32F1xx_HAL_Driver/Src/stm32f1xx_hal_can.c ****     /* Call weak (surcharged) callback */
2067:Drivers/STM32F1xx_HAL_Driver/Src/stm32f1xx_hal_can.c ****     HAL_CAN_ErrorCallback(hcan);
2068:Drivers/STM32F1xx_HAL_Driver/Src/stm32f1xx_hal_can.c **** #endif /* USE_HAL_CAN_REGISTER_CALLBACKS */
2069:Drivers/STM32F1xx_HAL_Driver/Src/stm32f1xx_hal_can.c ****   }
2070:Drivers/STM32F1xx_HAL_Driver/Src/stm32f1xx_hal_can.c **** }
2071:Drivers/STM32F1xx_HAL_Driver/Src/stm32f1xx_hal_can.c **** 
2072:Drivers/STM32F1xx_HAL_Driver/Src/stm32f1xx_hal_can.c **** /**
2073:Drivers/STM32F1xx_HAL_Driver/Src/stm32f1xx_hal_can.c ****   * @}
2074:Drivers/STM32F1xx_HAL_Driver/Src/stm32f1xx_hal_can.c ****   */
2075:Drivers/STM32F1xx_HAL_Driver/Src/stm32f1xx_hal_can.c **** 
2076:Drivers/STM32F1xx_HAL_Driver/Src/stm32f1xx_hal_can.c **** /** @defgroup CAN_Exported_Functions_Group5 Callback functions
2077:Drivers/STM32F1xx_HAL_Driver/Src/stm32f1xx_hal_can.c ****  *  @brief   CAN Callback functions
2078:Drivers/STM32F1xx_HAL_Driver/Src/stm32f1xx_hal_can.c ****  *
2079:Drivers/STM32F1xx_HAL_Driver/Src/stm32f1xx_hal_can.c **** @verbatim
2080:Drivers/STM32F1xx_HAL_Driver/Src/stm32f1xx_hal_can.c ****   ==============================================================================
2081:Drivers/STM32F1xx_HAL_Driver/Src/stm32f1xx_hal_can.c ****                           ##### Callback functions #####
2082:Drivers/STM32F1xx_HAL_Driver/Src/stm32f1xx_hal_can.c ****   ==============================================================================
2083:Drivers/STM32F1xx_HAL_Driver/Src/stm32f1xx_hal_can.c ****     [..]
2084:Drivers/STM32F1xx_HAL_Driver/Src/stm32f1xx_hal_can.c ****     This subsection provides the following callback functions:
2085:Drivers/STM32F1xx_HAL_Driver/Src/stm32f1xx_hal_can.c ****       (+) HAL_CAN_TxMailbox0CompleteCallback
2086:Drivers/STM32F1xx_HAL_Driver/Src/stm32f1xx_hal_can.c ****       (+) HAL_CAN_TxMailbox1CompleteCallback
2087:Drivers/STM32F1xx_HAL_Driver/Src/stm32f1xx_hal_can.c ****       (+) HAL_CAN_TxMailbox2CompleteCallback
2088:Drivers/STM32F1xx_HAL_Driver/Src/stm32f1xx_hal_can.c ****       (+) HAL_CAN_TxMailbox0AbortCallback
2089:Drivers/STM32F1xx_HAL_Driver/Src/stm32f1xx_hal_can.c ****       (+) HAL_CAN_TxMailbox1AbortCallback
2090:Drivers/STM32F1xx_HAL_Driver/Src/stm32f1xx_hal_can.c ****       (+) HAL_CAN_TxMailbox2AbortCallback
2091:Drivers/STM32F1xx_HAL_Driver/Src/stm32f1xx_hal_can.c ****       (+) HAL_CAN_RxFifo0MsgPendingCallback
2092:Drivers/STM32F1xx_HAL_Driver/Src/stm32f1xx_hal_can.c ****       (+) HAL_CAN_RxFifo0FullCallback
2093:Drivers/STM32F1xx_HAL_Driver/Src/stm32f1xx_hal_can.c ****       (+) HAL_CAN_RxFifo1MsgPendingCallback
2094:Drivers/STM32F1xx_HAL_Driver/Src/stm32f1xx_hal_can.c ****       (+) HAL_CAN_RxFifo1FullCallback
2095:Drivers/STM32F1xx_HAL_Driver/Src/stm32f1xx_hal_can.c ****       (+) HAL_CAN_SleepCallback
2096:Drivers/STM32F1xx_HAL_Driver/Src/stm32f1xx_hal_can.c ****       (+) HAL_CAN_WakeUpFromRxMsgCallback
2097:Drivers/STM32F1xx_HAL_Driver/Src/stm32f1xx_hal_can.c ****       (+) HAL_CAN_ErrorCallback
2098:Drivers/STM32F1xx_HAL_Driver/Src/stm32f1xx_hal_can.c **** 
2099:Drivers/STM32F1xx_HAL_Driver/Src/stm32f1xx_hal_can.c **** @endverbatim
2100:Drivers/STM32F1xx_HAL_Driver/Src/stm32f1xx_hal_can.c ****   * @{
2101:Drivers/STM32F1xx_HAL_Driver/Src/stm32f1xx_hal_can.c ****   */
2102:Drivers/STM32F1xx_HAL_Driver/Src/stm32f1xx_hal_can.c **** 
2103:Drivers/STM32F1xx_HAL_Driver/Src/stm32f1xx_hal_can.c **** /**
2104:Drivers/STM32F1xx_HAL_Driver/Src/stm32f1xx_hal_can.c ****   * @brief  Transmission Mailbox 0 complete callback.
2105:Drivers/STM32F1xx_HAL_Driver/Src/stm32f1xx_hal_can.c ****   * @param  hcan pointer to a CAN_HandleTypeDef structure that contains
2106:Drivers/STM32F1xx_HAL_Driver/Src/stm32f1xx_hal_can.c ****   *         the configuration information for the specified CAN.
ARM GAS  C:\Users\Rick\AppData\Local\Temp\ccbuSalp.s 			page 97


2107:Drivers/STM32F1xx_HAL_Driver/Src/stm32f1xx_hal_can.c ****   * @retval None
2108:Drivers/STM32F1xx_HAL_Driver/Src/stm32f1xx_hal_can.c ****   */
2109:Drivers/STM32F1xx_HAL_Driver/Src/stm32f1xx_hal_can.c **** __weak void HAL_CAN_TxMailbox0CompleteCallback(CAN_HandleTypeDef *hcan)
2110:Drivers/STM32F1xx_HAL_Driver/Src/stm32f1xx_hal_can.c **** {
 2073              		.loc 1 2110 1 is_stmt 1 view -0
 2074              		.cfi_startproc
 2075              		@ args = 0, pretend = 0, frame = 0
 2076              		@ frame_needed = 0, uses_anonymous_args = 0
 2077              		@ link register save eliminated.
2111:Drivers/STM32F1xx_HAL_Driver/Src/stm32f1xx_hal_can.c ****   /* Prevent unused argument(s) compilation warning */
2112:Drivers/STM32F1xx_HAL_Driver/Src/stm32f1xx_hal_can.c ****   UNUSED(hcan);
 2078              		.loc 1 2112 3 view .LVU694
2113:Drivers/STM32F1xx_HAL_Driver/Src/stm32f1xx_hal_can.c **** 
2114:Drivers/STM32F1xx_HAL_Driver/Src/stm32f1xx_hal_can.c ****   /* NOTE : This function Should not be modified, when the callback is needed,
2115:Drivers/STM32F1xx_HAL_Driver/Src/stm32f1xx_hal_can.c ****             the HAL_CAN_TxMailbox0CompleteCallback could be implemented in the
2116:Drivers/STM32F1xx_HAL_Driver/Src/stm32f1xx_hal_can.c ****             user file
2117:Drivers/STM32F1xx_HAL_Driver/Src/stm32f1xx_hal_can.c ****    */
2118:Drivers/STM32F1xx_HAL_Driver/Src/stm32f1xx_hal_can.c **** }
 2079              		.loc 1 2118 1 is_stmt 0 view .LVU695
 2080 0000 7047     		bx	lr
 2081              		.cfi_endproc
 2082              	.LFE85:
 2084              		.section	.text.HAL_CAN_TxMailbox1CompleteCallback,"ax",%progbits
 2085              		.align	1
 2086              		.weak	HAL_CAN_TxMailbox1CompleteCallback
 2087              		.syntax unified
 2088              		.thumb
 2089              		.thumb_func
 2091              	HAL_CAN_TxMailbox1CompleteCallback:
 2092              	.LVL163:
 2093              	.LFB86:
2119:Drivers/STM32F1xx_HAL_Driver/Src/stm32f1xx_hal_can.c **** 
2120:Drivers/STM32F1xx_HAL_Driver/Src/stm32f1xx_hal_can.c **** /**
2121:Drivers/STM32F1xx_HAL_Driver/Src/stm32f1xx_hal_can.c ****   * @brief  Transmission Mailbox 1 complete callback.
2122:Drivers/STM32F1xx_HAL_Driver/Src/stm32f1xx_hal_can.c ****   * @param  hcan pointer to a CAN_HandleTypeDef structure that contains
2123:Drivers/STM32F1xx_HAL_Driver/Src/stm32f1xx_hal_can.c ****   *         the configuration information for the specified CAN.
2124:Drivers/STM32F1xx_HAL_Driver/Src/stm32f1xx_hal_can.c ****   * @retval None
2125:Drivers/STM32F1xx_HAL_Driver/Src/stm32f1xx_hal_can.c ****   */
2126:Drivers/STM32F1xx_HAL_Driver/Src/stm32f1xx_hal_can.c **** __weak void HAL_CAN_TxMailbox1CompleteCallback(CAN_HandleTypeDef *hcan)
2127:Drivers/STM32F1xx_HAL_Driver/Src/stm32f1xx_hal_can.c **** {
 2094              		.loc 1 2127 1 is_stmt 1 view -0
 2095              		.cfi_startproc
 2096              		@ args = 0, pretend = 0, frame = 0
 2097              		@ frame_needed = 0, uses_anonymous_args = 0
 2098              		@ link register save eliminated.
2128:Drivers/STM32F1xx_HAL_Driver/Src/stm32f1xx_hal_can.c ****   /* Prevent unused argument(s) compilation warning */
2129:Drivers/STM32F1xx_HAL_Driver/Src/stm32f1xx_hal_can.c ****   UNUSED(hcan);
 2099              		.loc 1 2129 3 view .LVU697
2130:Drivers/STM32F1xx_HAL_Driver/Src/stm32f1xx_hal_can.c **** 
2131:Drivers/STM32F1xx_HAL_Driver/Src/stm32f1xx_hal_can.c ****   /* NOTE : This function Should not be modified, when the callback is needed,
2132:Drivers/STM32F1xx_HAL_Driver/Src/stm32f1xx_hal_can.c ****             the HAL_CAN_TxMailbox1CompleteCallback could be implemented in the
2133:Drivers/STM32F1xx_HAL_Driver/Src/stm32f1xx_hal_can.c ****             user file
2134:Drivers/STM32F1xx_HAL_Driver/Src/stm32f1xx_hal_can.c ****    */
2135:Drivers/STM32F1xx_HAL_Driver/Src/stm32f1xx_hal_can.c **** }
 2100              		.loc 1 2135 1 is_stmt 0 view .LVU698
 2101 0000 7047     		bx	lr
 2102              		.cfi_endproc
ARM GAS  C:\Users\Rick\AppData\Local\Temp\ccbuSalp.s 			page 98


 2103              	.LFE86:
 2105              		.section	.text.HAL_CAN_TxMailbox2CompleteCallback,"ax",%progbits
 2106              		.align	1
 2107              		.weak	HAL_CAN_TxMailbox2CompleteCallback
 2108              		.syntax unified
 2109              		.thumb
 2110              		.thumb_func
 2112              	HAL_CAN_TxMailbox2CompleteCallback:
 2113              	.LVL164:
 2114              	.LFB87:
2136:Drivers/STM32F1xx_HAL_Driver/Src/stm32f1xx_hal_can.c **** 
2137:Drivers/STM32F1xx_HAL_Driver/Src/stm32f1xx_hal_can.c **** /**
2138:Drivers/STM32F1xx_HAL_Driver/Src/stm32f1xx_hal_can.c ****   * @brief  Transmission Mailbox 2 complete callback.
2139:Drivers/STM32F1xx_HAL_Driver/Src/stm32f1xx_hal_can.c ****   * @param  hcan pointer to a CAN_HandleTypeDef structure that contains
2140:Drivers/STM32F1xx_HAL_Driver/Src/stm32f1xx_hal_can.c ****   *         the configuration information for the specified CAN.
2141:Drivers/STM32F1xx_HAL_Driver/Src/stm32f1xx_hal_can.c ****   * @retval None
2142:Drivers/STM32F1xx_HAL_Driver/Src/stm32f1xx_hal_can.c ****   */
2143:Drivers/STM32F1xx_HAL_Driver/Src/stm32f1xx_hal_can.c **** __weak void HAL_CAN_TxMailbox2CompleteCallback(CAN_HandleTypeDef *hcan)
2144:Drivers/STM32F1xx_HAL_Driver/Src/stm32f1xx_hal_can.c **** {
 2115              		.loc 1 2144 1 is_stmt 1 view -0
 2116              		.cfi_startproc
 2117              		@ args = 0, pretend = 0, frame = 0
 2118              		@ frame_needed = 0, uses_anonymous_args = 0
 2119              		@ link register save eliminated.
2145:Drivers/STM32F1xx_HAL_Driver/Src/stm32f1xx_hal_can.c ****   /* Prevent unused argument(s) compilation warning */
2146:Drivers/STM32F1xx_HAL_Driver/Src/stm32f1xx_hal_can.c ****   UNUSED(hcan);
 2120              		.loc 1 2146 3 view .LVU700
2147:Drivers/STM32F1xx_HAL_Driver/Src/stm32f1xx_hal_can.c **** 
2148:Drivers/STM32F1xx_HAL_Driver/Src/stm32f1xx_hal_can.c ****   /* NOTE : This function Should not be modified, when the callback is needed,
2149:Drivers/STM32F1xx_HAL_Driver/Src/stm32f1xx_hal_can.c ****             the HAL_CAN_TxMailbox2CompleteCallback could be implemented in the
2150:Drivers/STM32F1xx_HAL_Driver/Src/stm32f1xx_hal_can.c ****             user file
2151:Drivers/STM32F1xx_HAL_Driver/Src/stm32f1xx_hal_can.c ****    */
2152:Drivers/STM32F1xx_HAL_Driver/Src/stm32f1xx_hal_can.c **** }
 2121              		.loc 1 2152 1 is_stmt 0 view .LVU701
 2122 0000 7047     		bx	lr
 2123              		.cfi_endproc
 2124              	.LFE87:
 2126              		.section	.text.HAL_CAN_TxMailbox0AbortCallback,"ax",%progbits
 2127              		.align	1
 2128              		.weak	HAL_CAN_TxMailbox0AbortCallback
 2129              		.syntax unified
 2130              		.thumb
 2131              		.thumb_func
 2133              	HAL_CAN_TxMailbox0AbortCallback:
 2134              	.LVL165:
 2135              	.LFB88:
2153:Drivers/STM32F1xx_HAL_Driver/Src/stm32f1xx_hal_can.c **** 
2154:Drivers/STM32F1xx_HAL_Driver/Src/stm32f1xx_hal_can.c **** /**
2155:Drivers/STM32F1xx_HAL_Driver/Src/stm32f1xx_hal_can.c ****   * @brief  Transmission Mailbox 0 Cancellation callback.
2156:Drivers/STM32F1xx_HAL_Driver/Src/stm32f1xx_hal_can.c ****   * @param  hcan pointer to an CAN_HandleTypeDef structure that contains
2157:Drivers/STM32F1xx_HAL_Driver/Src/stm32f1xx_hal_can.c ****   *         the configuration information for the specified CAN.
2158:Drivers/STM32F1xx_HAL_Driver/Src/stm32f1xx_hal_can.c ****   * @retval None
2159:Drivers/STM32F1xx_HAL_Driver/Src/stm32f1xx_hal_can.c ****   */
2160:Drivers/STM32F1xx_HAL_Driver/Src/stm32f1xx_hal_can.c **** __weak void HAL_CAN_TxMailbox0AbortCallback(CAN_HandleTypeDef *hcan)
2161:Drivers/STM32F1xx_HAL_Driver/Src/stm32f1xx_hal_can.c **** {
 2136              		.loc 1 2161 1 is_stmt 1 view -0
 2137              		.cfi_startproc
ARM GAS  C:\Users\Rick\AppData\Local\Temp\ccbuSalp.s 			page 99


 2138              		@ args = 0, pretend = 0, frame = 0
 2139              		@ frame_needed = 0, uses_anonymous_args = 0
 2140              		@ link register save eliminated.
2162:Drivers/STM32F1xx_HAL_Driver/Src/stm32f1xx_hal_can.c ****   /* Prevent unused argument(s) compilation warning */
2163:Drivers/STM32F1xx_HAL_Driver/Src/stm32f1xx_hal_can.c ****   UNUSED(hcan);
 2141              		.loc 1 2163 3 view .LVU703
2164:Drivers/STM32F1xx_HAL_Driver/Src/stm32f1xx_hal_can.c **** 
2165:Drivers/STM32F1xx_HAL_Driver/Src/stm32f1xx_hal_can.c ****   /* NOTE : This function Should not be modified, when the callback is needed,
2166:Drivers/STM32F1xx_HAL_Driver/Src/stm32f1xx_hal_can.c ****             the HAL_CAN_TxMailbox0AbortCallback could be implemented in the
2167:Drivers/STM32F1xx_HAL_Driver/Src/stm32f1xx_hal_can.c ****             user file
2168:Drivers/STM32F1xx_HAL_Driver/Src/stm32f1xx_hal_can.c ****    */
2169:Drivers/STM32F1xx_HAL_Driver/Src/stm32f1xx_hal_can.c **** }
 2142              		.loc 1 2169 1 is_stmt 0 view .LVU704
 2143 0000 7047     		bx	lr
 2144              		.cfi_endproc
 2145              	.LFE88:
 2147              		.section	.text.HAL_CAN_TxMailbox1AbortCallback,"ax",%progbits
 2148              		.align	1
 2149              		.weak	HAL_CAN_TxMailbox1AbortCallback
 2150              		.syntax unified
 2151              		.thumb
 2152              		.thumb_func
 2154              	HAL_CAN_TxMailbox1AbortCallback:
 2155              	.LVL166:
 2156              	.LFB89:
2170:Drivers/STM32F1xx_HAL_Driver/Src/stm32f1xx_hal_can.c **** 
2171:Drivers/STM32F1xx_HAL_Driver/Src/stm32f1xx_hal_can.c **** /**
2172:Drivers/STM32F1xx_HAL_Driver/Src/stm32f1xx_hal_can.c ****   * @brief  Transmission Mailbox 1 Cancellation callback.
2173:Drivers/STM32F1xx_HAL_Driver/Src/stm32f1xx_hal_can.c ****   * @param  hcan pointer to an CAN_HandleTypeDef structure that contains
2174:Drivers/STM32F1xx_HAL_Driver/Src/stm32f1xx_hal_can.c ****   *         the configuration information for the specified CAN.
2175:Drivers/STM32F1xx_HAL_Driver/Src/stm32f1xx_hal_can.c ****   * @retval None
2176:Drivers/STM32F1xx_HAL_Driver/Src/stm32f1xx_hal_can.c ****   */
2177:Drivers/STM32F1xx_HAL_Driver/Src/stm32f1xx_hal_can.c **** __weak void HAL_CAN_TxMailbox1AbortCallback(CAN_HandleTypeDef *hcan)
2178:Drivers/STM32F1xx_HAL_Driver/Src/stm32f1xx_hal_can.c **** {
 2157              		.loc 1 2178 1 is_stmt 1 view -0
 2158              		.cfi_startproc
 2159              		@ args = 0, pretend = 0, frame = 0
 2160              		@ frame_needed = 0, uses_anonymous_args = 0
 2161              		@ link register save eliminated.
2179:Drivers/STM32F1xx_HAL_Driver/Src/stm32f1xx_hal_can.c ****   /* Prevent unused argument(s) compilation warning */
2180:Drivers/STM32F1xx_HAL_Driver/Src/stm32f1xx_hal_can.c ****   UNUSED(hcan);
 2162              		.loc 1 2180 3 view .LVU706
2181:Drivers/STM32F1xx_HAL_Driver/Src/stm32f1xx_hal_can.c **** 
2182:Drivers/STM32F1xx_HAL_Driver/Src/stm32f1xx_hal_can.c ****   /* NOTE : This function Should not be modified, when the callback is needed,
2183:Drivers/STM32F1xx_HAL_Driver/Src/stm32f1xx_hal_can.c ****             the HAL_CAN_TxMailbox1AbortCallback could be implemented in the
2184:Drivers/STM32F1xx_HAL_Driver/Src/stm32f1xx_hal_can.c ****             user file
2185:Drivers/STM32F1xx_HAL_Driver/Src/stm32f1xx_hal_can.c ****    */
2186:Drivers/STM32F1xx_HAL_Driver/Src/stm32f1xx_hal_can.c **** }
 2163              		.loc 1 2186 1 is_stmt 0 view .LVU707
 2164 0000 7047     		bx	lr
 2165              		.cfi_endproc
 2166              	.LFE89:
 2168              		.section	.text.HAL_CAN_TxMailbox2AbortCallback,"ax",%progbits
 2169              		.align	1
 2170              		.weak	HAL_CAN_TxMailbox2AbortCallback
 2171              		.syntax unified
 2172              		.thumb
ARM GAS  C:\Users\Rick\AppData\Local\Temp\ccbuSalp.s 			page 100


 2173              		.thumb_func
 2175              	HAL_CAN_TxMailbox2AbortCallback:
 2176              	.LVL167:
 2177              	.LFB90:
2187:Drivers/STM32F1xx_HAL_Driver/Src/stm32f1xx_hal_can.c **** 
2188:Drivers/STM32F1xx_HAL_Driver/Src/stm32f1xx_hal_can.c **** /**
2189:Drivers/STM32F1xx_HAL_Driver/Src/stm32f1xx_hal_can.c ****   * @brief  Transmission Mailbox 2 Cancellation callback.
2190:Drivers/STM32F1xx_HAL_Driver/Src/stm32f1xx_hal_can.c ****   * @param  hcan pointer to an CAN_HandleTypeDef structure that contains
2191:Drivers/STM32F1xx_HAL_Driver/Src/stm32f1xx_hal_can.c ****   *         the configuration information for the specified CAN.
2192:Drivers/STM32F1xx_HAL_Driver/Src/stm32f1xx_hal_can.c ****   * @retval None
2193:Drivers/STM32F1xx_HAL_Driver/Src/stm32f1xx_hal_can.c ****   */
2194:Drivers/STM32F1xx_HAL_Driver/Src/stm32f1xx_hal_can.c **** __weak void HAL_CAN_TxMailbox2AbortCallback(CAN_HandleTypeDef *hcan)
2195:Drivers/STM32F1xx_HAL_Driver/Src/stm32f1xx_hal_can.c **** {
 2178              		.loc 1 2195 1 is_stmt 1 view -0
 2179              		.cfi_startproc
 2180              		@ args = 0, pretend = 0, frame = 0
 2181              		@ frame_needed = 0, uses_anonymous_args = 0
 2182              		@ link register save eliminated.
2196:Drivers/STM32F1xx_HAL_Driver/Src/stm32f1xx_hal_can.c ****   /* Prevent unused argument(s) compilation warning */
2197:Drivers/STM32F1xx_HAL_Driver/Src/stm32f1xx_hal_can.c ****   UNUSED(hcan);
 2183              		.loc 1 2197 3 view .LVU709
2198:Drivers/STM32F1xx_HAL_Driver/Src/stm32f1xx_hal_can.c **** 
2199:Drivers/STM32F1xx_HAL_Driver/Src/stm32f1xx_hal_can.c ****   /* NOTE : This function Should not be modified, when the callback is needed,
2200:Drivers/STM32F1xx_HAL_Driver/Src/stm32f1xx_hal_can.c ****             the HAL_CAN_TxMailbox2AbortCallback could be implemented in the
2201:Drivers/STM32F1xx_HAL_Driver/Src/stm32f1xx_hal_can.c ****             user file
2202:Drivers/STM32F1xx_HAL_Driver/Src/stm32f1xx_hal_can.c ****    */
2203:Drivers/STM32F1xx_HAL_Driver/Src/stm32f1xx_hal_can.c **** }
 2184              		.loc 1 2203 1 is_stmt 0 view .LVU710
 2185 0000 7047     		bx	lr
 2186              		.cfi_endproc
 2187              	.LFE90:
 2189              		.section	.text.HAL_CAN_RxFifo0MsgPendingCallback,"ax",%progbits
 2190              		.align	1
 2191              		.weak	HAL_CAN_RxFifo0MsgPendingCallback
 2192              		.syntax unified
 2193              		.thumb
 2194              		.thumb_func
 2196              	HAL_CAN_RxFifo0MsgPendingCallback:
 2197              	.LVL168:
 2198              	.LFB91:
2204:Drivers/STM32F1xx_HAL_Driver/Src/stm32f1xx_hal_can.c **** 
2205:Drivers/STM32F1xx_HAL_Driver/Src/stm32f1xx_hal_can.c **** /**
2206:Drivers/STM32F1xx_HAL_Driver/Src/stm32f1xx_hal_can.c ****   * @brief  Rx FIFO 0 message pending callback.
2207:Drivers/STM32F1xx_HAL_Driver/Src/stm32f1xx_hal_can.c ****   * @param  hcan pointer to a CAN_HandleTypeDef structure that contains
2208:Drivers/STM32F1xx_HAL_Driver/Src/stm32f1xx_hal_can.c ****   *         the configuration information for the specified CAN.
2209:Drivers/STM32F1xx_HAL_Driver/Src/stm32f1xx_hal_can.c ****   * @retval None
2210:Drivers/STM32F1xx_HAL_Driver/Src/stm32f1xx_hal_can.c ****   */
2211:Drivers/STM32F1xx_HAL_Driver/Src/stm32f1xx_hal_can.c **** __weak void HAL_CAN_RxFifo0MsgPendingCallback(CAN_HandleTypeDef *hcan)
2212:Drivers/STM32F1xx_HAL_Driver/Src/stm32f1xx_hal_can.c **** {
 2199              		.loc 1 2212 1 is_stmt 1 view -0
 2200              		.cfi_startproc
 2201              		@ args = 0, pretend = 0, frame = 0
 2202              		@ frame_needed = 0, uses_anonymous_args = 0
 2203              		@ link register save eliminated.
2213:Drivers/STM32F1xx_HAL_Driver/Src/stm32f1xx_hal_can.c ****   /* Prevent unused argument(s) compilation warning */
2214:Drivers/STM32F1xx_HAL_Driver/Src/stm32f1xx_hal_can.c ****   UNUSED(hcan);
 2204              		.loc 1 2214 3 view .LVU712
ARM GAS  C:\Users\Rick\AppData\Local\Temp\ccbuSalp.s 			page 101


2215:Drivers/STM32F1xx_HAL_Driver/Src/stm32f1xx_hal_can.c **** 
2216:Drivers/STM32F1xx_HAL_Driver/Src/stm32f1xx_hal_can.c ****   /* NOTE : This function Should not be modified, when the callback is needed,
2217:Drivers/STM32F1xx_HAL_Driver/Src/stm32f1xx_hal_can.c ****             the HAL_CAN_RxFifo0MsgPendingCallback could be implemented in the
2218:Drivers/STM32F1xx_HAL_Driver/Src/stm32f1xx_hal_can.c ****             user file
2219:Drivers/STM32F1xx_HAL_Driver/Src/stm32f1xx_hal_can.c ****    */
2220:Drivers/STM32F1xx_HAL_Driver/Src/stm32f1xx_hal_can.c **** }
 2205              		.loc 1 2220 1 is_stmt 0 view .LVU713
 2206 0000 7047     		bx	lr
 2207              		.cfi_endproc
 2208              	.LFE91:
 2210              		.section	.text.HAL_CAN_RxFifo0FullCallback,"ax",%progbits
 2211              		.align	1
 2212              		.weak	HAL_CAN_RxFifo0FullCallback
 2213              		.syntax unified
 2214              		.thumb
 2215              		.thumb_func
 2217              	HAL_CAN_RxFifo0FullCallback:
 2218              	.LVL169:
 2219              	.LFB92:
2221:Drivers/STM32F1xx_HAL_Driver/Src/stm32f1xx_hal_can.c **** 
2222:Drivers/STM32F1xx_HAL_Driver/Src/stm32f1xx_hal_can.c **** /**
2223:Drivers/STM32F1xx_HAL_Driver/Src/stm32f1xx_hal_can.c ****   * @brief  Rx FIFO 0 full callback.
2224:Drivers/STM32F1xx_HAL_Driver/Src/stm32f1xx_hal_can.c ****   * @param  hcan pointer to a CAN_HandleTypeDef structure that contains
2225:Drivers/STM32F1xx_HAL_Driver/Src/stm32f1xx_hal_can.c ****   *         the configuration information for the specified CAN.
2226:Drivers/STM32F1xx_HAL_Driver/Src/stm32f1xx_hal_can.c ****   * @retval None
2227:Drivers/STM32F1xx_HAL_Driver/Src/stm32f1xx_hal_can.c ****   */
2228:Drivers/STM32F1xx_HAL_Driver/Src/stm32f1xx_hal_can.c **** __weak void HAL_CAN_RxFifo0FullCallback(CAN_HandleTypeDef *hcan)
2229:Drivers/STM32F1xx_HAL_Driver/Src/stm32f1xx_hal_can.c **** {
 2220              		.loc 1 2229 1 is_stmt 1 view -0
 2221              		.cfi_startproc
 2222              		@ args = 0, pretend = 0, frame = 0
 2223              		@ frame_needed = 0, uses_anonymous_args = 0
 2224              		@ link register save eliminated.
2230:Drivers/STM32F1xx_HAL_Driver/Src/stm32f1xx_hal_can.c ****   /* Prevent unused argument(s) compilation warning */
2231:Drivers/STM32F1xx_HAL_Driver/Src/stm32f1xx_hal_can.c ****   UNUSED(hcan);
 2225              		.loc 1 2231 3 view .LVU715
2232:Drivers/STM32F1xx_HAL_Driver/Src/stm32f1xx_hal_can.c **** 
2233:Drivers/STM32F1xx_HAL_Driver/Src/stm32f1xx_hal_can.c ****   /* NOTE : This function Should not be modified, when the callback is needed,
2234:Drivers/STM32F1xx_HAL_Driver/Src/stm32f1xx_hal_can.c ****             the HAL_CAN_RxFifo0FullCallback could be implemented in the user
2235:Drivers/STM32F1xx_HAL_Driver/Src/stm32f1xx_hal_can.c ****             file
2236:Drivers/STM32F1xx_HAL_Driver/Src/stm32f1xx_hal_can.c ****    */
2237:Drivers/STM32F1xx_HAL_Driver/Src/stm32f1xx_hal_can.c **** }
 2226              		.loc 1 2237 1 is_stmt 0 view .LVU716
 2227 0000 7047     		bx	lr
 2228              		.cfi_endproc
 2229              	.LFE92:
 2231              		.section	.text.HAL_CAN_RxFifo1MsgPendingCallback,"ax",%progbits
 2232              		.align	1
 2233              		.weak	HAL_CAN_RxFifo1MsgPendingCallback
 2234              		.syntax unified
 2235              		.thumb
 2236              		.thumb_func
 2238              	HAL_CAN_RxFifo1MsgPendingCallback:
 2239              	.LVL170:
 2240              	.LFB93:
2238:Drivers/STM32F1xx_HAL_Driver/Src/stm32f1xx_hal_can.c **** 
2239:Drivers/STM32F1xx_HAL_Driver/Src/stm32f1xx_hal_can.c **** /**
ARM GAS  C:\Users\Rick\AppData\Local\Temp\ccbuSalp.s 			page 102


2240:Drivers/STM32F1xx_HAL_Driver/Src/stm32f1xx_hal_can.c ****   * @brief  Rx FIFO 1 message pending callback.
2241:Drivers/STM32F1xx_HAL_Driver/Src/stm32f1xx_hal_can.c ****   * @param  hcan pointer to a CAN_HandleTypeDef structure that contains
2242:Drivers/STM32F1xx_HAL_Driver/Src/stm32f1xx_hal_can.c ****   *         the configuration information for the specified CAN.
2243:Drivers/STM32F1xx_HAL_Driver/Src/stm32f1xx_hal_can.c ****   * @retval None
2244:Drivers/STM32F1xx_HAL_Driver/Src/stm32f1xx_hal_can.c ****   */
2245:Drivers/STM32F1xx_HAL_Driver/Src/stm32f1xx_hal_can.c **** __weak void HAL_CAN_RxFifo1MsgPendingCallback(CAN_HandleTypeDef *hcan)
2246:Drivers/STM32F1xx_HAL_Driver/Src/stm32f1xx_hal_can.c **** {
 2241              		.loc 1 2246 1 is_stmt 1 view -0
 2242              		.cfi_startproc
 2243              		@ args = 0, pretend = 0, frame = 0
 2244              		@ frame_needed = 0, uses_anonymous_args = 0
 2245              		@ link register save eliminated.
2247:Drivers/STM32F1xx_HAL_Driver/Src/stm32f1xx_hal_can.c ****   /* Prevent unused argument(s) compilation warning */
2248:Drivers/STM32F1xx_HAL_Driver/Src/stm32f1xx_hal_can.c ****   UNUSED(hcan);
 2246              		.loc 1 2248 3 view .LVU718
2249:Drivers/STM32F1xx_HAL_Driver/Src/stm32f1xx_hal_can.c **** 
2250:Drivers/STM32F1xx_HAL_Driver/Src/stm32f1xx_hal_can.c ****   /* NOTE : This function Should not be modified, when the callback is needed,
2251:Drivers/STM32F1xx_HAL_Driver/Src/stm32f1xx_hal_can.c ****             the HAL_CAN_RxFifo1MsgPendingCallback could be implemented in the
2252:Drivers/STM32F1xx_HAL_Driver/Src/stm32f1xx_hal_can.c ****             user file
2253:Drivers/STM32F1xx_HAL_Driver/Src/stm32f1xx_hal_can.c ****    */
2254:Drivers/STM32F1xx_HAL_Driver/Src/stm32f1xx_hal_can.c **** }
 2247              		.loc 1 2254 1 is_stmt 0 view .LVU719
 2248 0000 7047     		bx	lr
 2249              		.cfi_endproc
 2250              	.LFE93:
 2252              		.section	.text.HAL_CAN_RxFifo1FullCallback,"ax",%progbits
 2253              		.align	1
 2254              		.weak	HAL_CAN_RxFifo1FullCallback
 2255              		.syntax unified
 2256              		.thumb
 2257              		.thumb_func
 2259              	HAL_CAN_RxFifo1FullCallback:
 2260              	.LVL171:
 2261              	.LFB94:
2255:Drivers/STM32F1xx_HAL_Driver/Src/stm32f1xx_hal_can.c **** 
2256:Drivers/STM32F1xx_HAL_Driver/Src/stm32f1xx_hal_can.c **** /**
2257:Drivers/STM32F1xx_HAL_Driver/Src/stm32f1xx_hal_can.c ****   * @brief  Rx FIFO 1 full callback.
2258:Drivers/STM32F1xx_HAL_Driver/Src/stm32f1xx_hal_can.c ****   * @param  hcan pointer to a CAN_HandleTypeDef structure that contains
2259:Drivers/STM32F1xx_HAL_Driver/Src/stm32f1xx_hal_can.c ****   *         the configuration information for the specified CAN.
2260:Drivers/STM32F1xx_HAL_Driver/Src/stm32f1xx_hal_can.c ****   * @retval None
2261:Drivers/STM32F1xx_HAL_Driver/Src/stm32f1xx_hal_can.c ****   */
2262:Drivers/STM32F1xx_HAL_Driver/Src/stm32f1xx_hal_can.c **** __weak void HAL_CAN_RxFifo1FullCallback(CAN_HandleTypeDef *hcan)
2263:Drivers/STM32F1xx_HAL_Driver/Src/stm32f1xx_hal_can.c **** {
 2262              		.loc 1 2263 1 is_stmt 1 view -0
 2263              		.cfi_startproc
 2264              		@ args = 0, pretend = 0, frame = 0
 2265              		@ frame_needed = 0, uses_anonymous_args = 0
 2266              		@ link register save eliminated.
2264:Drivers/STM32F1xx_HAL_Driver/Src/stm32f1xx_hal_can.c ****   /* Prevent unused argument(s) compilation warning */
2265:Drivers/STM32F1xx_HAL_Driver/Src/stm32f1xx_hal_can.c ****   UNUSED(hcan);
 2267              		.loc 1 2265 3 view .LVU721
2266:Drivers/STM32F1xx_HAL_Driver/Src/stm32f1xx_hal_can.c **** 
2267:Drivers/STM32F1xx_HAL_Driver/Src/stm32f1xx_hal_can.c ****   /* NOTE : This function Should not be modified, when the callback is needed,
2268:Drivers/STM32F1xx_HAL_Driver/Src/stm32f1xx_hal_can.c ****             the HAL_CAN_RxFifo1FullCallback could be implemented in the user
2269:Drivers/STM32F1xx_HAL_Driver/Src/stm32f1xx_hal_can.c ****             file
2270:Drivers/STM32F1xx_HAL_Driver/Src/stm32f1xx_hal_can.c ****    */
2271:Drivers/STM32F1xx_HAL_Driver/Src/stm32f1xx_hal_can.c **** }
ARM GAS  C:\Users\Rick\AppData\Local\Temp\ccbuSalp.s 			page 103


 2268              		.loc 1 2271 1 is_stmt 0 view .LVU722
 2269 0000 7047     		bx	lr
 2270              		.cfi_endproc
 2271              	.LFE94:
 2273              		.section	.text.HAL_CAN_SleepCallback,"ax",%progbits
 2274              		.align	1
 2275              		.weak	HAL_CAN_SleepCallback
 2276              		.syntax unified
 2277              		.thumb
 2278              		.thumb_func
 2280              	HAL_CAN_SleepCallback:
 2281              	.LVL172:
 2282              	.LFB95:
2272:Drivers/STM32F1xx_HAL_Driver/Src/stm32f1xx_hal_can.c **** 
2273:Drivers/STM32F1xx_HAL_Driver/Src/stm32f1xx_hal_can.c **** /**
2274:Drivers/STM32F1xx_HAL_Driver/Src/stm32f1xx_hal_can.c ****   * @brief  Sleep callback.
2275:Drivers/STM32F1xx_HAL_Driver/Src/stm32f1xx_hal_can.c ****   * @param  hcan pointer to a CAN_HandleTypeDef structure that contains
2276:Drivers/STM32F1xx_HAL_Driver/Src/stm32f1xx_hal_can.c ****   *         the configuration information for the specified CAN.
2277:Drivers/STM32F1xx_HAL_Driver/Src/stm32f1xx_hal_can.c ****   * @retval None
2278:Drivers/STM32F1xx_HAL_Driver/Src/stm32f1xx_hal_can.c ****   */
2279:Drivers/STM32F1xx_HAL_Driver/Src/stm32f1xx_hal_can.c **** __weak void HAL_CAN_SleepCallback(CAN_HandleTypeDef *hcan)
2280:Drivers/STM32F1xx_HAL_Driver/Src/stm32f1xx_hal_can.c **** {
 2283              		.loc 1 2280 1 is_stmt 1 view -0
 2284              		.cfi_startproc
 2285              		@ args = 0, pretend = 0, frame = 0
 2286              		@ frame_needed = 0, uses_anonymous_args = 0
 2287              		@ link register save eliminated.
2281:Drivers/STM32F1xx_HAL_Driver/Src/stm32f1xx_hal_can.c ****   /* Prevent unused argument(s) compilation warning */
2282:Drivers/STM32F1xx_HAL_Driver/Src/stm32f1xx_hal_can.c ****   UNUSED(hcan);
 2288              		.loc 1 2282 3 view .LVU724
2283:Drivers/STM32F1xx_HAL_Driver/Src/stm32f1xx_hal_can.c **** 
2284:Drivers/STM32F1xx_HAL_Driver/Src/stm32f1xx_hal_can.c ****   /* NOTE : This function Should not be modified, when the callback is needed,
2285:Drivers/STM32F1xx_HAL_Driver/Src/stm32f1xx_hal_can.c ****             the HAL_CAN_SleepCallback could be implemented in the user file
2286:Drivers/STM32F1xx_HAL_Driver/Src/stm32f1xx_hal_can.c ****    */
2287:Drivers/STM32F1xx_HAL_Driver/Src/stm32f1xx_hal_can.c **** }
 2289              		.loc 1 2287 1 is_stmt 0 view .LVU725
 2290 0000 7047     		bx	lr
 2291              		.cfi_endproc
 2292              	.LFE95:
 2294              		.section	.text.HAL_CAN_WakeUpFromRxMsgCallback,"ax",%progbits
 2295              		.align	1
 2296              		.weak	HAL_CAN_WakeUpFromRxMsgCallback
 2297              		.syntax unified
 2298              		.thumb
 2299              		.thumb_func
 2301              	HAL_CAN_WakeUpFromRxMsgCallback:
 2302              	.LVL173:
 2303              	.LFB96:
2288:Drivers/STM32F1xx_HAL_Driver/Src/stm32f1xx_hal_can.c **** 
2289:Drivers/STM32F1xx_HAL_Driver/Src/stm32f1xx_hal_can.c **** /**
2290:Drivers/STM32F1xx_HAL_Driver/Src/stm32f1xx_hal_can.c ****   * @brief  WakeUp from Rx message callback.
2291:Drivers/STM32F1xx_HAL_Driver/Src/stm32f1xx_hal_can.c ****   * @param  hcan pointer to a CAN_HandleTypeDef structure that contains
2292:Drivers/STM32F1xx_HAL_Driver/Src/stm32f1xx_hal_can.c ****   *         the configuration information for the specified CAN.
2293:Drivers/STM32F1xx_HAL_Driver/Src/stm32f1xx_hal_can.c ****   * @retval None
2294:Drivers/STM32F1xx_HAL_Driver/Src/stm32f1xx_hal_can.c ****   */
2295:Drivers/STM32F1xx_HAL_Driver/Src/stm32f1xx_hal_can.c **** __weak void HAL_CAN_WakeUpFromRxMsgCallback(CAN_HandleTypeDef *hcan)
2296:Drivers/STM32F1xx_HAL_Driver/Src/stm32f1xx_hal_can.c **** {
ARM GAS  C:\Users\Rick\AppData\Local\Temp\ccbuSalp.s 			page 104


 2304              		.loc 1 2296 1 is_stmt 1 view -0
 2305              		.cfi_startproc
 2306              		@ args = 0, pretend = 0, frame = 0
 2307              		@ frame_needed = 0, uses_anonymous_args = 0
 2308              		@ link register save eliminated.
2297:Drivers/STM32F1xx_HAL_Driver/Src/stm32f1xx_hal_can.c ****   /* Prevent unused argument(s) compilation warning */
2298:Drivers/STM32F1xx_HAL_Driver/Src/stm32f1xx_hal_can.c ****   UNUSED(hcan);
 2309              		.loc 1 2298 3 view .LVU727
2299:Drivers/STM32F1xx_HAL_Driver/Src/stm32f1xx_hal_can.c **** 
2300:Drivers/STM32F1xx_HAL_Driver/Src/stm32f1xx_hal_can.c ****   /* NOTE : This function Should not be modified, when the callback is needed,
2301:Drivers/STM32F1xx_HAL_Driver/Src/stm32f1xx_hal_can.c ****             the HAL_CAN_WakeUpFromRxMsgCallback could be implemented in the
2302:Drivers/STM32F1xx_HAL_Driver/Src/stm32f1xx_hal_can.c ****             user file
2303:Drivers/STM32F1xx_HAL_Driver/Src/stm32f1xx_hal_can.c ****    */
2304:Drivers/STM32F1xx_HAL_Driver/Src/stm32f1xx_hal_can.c **** }
 2310              		.loc 1 2304 1 is_stmt 0 view .LVU728
 2311 0000 7047     		bx	lr
 2312              		.cfi_endproc
 2313              	.LFE96:
 2315              		.section	.text.HAL_CAN_ErrorCallback,"ax",%progbits
 2316              		.align	1
 2317              		.weak	HAL_CAN_ErrorCallback
 2318              		.syntax unified
 2319              		.thumb
 2320              		.thumb_func
 2322              	HAL_CAN_ErrorCallback:
 2323              	.LVL174:
 2324              	.LFB97:
2305:Drivers/STM32F1xx_HAL_Driver/Src/stm32f1xx_hal_can.c **** 
2306:Drivers/STM32F1xx_HAL_Driver/Src/stm32f1xx_hal_can.c **** /**
2307:Drivers/STM32F1xx_HAL_Driver/Src/stm32f1xx_hal_can.c ****   * @brief  Error CAN callback.
2308:Drivers/STM32F1xx_HAL_Driver/Src/stm32f1xx_hal_can.c ****   * @param  hcan pointer to a CAN_HandleTypeDef structure that contains
2309:Drivers/STM32F1xx_HAL_Driver/Src/stm32f1xx_hal_can.c ****   *         the configuration information for the specified CAN.
2310:Drivers/STM32F1xx_HAL_Driver/Src/stm32f1xx_hal_can.c ****   * @retval None
2311:Drivers/STM32F1xx_HAL_Driver/Src/stm32f1xx_hal_can.c ****   */
2312:Drivers/STM32F1xx_HAL_Driver/Src/stm32f1xx_hal_can.c **** __weak void HAL_CAN_ErrorCallback(CAN_HandleTypeDef *hcan)
2313:Drivers/STM32F1xx_HAL_Driver/Src/stm32f1xx_hal_can.c **** {
 2325              		.loc 1 2313 1 is_stmt 1 view -0
 2326              		.cfi_startproc
 2327              		@ args = 0, pretend = 0, frame = 0
 2328              		@ frame_needed = 0, uses_anonymous_args = 0
 2329              		@ link register save eliminated.
2314:Drivers/STM32F1xx_HAL_Driver/Src/stm32f1xx_hal_can.c ****   /* Prevent unused argument(s) compilation warning */
2315:Drivers/STM32F1xx_HAL_Driver/Src/stm32f1xx_hal_can.c ****   UNUSED(hcan);
 2330              		.loc 1 2315 3 view .LVU730
2316:Drivers/STM32F1xx_HAL_Driver/Src/stm32f1xx_hal_can.c **** 
2317:Drivers/STM32F1xx_HAL_Driver/Src/stm32f1xx_hal_can.c ****   /* NOTE : This function Should not be modified, when the callback is needed,
2318:Drivers/STM32F1xx_HAL_Driver/Src/stm32f1xx_hal_can.c ****             the HAL_CAN_ErrorCallback could be implemented in the user file
2319:Drivers/STM32F1xx_HAL_Driver/Src/stm32f1xx_hal_can.c ****    */
2320:Drivers/STM32F1xx_HAL_Driver/Src/stm32f1xx_hal_can.c **** }
 2331              		.loc 1 2320 1 is_stmt 0 view .LVU731
 2332 0000 7047     		bx	lr
 2333              		.cfi_endproc
 2334              	.LFE97:
 2336              		.section	.text.HAL_CAN_IRQHandler,"ax",%progbits
 2337              		.align	1
 2338              		.global	HAL_CAN_IRQHandler
 2339              		.syntax unified
ARM GAS  C:\Users\Rick\AppData\Local\Temp\ccbuSalp.s 			page 105


 2340              		.thumb
 2341              		.thumb_func
 2343              	HAL_CAN_IRQHandler:
 2344              	.LVL175:
 2345              	.LFB84:
1699:Drivers/STM32F1xx_HAL_Driver/Src/stm32f1xx_hal_can.c ****   uint32_t errorcode = HAL_CAN_ERROR_NONE;
 2346              		.loc 1 1699 1 is_stmt 1 view -0
 2347              		.cfi_startproc
 2348              		@ args = 0, pretend = 0, frame = 0
 2349              		@ frame_needed = 0, uses_anonymous_args = 0
1699:Drivers/STM32F1xx_HAL_Driver/Src/stm32f1xx_hal_can.c ****   uint32_t errorcode = HAL_CAN_ERROR_NONE;
 2350              		.loc 1 1699 1 is_stmt 0 view .LVU733
 2351 0000 2DE9F84F 		push	{r3, r4, r5, r6, r7, r8, r9, r10, fp, lr}
 2352              	.LCFI14:
 2353              		.cfi_def_cfa_offset 40
 2354              		.cfi_offset 3, -40
 2355              		.cfi_offset 4, -36
 2356              		.cfi_offset 5, -32
 2357              		.cfi_offset 6, -28
 2358              		.cfi_offset 7, -24
 2359              		.cfi_offset 8, -20
 2360              		.cfi_offset 9, -16
 2361              		.cfi_offset 10, -12
 2362              		.cfi_offset 11, -8
 2363              		.cfi_offset 14, -4
 2364 0004 0546     		mov	r5, r0
1700:Drivers/STM32F1xx_HAL_Driver/Src/stm32f1xx_hal_can.c ****   uint32_t interrupts = READ_REG(hcan->Instance->IER);
 2365              		.loc 1 1700 3 is_stmt 1 view .LVU734
 2366              	.LVL176:
1701:Drivers/STM32F1xx_HAL_Driver/Src/stm32f1xx_hal_can.c ****   uint32_t msrflags = READ_REG(hcan->Instance->MSR);
 2367              		.loc 1 1701 3 view .LVU735
1701:Drivers/STM32F1xx_HAL_Driver/Src/stm32f1xx_hal_can.c ****   uint32_t msrflags = READ_REG(hcan->Instance->MSR);
 2368              		.loc 1 1701 25 is_stmt 0 view .LVU736
 2369 0006 0368     		ldr	r3, [r0]
1701:Drivers/STM32F1xx_HAL_Driver/Src/stm32f1xx_hal_can.c ****   uint32_t msrflags = READ_REG(hcan->Instance->MSR);
 2370              		.loc 1 1701 12 view .LVU737
 2371 0008 5C69     		ldr	r4, [r3, #20]
 2372              	.LVL177:
1702:Drivers/STM32F1xx_HAL_Driver/Src/stm32f1xx_hal_can.c ****   uint32_t tsrflags = READ_REG(hcan->Instance->TSR);
 2373              		.loc 1 1702 3 is_stmt 1 view .LVU738
1702:Drivers/STM32F1xx_HAL_Driver/Src/stm32f1xx_hal_can.c ****   uint32_t tsrflags = READ_REG(hcan->Instance->TSR);
 2374              		.loc 1 1702 12 is_stmt 0 view .LVU739
 2375 000a D3F80480 		ldr	r8, [r3, #4]
 2376              	.LVL178:
1703:Drivers/STM32F1xx_HAL_Driver/Src/stm32f1xx_hal_can.c ****   uint32_t rf0rflags = READ_REG(hcan->Instance->RF0R);
 2377              		.loc 1 1703 3 is_stmt 1 view .LVU740
1703:Drivers/STM32F1xx_HAL_Driver/Src/stm32f1xx_hal_can.c ****   uint32_t rf0rflags = READ_REG(hcan->Instance->RF0R);
 2378              		.loc 1 1703 12 is_stmt 0 view .LVU741
 2379 000e 9F68     		ldr	r7, [r3, #8]
 2380              	.LVL179:
1704:Drivers/STM32F1xx_HAL_Driver/Src/stm32f1xx_hal_can.c ****   uint32_t rf1rflags = READ_REG(hcan->Instance->RF1R);
 2381              		.loc 1 1704 3 is_stmt 1 view .LVU742
1704:Drivers/STM32F1xx_HAL_Driver/Src/stm32f1xx_hal_can.c ****   uint32_t rf1rflags = READ_REG(hcan->Instance->RF1R);
 2382              		.loc 1 1704 12 is_stmt 0 view .LVU743
 2383 0010 D3F80CB0 		ldr	fp, [r3, #12]
 2384              	.LVL180:
1705:Drivers/STM32F1xx_HAL_Driver/Src/stm32f1xx_hal_can.c ****   uint32_t esrflags = READ_REG(hcan->Instance->ESR);
ARM GAS  C:\Users\Rick\AppData\Local\Temp\ccbuSalp.s 			page 106


 2385              		.loc 1 1705 3 is_stmt 1 view .LVU744
1705:Drivers/STM32F1xx_HAL_Driver/Src/stm32f1xx_hal_can.c ****   uint32_t esrflags = READ_REG(hcan->Instance->ESR);
 2386              		.loc 1 1705 12 is_stmt 0 view .LVU745
 2387 0014 D3F810A0 		ldr	r10, [r3, #16]
 2388              	.LVL181:
1706:Drivers/STM32F1xx_HAL_Driver/Src/stm32f1xx_hal_can.c **** 
 2389              		.loc 1 1706 3 is_stmt 1 view .LVU746
1706:Drivers/STM32F1xx_HAL_Driver/Src/stm32f1xx_hal_can.c **** 
 2390              		.loc 1 1706 12 is_stmt 0 view .LVU747
 2391 0018 D3F81890 		ldr	r9, [r3, #24]
 2392              	.LVL182:
1709:Drivers/STM32F1xx_HAL_Driver/Src/stm32f1xx_hal_can.c ****   {
 2393              		.loc 1 1709 3 is_stmt 1 view .LVU748
1709:Drivers/STM32F1xx_HAL_Driver/Src/stm32f1xx_hal_can.c ****   {
 2394              		.loc 1 1709 6 is_stmt 0 view .LVU749
 2395 001c 14F00106 		ands	r6, r4, #1
 2396 0020 3BD0     		beq	.L169
1712:Drivers/STM32F1xx_HAL_Driver/Src/stm32f1xx_hal_can.c ****     {
 2397              		.loc 1 1712 5 is_stmt 1 view .LVU750
1712:Drivers/STM32F1xx_HAL_Driver/Src/stm32f1xx_hal_can.c ****     {
 2398              		.loc 1 1712 8 is_stmt 0 view .LVU751
 2399 0022 17F00106 		ands	r6, r7, #1
 2400 0026 16D0     		beq	.L170
1715:Drivers/STM32F1xx_HAL_Driver/Src/stm32f1xx_hal_can.c **** 
 2401              		.loc 1 1715 7 is_stmt 1 view .LVU752
 2402 0028 0122     		movs	r2, #1
 2403 002a 9A60     		str	r2, [r3, #8]
1717:Drivers/STM32F1xx_HAL_Driver/Src/stm32f1xx_hal_can.c ****       {
 2404              		.loc 1 1717 7 view .LVU753
1717:Drivers/STM32F1xx_HAL_Driver/Src/stm32f1xx_hal_can.c ****       {
 2405              		.loc 1 1717 10 is_stmt 0 view .LVU754
 2406 002c 17F0020F 		tst	r7, #2
 2407 0030 08D1     		bne	.L204
1730:Drivers/STM32F1xx_HAL_Driver/Src/stm32f1xx_hal_can.c ****         {
 2408              		.loc 1 1730 9 is_stmt 1 view .LVU755
1730:Drivers/STM32F1xx_HAL_Driver/Src/stm32f1xx_hal_can.c ****         {
 2409              		.loc 1 1730 12 is_stmt 0 view .LVU756
 2410 0032 17F0040F 		tst	r7, #4
 2411 0036 0CD1     		bne	.L201
1735:Drivers/STM32F1xx_HAL_Driver/Src/stm32f1xx_hal_can.c ****         {
 2412              		.loc 1 1735 14 is_stmt 1 view .LVU757
1735:Drivers/STM32F1xx_HAL_Driver/Src/stm32f1xx_hal_can.c ****         {
 2413              		.loc 1 1735 17 is_stmt 0 view .LVU758
 2414 0038 17F00806 		ands	r6, r7, #8
 2415 003c 06D0     		beq	.L205
1738:Drivers/STM32F1xx_HAL_Driver/Src/stm32f1xx_hal_can.c ****         }
 2416              		.loc 1 1738 21 view .LVU759
 2417 003e 4FF48056 		mov	r6, #4096
 2418 0042 08E0     		b	.L170
 2419              	.L204:
1725:Drivers/STM32F1xx_HAL_Driver/Src/stm32f1xx_hal_can.c **** #endif /* USE_HAL_CAN_REGISTER_CALLBACKS */
 2420              		.loc 1 1725 9 is_stmt 1 view .LVU760
 2421 0044 FFF7FEFF 		bl	HAL_CAN_TxMailbox0CompleteCallback
 2422              	.LVL183:
1700:Drivers/STM32F1xx_HAL_Driver/Src/stm32f1xx_hal_can.c ****   uint32_t interrupts = READ_REG(hcan->Instance->IER);
 2423              		.loc 1 1700 12 is_stmt 0 view .LVU761
 2424 0048 0026     		movs	r6, #0
ARM GAS  C:\Users\Rick\AppData\Local\Temp\ccbuSalp.s 			page 107


 2425 004a 04E0     		b	.L170
 2426              	.LVL184:
 2427              	.L205:
1748:Drivers/STM32F1xx_HAL_Driver/Src/stm32f1xx_hal_can.c **** #endif /* USE_HAL_CAN_REGISTER_CALLBACKS */
 2428              		.loc 1 1748 11 is_stmt 1 view .LVU762
 2429 004c FFF7FEFF 		bl	HAL_CAN_TxMailbox0AbortCallback
 2430              	.LVL185:
1748:Drivers/STM32F1xx_HAL_Driver/Src/stm32f1xx_hal_can.c **** #endif /* USE_HAL_CAN_REGISTER_CALLBACKS */
 2431              		.loc 1 1748 11 is_stmt 0 view .LVU763
 2432 0050 01E0     		b	.L170
 2433              	.LVL186:
 2434              	.L201:
1733:Drivers/STM32F1xx_HAL_Driver/Src/stm32f1xx_hal_can.c ****         }
 2435              		.loc 1 1733 21 view .LVU764
 2436 0052 4FF40066 		mov	r6, #2048
 2437              	.LVL187:
 2438              	.L170:
1755:Drivers/STM32F1xx_HAL_Driver/Src/stm32f1xx_hal_can.c ****     {
 2439              		.loc 1 1755 5 is_stmt 1 view .LVU765
1755:Drivers/STM32F1xx_HAL_Driver/Src/stm32f1xx_hal_can.c ****     {
 2440              		.loc 1 1755 8 is_stmt 0 view .LVU766
 2441 0056 17F4807F 		tst	r7, #256
 2442 005a 0DD0     		beq	.L172
1758:Drivers/STM32F1xx_HAL_Driver/Src/stm32f1xx_hal_can.c **** 
 2443              		.loc 1 1758 7 is_stmt 1 view .LVU767
 2444 005c 2B68     		ldr	r3, [r5]
 2445 005e 4FF48072 		mov	r2, #256
 2446 0062 9A60     		str	r2, [r3, #8]
1760:Drivers/STM32F1xx_HAL_Driver/Src/stm32f1xx_hal_can.c ****       {
 2447              		.loc 1 1760 7 view .LVU768
1760:Drivers/STM32F1xx_HAL_Driver/Src/stm32f1xx_hal_can.c ****       {
 2448              		.loc 1 1760 10 is_stmt 0 view .LVU769
 2449 0064 17F4007F 		tst	r7, #512
 2450 0068 40F08680 		bne	.L206
1773:Drivers/STM32F1xx_HAL_Driver/Src/stm32f1xx_hal_can.c ****         {
 2451              		.loc 1 1773 9 is_stmt 1 view .LVU770
1773:Drivers/STM32F1xx_HAL_Driver/Src/stm32f1xx_hal_can.c ****         {
 2452              		.loc 1 1773 12 is_stmt 0 view .LVU771
 2453 006c 17F4806F 		tst	r7, #1024
 2454 0070 00F08680 		beq	.L174
1776:Drivers/STM32F1xx_HAL_Driver/Src/stm32f1xx_hal_can.c ****         }
 2455              		.loc 1 1776 11 is_stmt 1 view .LVU772
1776:Drivers/STM32F1xx_HAL_Driver/Src/stm32f1xx_hal_can.c ****         }
 2456              		.loc 1 1776 21 is_stmt 0 view .LVU773
 2457 0074 46F40056 		orr	r6, r6, #8192
 2458              	.LVL188:
 2459              	.L172:
1798:Drivers/STM32F1xx_HAL_Driver/Src/stm32f1xx_hal_can.c ****     {
 2460              		.loc 1 1798 5 is_stmt 1 view .LVU774
1798:Drivers/STM32F1xx_HAL_Driver/Src/stm32f1xx_hal_can.c ****     {
 2461              		.loc 1 1798 8 is_stmt 0 view .LVU775
 2462 0078 17F4803F 		tst	r7, #65536
 2463 007c 0DD0     		beq	.L169
1801:Drivers/STM32F1xx_HAL_Driver/Src/stm32f1xx_hal_can.c **** 
 2464              		.loc 1 1801 7 is_stmt 1 view .LVU776
 2465 007e 2B68     		ldr	r3, [r5]
 2466 0080 4FF48032 		mov	r2, #65536
ARM GAS  C:\Users\Rick\AppData\Local\Temp\ccbuSalp.s 			page 108


 2467 0084 9A60     		str	r2, [r3, #8]
1803:Drivers/STM32F1xx_HAL_Driver/Src/stm32f1xx_hal_can.c ****       {
 2468              		.loc 1 1803 7 view .LVU777
1803:Drivers/STM32F1xx_HAL_Driver/Src/stm32f1xx_hal_can.c ****       {
 2469              		.loc 1 1803 10 is_stmt 0 view .LVU778
 2470 0086 17F4003F 		tst	r7, #131072
 2471 008a 40F08380 		bne	.L207
1816:Drivers/STM32F1xx_HAL_Driver/Src/stm32f1xx_hal_can.c ****         {
 2472              		.loc 1 1816 9 is_stmt 1 view .LVU779
1816:Drivers/STM32F1xx_HAL_Driver/Src/stm32f1xx_hal_can.c ****         {
 2473              		.loc 1 1816 12 is_stmt 0 view .LVU780
 2474 008e 17F4802F 		tst	r7, #262144
 2475 0092 00F08380 		beq	.L177
1819:Drivers/STM32F1xx_HAL_Driver/Src/stm32f1xx_hal_can.c ****         }
 2476              		.loc 1 1819 11 is_stmt 1 view .LVU781
1819:Drivers/STM32F1xx_HAL_Driver/Src/stm32f1xx_hal_can.c ****         }
 2477              		.loc 1 1819 21 is_stmt 0 view .LVU782
 2478 0096 46F40046 		orr	r6, r6, #32768
 2479              	.LVL189:
 2480              	.L169:
1842:Drivers/STM32F1xx_HAL_Driver/Src/stm32f1xx_hal_can.c ****   {
 2481              		.loc 1 1842 3 is_stmt 1 view .LVU783
1842:Drivers/STM32F1xx_HAL_Driver/Src/stm32f1xx_hal_can.c ****   {
 2482              		.loc 1 1842 6 is_stmt 0 view .LVU784
 2483 009a 14F0080F 		tst	r4, #8
 2484 009e 07D0     		beq	.L179
1844:Drivers/STM32F1xx_HAL_Driver/Src/stm32f1xx_hal_can.c ****     {
 2485              		.loc 1 1844 5 is_stmt 1 view .LVU785
1844:Drivers/STM32F1xx_HAL_Driver/Src/stm32f1xx_hal_can.c ****     {
 2486              		.loc 1 1844 8 is_stmt 0 view .LVU786
 2487 00a0 1BF0100F 		tst	fp, #16
 2488 00a4 04D0     		beq	.L179
1847:Drivers/STM32F1xx_HAL_Driver/Src/stm32f1xx_hal_can.c **** 
 2489              		.loc 1 1847 7 is_stmt 1 view .LVU787
1847:Drivers/STM32F1xx_HAL_Driver/Src/stm32f1xx_hal_can.c **** 
 2490              		.loc 1 1847 17 is_stmt 0 view .LVU788
 2491 00a6 46F40076 		orr	r6, r6, #512
 2492              	.LVL190:
1850:Drivers/STM32F1xx_HAL_Driver/Src/stm32f1xx_hal_can.c ****     }
 2493              		.loc 1 1850 7 is_stmt 1 view .LVU789
 2494 00aa 2B68     		ldr	r3, [r5]
 2495 00ac 1022     		movs	r2, #16
 2496 00ae DA60     		str	r2, [r3, #12]
 2497              	.L179:
1855:Drivers/STM32F1xx_HAL_Driver/Src/stm32f1xx_hal_can.c ****   {
 2498              		.loc 1 1855 3 view .LVU790
1855:Drivers/STM32F1xx_HAL_Driver/Src/stm32f1xx_hal_can.c ****   {
 2499              		.loc 1 1855 6 is_stmt 0 view .LVU791
 2500 00b0 14F0040F 		tst	r4, #4
 2501 00b4 02D0     		beq	.L180
1857:Drivers/STM32F1xx_HAL_Driver/Src/stm32f1xx_hal_can.c ****     {
 2502              		.loc 1 1857 5 is_stmt 1 view .LVU792
1857:Drivers/STM32F1xx_HAL_Driver/Src/stm32f1xx_hal_can.c ****     {
 2503              		.loc 1 1857 8 is_stmt 0 view .LVU793
 2504 00b6 1BF0080F 		tst	fp, #8
 2505 00ba 79D1     		bne	.L208
 2506              	.L180:
ARM GAS  C:\Users\Rick\AppData\Local\Temp\ccbuSalp.s 			page 109


1874:Drivers/STM32F1xx_HAL_Driver/Src/stm32f1xx_hal_can.c ****   {
 2507              		.loc 1 1874 3 is_stmt 1 view .LVU794
1874:Drivers/STM32F1xx_HAL_Driver/Src/stm32f1xx_hal_can.c ****   {
 2508              		.loc 1 1874 6 is_stmt 0 view .LVU795
 2509 00bc 14F0020F 		tst	r4, #2
 2510 00c0 04D0     		beq	.L181
1877:Drivers/STM32F1xx_HAL_Driver/Src/stm32f1xx_hal_can.c ****     {
 2511              		.loc 1 1877 5 is_stmt 1 view .LVU796
1877:Drivers/STM32F1xx_HAL_Driver/Src/stm32f1xx_hal_can.c ****     {
 2512              		.loc 1 1877 14 is_stmt 0 view .LVU797
 2513 00c2 2B68     		ldr	r3, [r5]
1877:Drivers/STM32F1xx_HAL_Driver/Src/stm32f1xx_hal_can.c ****     {
 2514              		.loc 1 1877 24 view .LVU798
 2515 00c4 DB68     		ldr	r3, [r3, #12]
1877:Drivers/STM32F1xx_HAL_Driver/Src/stm32f1xx_hal_can.c ****     {
 2516              		.loc 1 1877 8 view .LVU799
 2517 00c6 13F0030F 		tst	r3, #3
 2518 00ca 78D1     		bne	.L209
 2519              	.L181:
1891:Drivers/STM32F1xx_HAL_Driver/Src/stm32f1xx_hal_can.c ****   {
 2520              		.loc 1 1891 3 is_stmt 1 view .LVU800
1891:Drivers/STM32F1xx_HAL_Driver/Src/stm32f1xx_hal_can.c ****   {
 2521              		.loc 1 1891 6 is_stmt 0 view .LVU801
 2522 00cc 14F0400F 		tst	r4, #64
 2523 00d0 07D0     		beq	.L182
1893:Drivers/STM32F1xx_HAL_Driver/Src/stm32f1xx_hal_can.c ****     {
 2524              		.loc 1 1893 5 is_stmt 1 view .LVU802
1893:Drivers/STM32F1xx_HAL_Driver/Src/stm32f1xx_hal_can.c ****     {
 2525              		.loc 1 1893 8 is_stmt 0 view .LVU803
 2526 00d2 1AF0100F 		tst	r10, #16
 2527 00d6 04D0     		beq	.L182
1896:Drivers/STM32F1xx_HAL_Driver/Src/stm32f1xx_hal_can.c **** 
 2528              		.loc 1 1896 7 is_stmt 1 view .LVU804
1896:Drivers/STM32F1xx_HAL_Driver/Src/stm32f1xx_hal_can.c **** 
 2529              		.loc 1 1896 17 is_stmt 0 view .LVU805
 2530 00d8 46F48066 		orr	r6, r6, #1024
 2531              	.LVL191:
1899:Drivers/STM32F1xx_HAL_Driver/Src/stm32f1xx_hal_can.c ****     }
 2532              		.loc 1 1899 7 is_stmt 1 view .LVU806
 2533 00dc 2B68     		ldr	r3, [r5]
 2534 00de 1022     		movs	r2, #16
 2535 00e0 1A61     		str	r2, [r3, #16]
 2536              	.L182:
1904:Drivers/STM32F1xx_HAL_Driver/Src/stm32f1xx_hal_can.c ****   {
 2537              		.loc 1 1904 3 view .LVU807
1904:Drivers/STM32F1xx_HAL_Driver/Src/stm32f1xx_hal_can.c ****   {
 2538              		.loc 1 1904 6 is_stmt 0 view .LVU808
 2539 00e2 14F0200F 		tst	r4, #32
 2540 00e6 02D0     		beq	.L183
1906:Drivers/STM32F1xx_HAL_Driver/Src/stm32f1xx_hal_can.c ****     {
 2541              		.loc 1 1906 5 is_stmt 1 view .LVU809
1906:Drivers/STM32F1xx_HAL_Driver/Src/stm32f1xx_hal_can.c ****     {
 2542              		.loc 1 1906 8 is_stmt 0 view .LVU810
 2543 00e8 1AF0080F 		tst	r10, #8
 2544 00ec 6BD1     		bne	.L210
 2545              	.L183:
1923:Drivers/STM32F1xx_HAL_Driver/Src/stm32f1xx_hal_can.c ****   {
ARM GAS  C:\Users\Rick\AppData\Local\Temp\ccbuSalp.s 			page 110


 2546              		.loc 1 1923 3 is_stmt 1 view .LVU811
1923:Drivers/STM32F1xx_HAL_Driver/Src/stm32f1xx_hal_can.c ****   {
 2547              		.loc 1 1923 6 is_stmt 0 view .LVU812
 2548 00ee 14F0100F 		tst	r4, #16
 2549 00f2 04D0     		beq	.L184
1926:Drivers/STM32F1xx_HAL_Driver/Src/stm32f1xx_hal_can.c ****     {
 2550              		.loc 1 1926 5 is_stmt 1 view .LVU813
1926:Drivers/STM32F1xx_HAL_Driver/Src/stm32f1xx_hal_can.c ****     {
 2551              		.loc 1 1926 14 is_stmt 0 view .LVU814
 2552 00f4 2B68     		ldr	r3, [r5]
1926:Drivers/STM32F1xx_HAL_Driver/Src/stm32f1xx_hal_can.c ****     {
 2553              		.loc 1 1926 24 view .LVU815
 2554 00f6 1B69     		ldr	r3, [r3, #16]
1926:Drivers/STM32F1xx_HAL_Driver/Src/stm32f1xx_hal_can.c ****     {
 2555              		.loc 1 1926 8 view .LVU816
 2556 00f8 13F0030F 		tst	r3, #3
 2557 00fc 6AD1     		bne	.L211
 2558              	.L184:
1940:Drivers/STM32F1xx_HAL_Driver/Src/stm32f1xx_hal_can.c ****   {
 2559              		.loc 1 1940 3 is_stmt 1 view .LVU817
1940:Drivers/STM32F1xx_HAL_Driver/Src/stm32f1xx_hal_can.c ****   {
 2560              		.loc 1 1940 6 is_stmt 0 view .LVU818
 2561 00fe 14F4003F 		tst	r4, #131072
 2562 0102 02D0     		beq	.L185
1942:Drivers/STM32F1xx_HAL_Driver/Src/stm32f1xx_hal_can.c ****     {
 2563              		.loc 1 1942 5 is_stmt 1 view .LVU819
1942:Drivers/STM32F1xx_HAL_Driver/Src/stm32f1xx_hal_can.c ****     {
 2564              		.loc 1 1942 8 is_stmt 0 view .LVU820
 2565 0104 18F0100F 		tst	r8, #16
 2566 0108 68D1     		bne	.L212
 2567              	.L185:
1959:Drivers/STM32F1xx_HAL_Driver/Src/stm32f1xx_hal_can.c ****   {
 2568              		.loc 1 1959 3 is_stmt 1 view .LVU821
1959:Drivers/STM32F1xx_HAL_Driver/Src/stm32f1xx_hal_can.c ****   {
 2569              		.loc 1 1959 6 is_stmt 0 view .LVU822
 2570 010a 14F4803F 		tst	r4, #65536
 2571 010e 02D0     		beq	.L186
1961:Drivers/STM32F1xx_HAL_Driver/Src/stm32f1xx_hal_can.c ****     {
 2572              		.loc 1 1961 5 is_stmt 1 view .LVU823
1961:Drivers/STM32F1xx_HAL_Driver/Src/stm32f1xx_hal_can.c ****     {
 2573              		.loc 1 1961 8 is_stmt 0 view .LVU824
 2574 0110 18F0080F 		tst	r8, #8
 2575 0114 69D1     		bne	.L213
 2576              	.L186:
1978:Drivers/STM32F1xx_HAL_Driver/Src/stm32f1xx_hal_can.c ****   {
 2577              		.loc 1 1978 3 is_stmt 1 view .LVU825
1978:Drivers/STM32F1xx_HAL_Driver/Src/stm32f1xx_hal_can.c ****   {
 2578              		.loc 1 1978 6 is_stmt 0 view .LVU826
 2579 0116 14F4004F 		tst	r4, #32768
 2580 011a 7AD0     		beq	.L187
1980:Drivers/STM32F1xx_HAL_Driver/Src/stm32f1xx_hal_can.c ****     {
 2581              		.loc 1 1980 5 is_stmt 1 view .LVU827
1980:Drivers/STM32F1xx_HAL_Driver/Src/stm32f1xx_hal_can.c ****     {
 2582              		.loc 1 1980 8 is_stmt 0 view .LVU828
 2583 011c 18F0040F 		tst	r8, #4
 2584 0120 74D0     		beq	.L188
1983:Drivers/STM32F1xx_HAL_Driver/Src/stm32f1xx_hal_can.c ****           ((esrflags & CAN_ESR_EWGF) != 0U))
ARM GAS  C:\Users\Rick\AppData\Local\Temp\ccbuSalp.s 			page 111


 2585              		.loc 1 1983 7 is_stmt 1 view .LVU829
1983:Drivers/STM32F1xx_HAL_Driver/Src/stm32f1xx_hal_can.c ****           ((esrflags & CAN_ESR_EWGF) != 0U))
 2586              		.loc 1 1983 10 is_stmt 0 view .LVU830
 2587 0122 14F4807F 		tst	r4, #256
 2588 0126 04D0     		beq	.L189
1983:Drivers/STM32F1xx_HAL_Driver/Src/stm32f1xx_hal_can.c ****           ((esrflags & CAN_ESR_EWGF) != 0U))
 2589              		.loc 1 1983 55 discriminator 1 view .LVU831
 2590 0128 19F0010F 		tst	r9, #1
 2591 012c 01D0     		beq	.L189
1987:Drivers/STM32F1xx_HAL_Driver/Src/stm32f1xx_hal_can.c **** 
 2592              		.loc 1 1987 9 is_stmt 1 view .LVU832
1987:Drivers/STM32F1xx_HAL_Driver/Src/stm32f1xx_hal_can.c **** 
 2593              		.loc 1 1987 19 is_stmt 0 view .LVU833
 2594 012e 46F00106 		orr	r6, r6, #1
 2595              	.LVL192:
 2596              	.L189:
1993:Drivers/STM32F1xx_HAL_Driver/Src/stm32f1xx_hal_can.c ****           ((esrflags & CAN_ESR_EPVF) != 0U))
 2597              		.loc 1 1993 7 is_stmt 1 view .LVU834
1993:Drivers/STM32F1xx_HAL_Driver/Src/stm32f1xx_hal_can.c ****           ((esrflags & CAN_ESR_EPVF) != 0U))
 2598              		.loc 1 1993 10 is_stmt 0 view .LVU835
 2599 0132 14F4007F 		tst	r4, #512
 2600 0136 04D0     		beq	.L190
1993:Drivers/STM32F1xx_HAL_Driver/Src/stm32f1xx_hal_can.c ****           ((esrflags & CAN_ESR_EPVF) != 0U))
 2601              		.loc 1 1993 55 discriminator 1 view .LVU836
 2602 0138 19F0020F 		tst	r9, #2
 2603 013c 01D0     		beq	.L190
1997:Drivers/STM32F1xx_HAL_Driver/Src/stm32f1xx_hal_can.c **** 
 2604              		.loc 1 1997 9 is_stmt 1 view .LVU837
1997:Drivers/STM32F1xx_HAL_Driver/Src/stm32f1xx_hal_can.c **** 
 2605              		.loc 1 1997 19 is_stmt 0 view .LVU838
 2606 013e 46F00206 		orr	r6, r6, #2
 2607              	.LVL193:
 2608              	.L190:
2003:Drivers/STM32F1xx_HAL_Driver/Src/stm32f1xx_hal_can.c ****           ((esrflags & CAN_ESR_BOFF) != 0U))
 2609              		.loc 1 2003 7 is_stmt 1 view .LVU839
2003:Drivers/STM32F1xx_HAL_Driver/Src/stm32f1xx_hal_can.c ****           ((esrflags & CAN_ESR_BOFF) != 0U))
 2610              		.loc 1 2003 10 is_stmt 0 view .LVU840
 2611 0142 14F4806F 		tst	r4, #1024
 2612 0146 04D0     		beq	.L191
2003:Drivers/STM32F1xx_HAL_Driver/Src/stm32f1xx_hal_can.c ****           ((esrflags & CAN_ESR_BOFF) != 0U))
 2613              		.loc 1 2003 48 discriminator 1 view .LVU841
 2614 0148 19F0040F 		tst	r9, #4
 2615 014c 01D0     		beq	.L191
2007:Drivers/STM32F1xx_HAL_Driver/Src/stm32f1xx_hal_can.c **** 
 2616              		.loc 1 2007 9 is_stmt 1 view .LVU842
2007:Drivers/STM32F1xx_HAL_Driver/Src/stm32f1xx_hal_can.c **** 
 2617              		.loc 1 2007 19 is_stmt 0 view .LVU843
 2618 014e 46F00406 		orr	r6, r6, #4
 2619              	.LVL194:
 2620              	.L191:
2013:Drivers/STM32F1xx_HAL_Driver/Src/stm32f1xx_hal_can.c ****           ((esrflags & CAN_ESR_LEC) != 0U))
 2621              		.loc 1 2013 7 is_stmt 1 view .LVU844
2013:Drivers/STM32F1xx_HAL_Driver/Src/stm32f1xx_hal_can.c ****           ((esrflags & CAN_ESR_LEC) != 0U))
 2622              		.loc 1 2013 10 is_stmt 0 view .LVU845
 2623 0152 14F4006F 		tst	r4, #2048
 2624 0156 59D0     		beq	.L188
2013:Drivers/STM32F1xx_HAL_Driver/Src/stm32f1xx_hal_can.c ****           ((esrflags & CAN_ESR_LEC) != 0U))
ARM GAS  C:\Users\Rick\AppData\Local\Temp\ccbuSalp.s 			page 112


 2625              		.loc 1 2013 57 discriminator 1 view .LVU846
 2626 0158 19F07009 		ands	r9, r9, #112
 2627              	.LVL195:
2013:Drivers/STM32F1xx_HAL_Driver/Src/stm32f1xx_hal_can.c ****           ((esrflags & CAN_ESR_LEC) != 0U))
 2628              		.loc 1 2013 57 discriminator 1 view .LVU847
 2629 015c 56D0     		beq	.L188
2016:Drivers/STM32F1xx_HAL_Driver/Src/stm32f1xx_hal_can.c ****         {
 2630              		.loc 1 2016 9 is_stmt 1 view .LVU848
 2631 015e B9F1400F 		cmp	r9, #64
 2632 0162 65D0     		beq	.L192
 2633 0164 58D8     		bhi	.L193
 2634 0166 B9F1200F 		cmp	r9, #32
 2635 016a 5ED0     		beq	.L194
 2636 016c B9F1300F 		cmp	r9, #48
 2637 0170 42D1     		bne	.L214
2028:Drivers/STM32F1xx_HAL_Driver/Src/stm32f1xx_hal_can.c ****             break;
 2638              		.loc 1 2028 13 view .LVU849
2028:Drivers/STM32F1xx_HAL_Driver/Src/stm32f1xx_hal_can.c ****             break;
 2639              		.loc 1 2028 23 is_stmt 0 view .LVU850
 2640 0172 46F02006 		orr	r6, r6, #32
 2641              	.LVL196:
2029:Drivers/STM32F1xx_HAL_Driver/Src/stm32f1xx_hal_can.c ****           case (CAN_ESR_LEC_2):
 2642              		.loc 1 2029 13 is_stmt 1 view .LVU851
 2643 0176 44E0     		b	.L197
 2644              	.LVL197:
 2645              	.L206:
1768:Drivers/STM32F1xx_HAL_Driver/Src/stm32f1xx_hal_can.c **** #endif /* USE_HAL_CAN_REGISTER_CALLBACKS */
 2646              		.loc 1 1768 9 view .LVU852
 2647 0178 2846     		mov	r0, r5
 2648 017a FFF7FEFF 		bl	HAL_CAN_TxMailbox1CompleteCallback
 2649              	.LVL198:
 2650 017e 7BE7     		b	.L172
 2651              	.L174:
1778:Drivers/STM32F1xx_HAL_Driver/Src/stm32f1xx_hal_can.c ****         {
 2652              		.loc 1 1778 14 view .LVU853
1778:Drivers/STM32F1xx_HAL_Driver/Src/stm32f1xx_hal_can.c ****         {
 2653              		.loc 1 1778 17 is_stmt 0 view .LVU854
 2654 0180 17F4006F 		tst	r7, #2048
 2655 0184 02D0     		beq	.L175
1781:Drivers/STM32F1xx_HAL_Driver/Src/stm32f1xx_hal_can.c ****         }
 2656              		.loc 1 1781 11 is_stmt 1 view .LVU855
1781:Drivers/STM32F1xx_HAL_Driver/Src/stm32f1xx_hal_can.c ****         }
 2657              		.loc 1 1781 21 is_stmt 0 view .LVU856
 2658 0186 46F48046 		orr	r6, r6, #16384
 2659              	.LVL199:
1781:Drivers/STM32F1xx_HAL_Driver/Src/stm32f1xx_hal_can.c ****         }
 2660              		.loc 1 1781 21 view .LVU857
 2661 018a 75E7     		b	.L172
 2662              	.L175:
1791:Drivers/STM32F1xx_HAL_Driver/Src/stm32f1xx_hal_can.c **** #endif /* USE_HAL_CAN_REGISTER_CALLBACKS */
 2663              		.loc 1 1791 11 is_stmt 1 view .LVU858
 2664 018c 2846     		mov	r0, r5
 2665 018e FFF7FEFF 		bl	HAL_CAN_TxMailbox1AbortCallback
 2666              	.LVL200:
 2667 0192 71E7     		b	.L172
 2668              	.L207:
1811:Drivers/STM32F1xx_HAL_Driver/Src/stm32f1xx_hal_can.c **** #endif /* USE_HAL_CAN_REGISTER_CALLBACKS */
ARM GAS  C:\Users\Rick\AppData\Local\Temp\ccbuSalp.s 			page 113


 2669              		.loc 1 1811 9 view .LVU859
 2670 0194 2846     		mov	r0, r5
 2671 0196 FFF7FEFF 		bl	HAL_CAN_TxMailbox2CompleteCallback
 2672              	.LVL201:
 2673 019a 7EE7     		b	.L169
 2674              	.L177:
1821:Drivers/STM32F1xx_HAL_Driver/Src/stm32f1xx_hal_can.c ****         {
 2675              		.loc 1 1821 14 view .LVU860
1821:Drivers/STM32F1xx_HAL_Driver/Src/stm32f1xx_hal_can.c ****         {
 2676              		.loc 1 1821 17 is_stmt 0 view .LVU861
 2677 019c 17F4002F 		tst	r7, #524288
 2678 01a0 02D0     		beq	.L178
1824:Drivers/STM32F1xx_HAL_Driver/Src/stm32f1xx_hal_can.c ****         }
 2679              		.loc 1 1824 11 is_stmt 1 view .LVU862
1824:Drivers/STM32F1xx_HAL_Driver/Src/stm32f1xx_hal_can.c ****         }
 2680              		.loc 1 1824 21 is_stmt 0 view .LVU863
 2681 01a2 46F48036 		orr	r6, r6, #65536
 2682              	.LVL202:
1824:Drivers/STM32F1xx_HAL_Driver/Src/stm32f1xx_hal_can.c ****         }
 2683              		.loc 1 1824 21 view .LVU864
 2684 01a6 78E7     		b	.L169
 2685              	.L178:
1834:Drivers/STM32F1xx_HAL_Driver/Src/stm32f1xx_hal_can.c **** #endif /* USE_HAL_CAN_REGISTER_CALLBACKS */
 2686              		.loc 1 1834 11 is_stmt 1 view .LVU865
 2687 01a8 2846     		mov	r0, r5
 2688 01aa FFF7FEFF 		bl	HAL_CAN_TxMailbox2AbortCallback
 2689              	.LVL203:
 2690 01ae 74E7     		b	.L169
 2691              	.L208:
1860:Drivers/STM32F1xx_HAL_Driver/Src/stm32f1xx_hal_can.c **** 
 2692              		.loc 1 1860 7 view .LVU866
 2693 01b0 2B68     		ldr	r3, [r5]
 2694 01b2 0822     		movs	r2, #8
 2695 01b4 DA60     		str	r2, [r3, #12]
1868:Drivers/STM32F1xx_HAL_Driver/Src/stm32f1xx_hal_can.c **** #endif /* USE_HAL_CAN_REGISTER_CALLBACKS */
 2696              		.loc 1 1868 7 view .LVU867
 2697 01b6 2846     		mov	r0, r5
 2698 01b8 FFF7FEFF 		bl	HAL_CAN_RxFifo0FullCallback
 2699              	.LVL204:
 2700 01bc 7EE7     		b	.L180
 2701              	.L209:
1885:Drivers/STM32F1xx_HAL_Driver/Src/stm32f1xx_hal_can.c **** #endif /* USE_HAL_CAN_REGISTER_CALLBACKS */
 2702              		.loc 1 1885 7 view .LVU868
 2703 01be 2846     		mov	r0, r5
 2704 01c0 FFF7FEFF 		bl	HAL_CAN_RxFifo0MsgPendingCallback
 2705              	.LVL205:
 2706 01c4 82E7     		b	.L181
 2707              	.L210:
1909:Drivers/STM32F1xx_HAL_Driver/Src/stm32f1xx_hal_can.c **** 
 2708              		.loc 1 1909 7 view .LVU869
 2709 01c6 2B68     		ldr	r3, [r5]
 2710 01c8 0822     		movs	r2, #8
 2711 01ca 1A61     		str	r2, [r3, #16]
1917:Drivers/STM32F1xx_HAL_Driver/Src/stm32f1xx_hal_can.c **** #endif /* USE_HAL_CAN_REGISTER_CALLBACKS */
 2712              		.loc 1 1917 7 view .LVU870
 2713 01cc 2846     		mov	r0, r5
 2714 01ce FFF7FEFF 		bl	HAL_CAN_RxFifo1FullCallback
ARM GAS  C:\Users\Rick\AppData\Local\Temp\ccbuSalp.s 			page 114


 2715              	.LVL206:
 2716 01d2 8CE7     		b	.L183
 2717              	.L211:
1934:Drivers/STM32F1xx_HAL_Driver/Src/stm32f1xx_hal_can.c **** #endif /* USE_HAL_CAN_REGISTER_CALLBACKS */
 2718              		.loc 1 1934 7 view .LVU871
 2719 01d4 2846     		mov	r0, r5
 2720 01d6 FFF7FEFF 		bl	HAL_CAN_RxFifo1MsgPendingCallback
 2721              	.LVL207:
 2722 01da 90E7     		b	.L184
 2723              	.L212:
1945:Drivers/STM32F1xx_HAL_Driver/Src/stm32f1xx_hal_can.c **** 
 2724              		.loc 1 1945 7 view .LVU872
 2725 01dc 2B68     		ldr	r3, [r5]
 2726 01de 1022     		movs	r2, #16
 2727 01e0 5A60     		str	r2, [r3, #4]
1953:Drivers/STM32F1xx_HAL_Driver/Src/stm32f1xx_hal_can.c **** #endif /* USE_HAL_CAN_REGISTER_CALLBACKS */
 2728              		.loc 1 1953 7 view .LVU873
 2729 01e2 2846     		mov	r0, r5
 2730 01e4 FFF7FEFF 		bl	HAL_CAN_SleepCallback
 2731              	.LVL208:
 2732 01e8 8FE7     		b	.L185
 2733              	.L213:
1964:Drivers/STM32F1xx_HAL_Driver/Src/stm32f1xx_hal_can.c **** 
 2734              		.loc 1 1964 7 view .LVU874
 2735 01ea 2B68     		ldr	r3, [r5]
 2736 01ec 0822     		movs	r2, #8
 2737 01ee 5A60     		str	r2, [r3, #4]
1972:Drivers/STM32F1xx_HAL_Driver/Src/stm32f1xx_hal_can.c **** #endif /* USE_HAL_CAN_REGISTER_CALLBACKS */
 2738              		.loc 1 1972 7 view .LVU875
 2739 01f0 2846     		mov	r0, r5
 2740 01f2 FFF7FEFF 		bl	HAL_CAN_WakeUpFromRxMsgCallback
 2741              	.LVL209:
 2742 01f6 8EE7     		b	.L186
 2743              	.LVL210:
 2744              	.L214:
2016:Drivers/STM32F1xx_HAL_Driver/Src/stm32f1xx_hal_can.c ****         {
 2745              		.loc 1 2016 9 is_stmt 0 view .LVU876
 2746 01f8 B9F1100F 		cmp	r9, #16
 2747 01fc 01D1     		bne	.L197
2020:Drivers/STM32F1xx_HAL_Driver/Src/stm32f1xx_hal_can.c ****             break;
 2748              		.loc 1 2020 13 is_stmt 1 view .LVU877
2020:Drivers/STM32F1xx_HAL_Driver/Src/stm32f1xx_hal_can.c ****             break;
 2749              		.loc 1 2020 23 is_stmt 0 view .LVU878
 2750 01fe 46F00806 		orr	r6, r6, #8
 2751              	.LVL211:
2021:Drivers/STM32F1xx_HAL_Driver/Src/stm32f1xx_hal_can.c ****           case (CAN_ESR_LEC_1):
 2752              		.loc 1 2021 13 is_stmt 1 view .LVU879
 2753              	.L197:
2047:Drivers/STM32F1xx_HAL_Driver/Src/stm32f1xx_hal_can.c ****       }
 2754              		.loc 1 2047 9 view .LVU880
 2755 0202 2A68     		ldr	r2, [r5]
 2756 0204 9369     		ldr	r3, [r2, #24]
 2757 0206 23F07003 		bic	r3, r3, #112
 2758 020a 9361     		str	r3, [r2, #24]
 2759              	.L188:
2052:Drivers/STM32F1xx_HAL_Driver/Src/stm32f1xx_hal_can.c ****   }
 2760              		.loc 1 2052 5 view .LVU881
ARM GAS  C:\Users\Rick\AppData\Local\Temp\ccbuSalp.s 			page 115


 2761 020c 2B68     		ldr	r3, [r5]
 2762 020e 0422     		movs	r2, #4
 2763 0210 5A60     		str	r2, [r3, #4]
 2764              	.L187:
2056:Drivers/STM32F1xx_HAL_Driver/Src/stm32f1xx_hal_can.c ****   {
 2765              		.loc 1 2056 3 view .LVU882
2056:Drivers/STM32F1xx_HAL_Driver/Src/stm32f1xx_hal_can.c ****   {
 2766              		.loc 1 2056 6 is_stmt 0 view .LVU883
 2767 0212 9EB9     		cbnz	r6, .L215
 2768              	.LVL212:
 2769              	.L168:
2070:Drivers/STM32F1xx_HAL_Driver/Src/stm32f1xx_hal_can.c **** 
 2770              		.loc 1 2070 1 view .LVU884
 2771 0214 BDE8F88F 		pop	{r3, r4, r5, r6, r7, r8, r9, r10, fp, pc}
 2772              	.LVL213:
 2773              	.L193:
2016:Drivers/STM32F1xx_HAL_Driver/Src/stm32f1xx_hal_can.c ****         {
 2774              		.loc 1 2016 9 view .LVU885
 2775 0218 B9F1500F 		cmp	r9, #80
 2776 021c 0BD0     		beq	.L198
 2777 021e B9F1600F 		cmp	r9, #96
 2778 0222 EED1     		bne	.L197
2040:Drivers/STM32F1xx_HAL_Driver/Src/stm32f1xx_hal_can.c ****             break;
 2779              		.loc 1 2040 13 is_stmt 1 view .LVU886
2040:Drivers/STM32F1xx_HAL_Driver/Src/stm32f1xx_hal_can.c ****             break;
 2780              		.loc 1 2040 23 is_stmt 0 view .LVU887
 2781 0224 46F48076 		orr	r6, r6, #256
 2782              	.LVL214:
2041:Drivers/STM32F1xx_HAL_Driver/Src/stm32f1xx_hal_can.c ****           default:
 2783              		.loc 1 2041 13 is_stmt 1 view .LVU888
 2784 0228 EBE7     		b	.L197
 2785              	.L194:
2024:Drivers/STM32F1xx_HAL_Driver/Src/stm32f1xx_hal_can.c ****             break;
 2786              		.loc 1 2024 13 view .LVU889
2024:Drivers/STM32F1xx_HAL_Driver/Src/stm32f1xx_hal_can.c ****             break;
 2787              		.loc 1 2024 23 is_stmt 0 view .LVU890
 2788 022a 46F01006 		orr	r6, r6, #16
 2789              	.LVL215:
2025:Drivers/STM32F1xx_HAL_Driver/Src/stm32f1xx_hal_can.c ****           case (CAN_ESR_LEC_1 | CAN_ESR_LEC_0):
 2790              		.loc 1 2025 13 is_stmt 1 view .LVU891
 2791 022e E8E7     		b	.L197
 2792              	.L192:
2032:Drivers/STM32F1xx_HAL_Driver/Src/stm32f1xx_hal_can.c ****             break;
 2793              		.loc 1 2032 13 view .LVU892
2032:Drivers/STM32F1xx_HAL_Driver/Src/stm32f1xx_hal_can.c ****             break;
 2794              		.loc 1 2032 23 is_stmt 0 view .LVU893
 2795 0230 46F04006 		orr	r6, r6, #64
 2796              	.LVL216:
2033:Drivers/STM32F1xx_HAL_Driver/Src/stm32f1xx_hal_can.c ****           case (CAN_ESR_LEC_2 | CAN_ESR_LEC_0):
 2797              		.loc 1 2033 13 is_stmt 1 view .LVU894
 2798 0234 E5E7     		b	.L197
 2799              	.L198:
2036:Drivers/STM32F1xx_HAL_Driver/Src/stm32f1xx_hal_can.c ****             break;
 2800              		.loc 1 2036 13 view .LVU895
2036:Drivers/STM32F1xx_HAL_Driver/Src/stm32f1xx_hal_can.c ****             break;
 2801              		.loc 1 2036 23 is_stmt 0 view .LVU896
 2802 0236 46F08006 		orr	r6, r6, #128
ARM GAS  C:\Users\Rick\AppData\Local\Temp\ccbuSalp.s 			page 116


 2803              	.LVL217:
2037:Drivers/STM32F1xx_HAL_Driver/Src/stm32f1xx_hal_can.c ****           case (CAN_ESR_LEC_2 | CAN_ESR_LEC_1):
 2804              		.loc 1 2037 13 is_stmt 1 view .LVU897
 2805 023a E2E7     		b	.L197
 2806              	.L215:
2059:Drivers/STM32F1xx_HAL_Driver/Src/stm32f1xx_hal_can.c **** 
 2807              		.loc 1 2059 5 view .LVU898
2059:Drivers/STM32F1xx_HAL_Driver/Src/stm32f1xx_hal_can.c **** 
 2808              		.loc 1 2059 21 is_stmt 0 view .LVU899
 2809 023c 6B6A     		ldr	r3, [r5, #36]
 2810 023e 1E43     		orrs	r6, r6, r3
 2811              	.LVL218:
2059:Drivers/STM32F1xx_HAL_Driver/Src/stm32f1xx_hal_can.c **** 
 2812              		.loc 1 2059 21 view .LVU900
 2813 0240 6E62     		str	r6, [r5, #36]
2067:Drivers/STM32F1xx_HAL_Driver/Src/stm32f1xx_hal_can.c **** #endif /* USE_HAL_CAN_REGISTER_CALLBACKS */
 2814              		.loc 1 2067 5 is_stmt 1 view .LVU901
 2815 0242 2846     		mov	r0, r5
 2816 0244 FFF7FEFF 		bl	HAL_CAN_ErrorCallback
 2817              	.LVL219:
2070:Drivers/STM32F1xx_HAL_Driver/Src/stm32f1xx_hal_can.c **** 
 2818              		.loc 1 2070 1 is_stmt 0 view .LVU902
 2819 0248 E4E7     		b	.L168
 2820              		.cfi_endproc
 2821              	.LFE84:
 2823              		.section	.text.HAL_CAN_GetState,"ax",%progbits
 2824              		.align	1
 2825              		.global	HAL_CAN_GetState
 2826              		.syntax unified
 2827              		.thumb
 2828              		.thumb_func
 2830              	HAL_CAN_GetState:
 2831              	.LVL220:
 2832              	.LFB98:
2321:Drivers/STM32F1xx_HAL_Driver/Src/stm32f1xx_hal_can.c **** 
2322:Drivers/STM32F1xx_HAL_Driver/Src/stm32f1xx_hal_can.c **** /**
2323:Drivers/STM32F1xx_HAL_Driver/Src/stm32f1xx_hal_can.c ****   * @}
2324:Drivers/STM32F1xx_HAL_Driver/Src/stm32f1xx_hal_can.c ****   */
2325:Drivers/STM32F1xx_HAL_Driver/Src/stm32f1xx_hal_can.c **** 
2326:Drivers/STM32F1xx_HAL_Driver/Src/stm32f1xx_hal_can.c **** /** @defgroup CAN_Exported_Functions_Group6 Peripheral State and Error functions
2327:Drivers/STM32F1xx_HAL_Driver/Src/stm32f1xx_hal_can.c ****  *  @brief   CAN Peripheral State functions
2328:Drivers/STM32F1xx_HAL_Driver/Src/stm32f1xx_hal_can.c ****  *
2329:Drivers/STM32F1xx_HAL_Driver/Src/stm32f1xx_hal_can.c **** @verbatim
2330:Drivers/STM32F1xx_HAL_Driver/Src/stm32f1xx_hal_can.c ****   ==============================================================================
2331:Drivers/STM32F1xx_HAL_Driver/Src/stm32f1xx_hal_can.c ****             ##### Peripheral State and Error functions #####
2332:Drivers/STM32F1xx_HAL_Driver/Src/stm32f1xx_hal_can.c ****   ==============================================================================
2333:Drivers/STM32F1xx_HAL_Driver/Src/stm32f1xx_hal_can.c ****     [..]
2334:Drivers/STM32F1xx_HAL_Driver/Src/stm32f1xx_hal_can.c ****     This subsection provides functions allowing to :
2335:Drivers/STM32F1xx_HAL_Driver/Src/stm32f1xx_hal_can.c ****       (+) HAL_CAN_GetState()  : Return the CAN state.
2336:Drivers/STM32F1xx_HAL_Driver/Src/stm32f1xx_hal_can.c ****       (+) HAL_CAN_GetError()  : Return the CAN error codes if any.
2337:Drivers/STM32F1xx_HAL_Driver/Src/stm32f1xx_hal_can.c ****       (+) HAL_CAN_ResetError(): Reset the CAN error codes if any.
2338:Drivers/STM32F1xx_HAL_Driver/Src/stm32f1xx_hal_can.c **** 
2339:Drivers/STM32F1xx_HAL_Driver/Src/stm32f1xx_hal_can.c **** @endverbatim
2340:Drivers/STM32F1xx_HAL_Driver/Src/stm32f1xx_hal_can.c ****   * @{
2341:Drivers/STM32F1xx_HAL_Driver/Src/stm32f1xx_hal_can.c ****   */
2342:Drivers/STM32F1xx_HAL_Driver/Src/stm32f1xx_hal_can.c **** 
2343:Drivers/STM32F1xx_HAL_Driver/Src/stm32f1xx_hal_can.c **** /**
ARM GAS  C:\Users\Rick\AppData\Local\Temp\ccbuSalp.s 			page 117


2344:Drivers/STM32F1xx_HAL_Driver/Src/stm32f1xx_hal_can.c ****   * @brief  Return the CAN state.
2345:Drivers/STM32F1xx_HAL_Driver/Src/stm32f1xx_hal_can.c ****   * @param  hcan pointer to a CAN_HandleTypeDef structure that contains
2346:Drivers/STM32F1xx_HAL_Driver/Src/stm32f1xx_hal_can.c ****   *         the configuration information for the specified CAN.
2347:Drivers/STM32F1xx_HAL_Driver/Src/stm32f1xx_hal_can.c ****   * @retval HAL state
2348:Drivers/STM32F1xx_HAL_Driver/Src/stm32f1xx_hal_can.c ****   */
2349:Drivers/STM32F1xx_HAL_Driver/Src/stm32f1xx_hal_can.c **** HAL_CAN_StateTypeDef HAL_CAN_GetState(const CAN_HandleTypeDef *hcan)
2350:Drivers/STM32F1xx_HAL_Driver/Src/stm32f1xx_hal_can.c **** {
 2833              		.loc 1 2350 1 is_stmt 1 view -0
 2834              		.cfi_startproc
 2835              		@ args = 0, pretend = 0, frame = 0
 2836              		@ frame_needed = 0, uses_anonymous_args = 0
 2837              		@ link register save eliminated.
 2838              		.loc 1 2350 1 is_stmt 0 view .LVU904
 2839 0000 0246     		mov	r2, r0
2351:Drivers/STM32F1xx_HAL_Driver/Src/stm32f1xx_hal_can.c ****   HAL_CAN_StateTypeDef state = hcan->State;
 2840              		.loc 1 2351 3 is_stmt 1 view .LVU905
 2841              		.loc 1 2351 24 is_stmt 0 view .LVU906
 2842 0002 90F82030 		ldrb	r3, [r0, #32]	@ zero_extendqisi2
 2843 0006 D8B2     		uxtb	r0, r3
 2844              	.LVL221:
2352:Drivers/STM32F1xx_HAL_Driver/Src/stm32f1xx_hal_can.c **** 
2353:Drivers/STM32F1xx_HAL_Driver/Src/stm32f1xx_hal_can.c ****   if ((state == HAL_CAN_STATE_READY) ||
 2845              		.loc 1 2353 3 is_stmt 1 view .LVU907
 2846              		.loc 1 2353 38 is_stmt 0 view .LVU908
 2847 0008 013B     		subs	r3, r3, #1
 2848 000a DBB2     		uxtb	r3, r3
 2849              		.loc 1 2353 6 view .LVU909
 2850 000c 012B     		cmp	r3, #1
 2851 000e 00D9     		bls	.L220
 2852              	.LVL222:
 2853              	.L217:
2354:Drivers/STM32F1xx_HAL_Driver/Src/stm32f1xx_hal_can.c ****       (state == HAL_CAN_STATE_LISTENING))
2355:Drivers/STM32F1xx_HAL_Driver/Src/stm32f1xx_hal_can.c ****   {
2356:Drivers/STM32F1xx_HAL_Driver/Src/stm32f1xx_hal_can.c ****     /* Check sleep mode acknowledge flag */
2357:Drivers/STM32F1xx_HAL_Driver/Src/stm32f1xx_hal_can.c ****     if ((hcan->Instance->MSR & CAN_MSR_SLAK) != 0U)
2358:Drivers/STM32F1xx_HAL_Driver/Src/stm32f1xx_hal_can.c ****     {
2359:Drivers/STM32F1xx_HAL_Driver/Src/stm32f1xx_hal_can.c ****       /* Sleep mode is active */
2360:Drivers/STM32F1xx_HAL_Driver/Src/stm32f1xx_hal_can.c ****       state = HAL_CAN_STATE_SLEEP_ACTIVE;
2361:Drivers/STM32F1xx_HAL_Driver/Src/stm32f1xx_hal_can.c ****     }
2362:Drivers/STM32F1xx_HAL_Driver/Src/stm32f1xx_hal_can.c ****     /* Check sleep mode request flag */
2363:Drivers/STM32F1xx_HAL_Driver/Src/stm32f1xx_hal_can.c ****     else if ((hcan->Instance->MCR & CAN_MCR_SLEEP) != 0U)
2364:Drivers/STM32F1xx_HAL_Driver/Src/stm32f1xx_hal_can.c ****     {
2365:Drivers/STM32F1xx_HAL_Driver/Src/stm32f1xx_hal_can.c ****       /* Sleep mode request is pending */
2366:Drivers/STM32F1xx_HAL_Driver/Src/stm32f1xx_hal_can.c ****       state = HAL_CAN_STATE_SLEEP_PENDING;
2367:Drivers/STM32F1xx_HAL_Driver/Src/stm32f1xx_hal_can.c ****     }
2368:Drivers/STM32F1xx_HAL_Driver/Src/stm32f1xx_hal_can.c ****     else
2369:Drivers/STM32F1xx_HAL_Driver/Src/stm32f1xx_hal_can.c ****     {
2370:Drivers/STM32F1xx_HAL_Driver/Src/stm32f1xx_hal_can.c ****       /* Neither sleep mode request nor sleep mode acknowledge */
2371:Drivers/STM32F1xx_HAL_Driver/Src/stm32f1xx_hal_can.c ****     }
 2854              		.loc 1 2371 5 is_stmt 1 view .LVU910
2372:Drivers/STM32F1xx_HAL_Driver/Src/stm32f1xx_hal_can.c ****   }
2373:Drivers/STM32F1xx_HAL_Driver/Src/stm32f1xx_hal_can.c **** 
2374:Drivers/STM32F1xx_HAL_Driver/Src/stm32f1xx_hal_can.c ****   /* Return CAN state */
2375:Drivers/STM32F1xx_HAL_Driver/Src/stm32f1xx_hal_can.c ****   return state;
 2855              		.loc 1 2375 3 view .LVU911
2376:Drivers/STM32F1xx_HAL_Driver/Src/stm32f1xx_hal_can.c **** }
 2856              		.loc 1 2376 1 is_stmt 0 view .LVU912
ARM GAS  C:\Users\Rick\AppData\Local\Temp\ccbuSalp.s 			page 118


 2857 0010 7047     		bx	lr
 2858              	.LVL223:
 2859              	.L220:
2357:Drivers/STM32F1xx_HAL_Driver/Src/stm32f1xx_hal_can.c ****     {
 2860              		.loc 1 2357 5 is_stmt 1 view .LVU913
2357:Drivers/STM32F1xx_HAL_Driver/Src/stm32f1xx_hal_can.c ****     {
 2861              		.loc 1 2357 14 is_stmt 0 view .LVU914
 2862 0012 1368     		ldr	r3, [r2]
2357:Drivers/STM32F1xx_HAL_Driver/Src/stm32f1xx_hal_can.c ****     {
 2863              		.loc 1 2357 24 view .LVU915
 2864 0014 5A68     		ldr	r2, [r3, #4]
 2865              	.LVL224:
2357:Drivers/STM32F1xx_HAL_Driver/Src/stm32f1xx_hal_can.c ****     {
 2866              		.loc 1 2357 8 view .LVU916
 2867 0016 12F0020F 		tst	r2, #2
 2868 001a 05D1     		bne	.L218
2363:Drivers/STM32F1xx_HAL_Driver/Src/stm32f1xx_hal_can.c ****     {
 2869              		.loc 1 2363 10 is_stmt 1 view .LVU917
2363:Drivers/STM32F1xx_HAL_Driver/Src/stm32f1xx_hal_can.c ****     {
 2870              		.loc 1 2363 29 is_stmt 0 view .LVU918
 2871 001c 1B68     		ldr	r3, [r3]
2363:Drivers/STM32F1xx_HAL_Driver/Src/stm32f1xx_hal_can.c ****     {
 2872              		.loc 1 2363 13 view .LVU919
 2873 001e 13F0020F 		tst	r3, #2
 2874 0022 F5D0     		beq	.L217
2366:Drivers/STM32F1xx_HAL_Driver/Src/stm32f1xx_hal_can.c ****     }
 2875              		.loc 1 2366 13 view .LVU920
 2876 0024 0320     		movs	r0, #3
 2877              	.LVL225:
2366:Drivers/STM32F1xx_HAL_Driver/Src/stm32f1xx_hal_can.c ****     }
 2878              		.loc 1 2366 13 view .LVU921
 2879 0026 F3E7     		b	.L217
 2880              	.LVL226:
 2881              	.L218:
2360:Drivers/STM32F1xx_HAL_Driver/Src/stm32f1xx_hal_can.c ****     }
 2882              		.loc 1 2360 13 view .LVU922
 2883 0028 0420     		movs	r0, #4
 2884              	.LVL227:
2360:Drivers/STM32F1xx_HAL_Driver/Src/stm32f1xx_hal_can.c ****     }
 2885              		.loc 1 2360 13 view .LVU923
 2886 002a 7047     		bx	lr
 2887              		.cfi_endproc
 2888              	.LFE98:
 2890              		.section	.text.HAL_CAN_GetError,"ax",%progbits
 2891              		.align	1
 2892              		.global	HAL_CAN_GetError
 2893              		.syntax unified
 2894              		.thumb
 2895              		.thumb_func
 2897              	HAL_CAN_GetError:
 2898              	.LVL228:
 2899              	.LFB99:
2377:Drivers/STM32F1xx_HAL_Driver/Src/stm32f1xx_hal_can.c **** 
2378:Drivers/STM32F1xx_HAL_Driver/Src/stm32f1xx_hal_can.c **** /**
2379:Drivers/STM32F1xx_HAL_Driver/Src/stm32f1xx_hal_can.c ****   * @brief  Return the CAN error code.
2380:Drivers/STM32F1xx_HAL_Driver/Src/stm32f1xx_hal_can.c ****   * @param  hcan pointer to a CAN_HandleTypeDef structure that contains
2381:Drivers/STM32F1xx_HAL_Driver/Src/stm32f1xx_hal_can.c ****   *         the configuration information for the specified CAN.
ARM GAS  C:\Users\Rick\AppData\Local\Temp\ccbuSalp.s 			page 119


2382:Drivers/STM32F1xx_HAL_Driver/Src/stm32f1xx_hal_can.c ****   * @retval CAN Error Code
2383:Drivers/STM32F1xx_HAL_Driver/Src/stm32f1xx_hal_can.c ****   */
2384:Drivers/STM32F1xx_HAL_Driver/Src/stm32f1xx_hal_can.c **** uint32_t HAL_CAN_GetError(const CAN_HandleTypeDef *hcan)
2385:Drivers/STM32F1xx_HAL_Driver/Src/stm32f1xx_hal_can.c **** {
 2900              		.loc 1 2385 1 is_stmt 1 view -0
 2901              		.cfi_startproc
 2902              		@ args = 0, pretend = 0, frame = 0
 2903              		@ frame_needed = 0, uses_anonymous_args = 0
 2904              		@ link register save eliminated.
2386:Drivers/STM32F1xx_HAL_Driver/Src/stm32f1xx_hal_can.c ****   /* Return CAN error code */
2387:Drivers/STM32F1xx_HAL_Driver/Src/stm32f1xx_hal_can.c ****   return hcan->ErrorCode;
 2905              		.loc 1 2387 3 view .LVU925
 2906              		.loc 1 2387 14 is_stmt 0 view .LVU926
 2907 0000 406A     		ldr	r0, [r0, #36]
 2908              	.LVL229:
2388:Drivers/STM32F1xx_HAL_Driver/Src/stm32f1xx_hal_can.c **** }
 2909              		.loc 1 2388 1 view .LVU927
 2910 0002 7047     		bx	lr
 2911              		.cfi_endproc
 2912              	.LFE99:
 2914              		.section	.text.HAL_CAN_ResetError,"ax",%progbits
 2915              		.align	1
 2916              		.global	HAL_CAN_ResetError
 2917              		.syntax unified
 2918              		.thumb
 2919              		.thumb_func
 2921              	HAL_CAN_ResetError:
 2922              	.LVL230:
 2923              	.LFB100:
2389:Drivers/STM32F1xx_HAL_Driver/Src/stm32f1xx_hal_can.c **** 
2390:Drivers/STM32F1xx_HAL_Driver/Src/stm32f1xx_hal_can.c **** /**
2391:Drivers/STM32F1xx_HAL_Driver/Src/stm32f1xx_hal_can.c ****   * @brief  Reset the CAN error code.
2392:Drivers/STM32F1xx_HAL_Driver/Src/stm32f1xx_hal_can.c ****   * @param  hcan pointer to a CAN_HandleTypeDef structure that contains
2393:Drivers/STM32F1xx_HAL_Driver/Src/stm32f1xx_hal_can.c ****   *         the configuration information for the specified CAN.
2394:Drivers/STM32F1xx_HAL_Driver/Src/stm32f1xx_hal_can.c ****   * @retval HAL status
2395:Drivers/STM32F1xx_HAL_Driver/Src/stm32f1xx_hal_can.c ****   */
2396:Drivers/STM32F1xx_HAL_Driver/Src/stm32f1xx_hal_can.c **** HAL_StatusTypeDef HAL_CAN_ResetError(CAN_HandleTypeDef *hcan)
2397:Drivers/STM32F1xx_HAL_Driver/Src/stm32f1xx_hal_can.c **** {
 2924              		.loc 1 2397 1 is_stmt 1 view -0
 2925              		.cfi_startproc
 2926              		@ args = 0, pretend = 0, frame = 0
 2927              		@ frame_needed = 0, uses_anonymous_args = 0
 2928              		@ link register save eliminated.
2398:Drivers/STM32F1xx_HAL_Driver/Src/stm32f1xx_hal_can.c ****   HAL_StatusTypeDef status = HAL_OK;
 2929              		.loc 1 2398 3 view .LVU929
2399:Drivers/STM32F1xx_HAL_Driver/Src/stm32f1xx_hal_can.c ****   HAL_CAN_StateTypeDef state = hcan->State;
 2930              		.loc 1 2399 3 view .LVU930
 2931              		.loc 1 2399 24 is_stmt 0 view .LVU931
 2932 0000 90F82030 		ldrb	r3, [r0, #32]	@ zero_extendqisi2
 2933              	.LVL231:
2400:Drivers/STM32F1xx_HAL_Driver/Src/stm32f1xx_hal_can.c **** 
2401:Drivers/STM32F1xx_HAL_Driver/Src/stm32f1xx_hal_can.c ****   if ((state == HAL_CAN_STATE_READY) ||
 2934              		.loc 1 2401 3 is_stmt 1 view .LVU932
 2935              		.loc 1 2401 38 is_stmt 0 view .LVU933
 2936 0004 013B     		subs	r3, r3, #1
 2937              	.LVL232:
 2938              		.loc 1 2401 38 view .LVU934
ARM GAS  C:\Users\Rick\AppData\Local\Temp\ccbuSalp.s 			page 120


 2939 0006 DBB2     		uxtb	r3, r3
 2940              		.loc 1 2401 6 view .LVU935
 2941 0008 012B     		cmp	r3, #1
 2942 000a 05D9     		bls	.L225
2402:Drivers/STM32F1xx_HAL_Driver/Src/stm32f1xx_hal_can.c ****       (state == HAL_CAN_STATE_LISTENING))
2403:Drivers/STM32F1xx_HAL_Driver/Src/stm32f1xx_hal_can.c ****   {
2404:Drivers/STM32F1xx_HAL_Driver/Src/stm32f1xx_hal_can.c ****     /* Reset CAN error code */
2405:Drivers/STM32F1xx_HAL_Driver/Src/stm32f1xx_hal_can.c ****     hcan->ErrorCode = 0U;
2406:Drivers/STM32F1xx_HAL_Driver/Src/stm32f1xx_hal_can.c ****   }
2407:Drivers/STM32F1xx_HAL_Driver/Src/stm32f1xx_hal_can.c ****   else
2408:Drivers/STM32F1xx_HAL_Driver/Src/stm32f1xx_hal_can.c ****   {
2409:Drivers/STM32F1xx_HAL_Driver/Src/stm32f1xx_hal_can.c ****     /* Update error code */
2410:Drivers/STM32F1xx_HAL_Driver/Src/stm32f1xx_hal_can.c ****     hcan->ErrorCode |= HAL_CAN_ERROR_NOT_INITIALIZED;
 2943              		.loc 1 2410 5 is_stmt 1 view .LVU936
 2944              		.loc 1 2410 21 is_stmt 0 view .LVU937
 2945 000c 436A     		ldr	r3, [r0, #36]
 2946 000e 43F48023 		orr	r3, r3, #262144
 2947 0012 4362     		str	r3, [r0, #36]
2411:Drivers/STM32F1xx_HAL_Driver/Src/stm32f1xx_hal_can.c **** 
2412:Drivers/STM32F1xx_HAL_Driver/Src/stm32f1xx_hal_can.c ****     status = HAL_ERROR;
 2948              		.loc 1 2412 5 is_stmt 1 view .LVU938
 2949              	.LVL233:
 2950              		.loc 1 2412 12 is_stmt 0 view .LVU939
 2951 0014 0120     		movs	r0, #1
 2952              	.LVL234:
2413:Drivers/STM32F1xx_HAL_Driver/Src/stm32f1xx_hal_can.c ****   }
2414:Drivers/STM32F1xx_HAL_Driver/Src/stm32f1xx_hal_can.c **** 
2415:Drivers/STM32F1xx_HAL_Driver/Src/stm32f1xx_hal_can.c ****   /* Return the status */
2416:Drivers/STM32F1xx_HAL_Driver/Src/stm32f1xx_hal_can.c ****   return status;
 2953              		.loc 1 2416 3 is_stmt 1 view .LVU940
2417:Drivers/STM32F1xx_HAL_Driver/Src/stm32f1xx_hal_can.c **** }
 2954              		.loc 1 2417 1 is_stmt 0 view .LVU941
 2955 0016 7047     		bx	lr
 2956              	.LVL235:
 2957              	.L225:
2405:Drivers/STM32F1xx_HAL_Driver/Src/stm32f1xx_hal_can.c ****   }
 2958              		.loc 1 2405 5 is_stmt 1 view .LVU942
2405:Drivers/STM32F1xx_HAL_Driver/Src/stm32f1xx_hal_can.c ****   }
 2959              		.loc 1 2405 21 is_stmt 0 view .LVU943
 2960 0018 0023     		movs	r3, #0
 2961 001a 4362     		str	r3, [r0, #36]
2398:Drivers/STM32F1xx_HAL_Driver/Src/stm32f1xx_hal_can.c ****   HAL_CAN_StateTypeDef state = hcan->State;
 2962              		.loc 1 2398 21 view .LVU944
 2963 001c 1846     		mov	r0, r3
 2964              	.LVL236:
2398:Drivers/STM32F1xx_HAL_Driver/Src/stm32f1xx_hal_can.c ****   HAL_CAN_StateTypeDef state = hcan->State;
 2965              		.loc 1 2398 21 view .LVU945
 2966 001e 7047     		bx	lr
 2967              		.cfi_endproc
 2968              	.LFE100:
 2970              		.text
 2971              	.Letext0:
 2972              		.file 3 "c:\\develop\\gnu arm embedded toolchain\\10 2021.10\\arm-none-eabi\\include\\machine\\_de
 2973              		.file 4 "c:\\develop\\gnu arm embedded toolchain\\10 2021.10\\arm-none-eabi\\include\\sys\\_stdint
 2974              		.file 5 "Drivers/CMSIS/Device/ST/STM32F1xx/Include/stm32f103xb.h"
 2975              		.file 6 "Drivers/CMSIS/Device/ST/STM32F1xx/Include/stm32f1xx.h"
 2976              		.file 7 "Drivers/STM32F1xx_HAL_Driver/Inc/stm32f1xx_hal_def.h"
ARM GAS  C:\Users\Rick\AppData\Local\Temp\ccbuSalp.s 			page 121


 2977              		.file 8 "Drivers/STM32F1xx_HAL_Driver/Inc/stm32f1xx_hal_can.h"
 2978              		.file 9 "Drivers/STM32F1xx_HAL_Driver/Inc/stm32f1xx_hal.h"
ARM GAS  C:\Users\Rick\AppData\Local\Temp\ccbuSalp.s 			page 122


DEFINED SYMBOLS
                            *ABS*:00000000 stm32f1xx_hal_can.c
C:\Users\Rick\AppData\Local\Temp\ccbuSalp.s:18     .text.HAL_CAN_MspInit:00000000 $t
C:\Users\Rick\AppData\Local\Temp\ccbuSalp.s:24     .text.HAL_CAN_MspInit:00000000 HAL_CAN_MspInit
C:\Users\Rick\AppData\Local\Temp\ccbuSalp.s:40     .text.HAL_CAN_Init:00000000 $t
C:\Users\Rick\AppData\Local\Temp\ccbuSalp.s:46     .text.HAL_CAN_Init:00000000 HAL_CAN_Init
C:\Users\Rick\AppData\Local\Temp\ccbuSalp.s:336    .text.HAL_CAN_MspDeInit:00000000 $t
C:\Users\Rick\AppData\Local\Temp\ccbuSalp.s:342    .text.HAL_CAN_MspDeInit:00000000 HAL_CAN_MspDeInit
C:\Users\Rick\AppData\Local\Temp\ccbuSalp.s:357    .text.HAL_CAN_ConfigFilter:00000000 $t
C:\Users\Rick\AppData\Local\Temp\ccbuSalp.s:363    .text.HAL_CAN_ConfigFilter:00000000 HAL_CAN_ConfigFilter
C:\Users\Rick\AppData\Local\Temp\ccbuSalp.s:569    .text.HAL_CAN_Start:00000000 $t
C:\Users\Rick\AppData\Local\Temp\ccbuSalp.s:575    .text.HAL_CAN_Start:00000000 HAL_CAN_Start
C:\Users\Rick\AppData\Local\Temp\ccbuSalp.s:673    .text.HAL_CAN_Stop:00000000 $t
C:\Users\Rick\AppData\Local\Temp\ccbuSalp.s:679    .text.HAL_CAN_Stop:00000000 HAL_CAN_Stop
C:\Users\Rick\AppData\Local\Temp\ccbuSalp.s:778    .text.HAL_CAN_DeInit:00000000 $t
C:\Users\Rick\AppData\Local\Temp\ccbuSalp.s:784    .text.HAL_CAN_DeInit:00000000 HAL_CAN_DeInit
C:\Users\Rick\AppData\Local\Temp\ccbuSalp.s:840    .text.HAL_CAN_RequestSleep:00000000 $t
C:\Users\Rick\AppData\Local\Temp\ccbuSalp.s:846    .text.HAL_CAN_RequestSleep:00000000 HAL_CAN_RequestSleep
C:\Users\Rick\AppData\Local\Temp\ccbuSalp.s:895    .text.HAL_CAN_WakeUp:00000000 $t
C:\Users\Rick\AppData\Local\Temp\ccbuSalp.s:901    .text.HAL_CAN_WakeUp:00000000 HAL_CAN_WakeUp
C:\Users\Rick\AppData\Local\Temp\ccbuSalp.s:998    .text.HAL_CAN_WakeUp:00000054 $d
C:\Users\Rick\AppData\Local\Temp\ccbuSalp.s:1003   .text.HAL_CAN_IsSleepActive:00000000 $t
C:\Users\Rick\AppData\Local\Temp\ccbuSalp.s:1009   .text.HAL_CAN_IsSleepActive:00000000 HAL_CAN_IsSleepActive
C:\Users\Rick\AppData\Local\Temp\ccbuSalp.s:1059   .text.HAL_CAN_AddTxMessage:00000000 $t
C:\Users\Rick\AppData\Local\Temp\ccbuSalp.s:1065   .text.HAL_CAN_AddTxMessage:00000000 HAL_CAN_AddTxMessage
C:\Users\Rick\AppData\Local\Temp\ccbuSalp.s:1261   .text.HAL_CAN_AbortTxRequest:00000000 $t
C:\Users\Rick\AppData\Local\Temp\ccbuSalp.s:1267   .text.HAL_CAN_AbortTxRequest:00000000 HAL_CAN_AbortTxRequest
C:\Users\Rick\AppData\Local\Temp\ccbuSalp.s:1342   .text.HAL_CAN_GetTxMailboxesFreeLevel:00000000 $t
C:\Users\Rick\AppData\Local\Temp\ccbuSalp.s:1348   .text.HAL_CAN_GetTxMailboxesFreeLevel:00000000 HAL_CAN_GetTxMailboxesFreeLevel
C:\Users\Rick\AppData\Local\Temp\ccbuSalp.s:1419   .text.HAL_CAN_IsTxMessagePending:00000000 $t
C:\Users\Rick\AppData\Local\Temp\ccbuSalp.s:1425   .text.HAL_CAN_IsTxMessagePending:00000000 HAL_CAN_IsTxMessagePending
C:\Users\Rick\AppData\Local\Temp\ccbuSalp.s:1482   .text.HAL_CAN_GetTxTimestamp:00000000 $t
C:\Users\Rick\AppData\Local\Temp\ccbuSalp.s:1488   .text.HAL_CAN_GetTxTimestamp:00000000 HAL_CAN_GetTxTimestamp
C:\Users\Rick\AppData\Local\Temp\ccbuSalp.s:1563   .text.HAL_CAN_GetRxMessage:00000000 $t
C:\Users\Rick\AppData\Local\Temp\ccbuSalp.s:1569   .text.HAL_CAN_GetRxMessage:00000000 HAL_CAN_GetRxMessage
C:\Users\Rick\AppData\Local\Temp\ccbuSalp.s:1880   .text.HAL_CAN_GetRxFifoFillLevel:00000000 $t
C:\Users\Rick\AppData\Local\Temp\ccbuSalp.s:1886   .text.HAL_CAN_GetRxFifoFillLevel:00000000 HAL_CAN_GetRxFifoFillLevel
C:\Users\Rick\AppData\Local\Temp\ccbuSalp.s:1948   .text.HAL_CAN_ActivateNotification:00000000 $t
C:\Users\Rick\AppData\Local\Temp\ccbuSalp.s:1954   .text.HAL_CAN_ActivateNotification:00000000 HAL_CAN_ActivateNotification
C:\Users\Rick\AppData\Local\Temp\ccbuSalp.s:2006   .text.HAL_CAN_DeactivateNotification:00000000 $t
C:\Users\Rick\AppData\Local\Temp\ccbuSalp.s:2012   .text.HAL_CAN_DeactivateNotification:00000000 HAL_CAN_DeactivateNotification
C:\Users\Rick\AppData\Local\Temp\ccbuSalp.s:2064   .text.HAL_CAN_TxMailbox0CompleteCallback:00000000 $t
C:\Users\Rick\AppData\Local\Temp\ccbuSalp.s:2070   .text.HAL_CAN_TxMailbox0CompleteCallback:00000000 HAL_CAN_TxMailbox0CompleteCallback
C:\Users\Rick\AppData\Local\Temp\ccbuSalp.s:2085   .text.HAL_CAN_TxMailbox1CompleteCallback:00000000 $t
C:\Users\Rick\AppData\Local\Temp\ccbuSalp.s:2091   .text.HAL_CAN_TxMailbox1CompleteCallback:00000000 HAL_CAN_TxMailbox1CompleteCallback
C:\Users\Rick\AppData\Local\Temp\ccbuSalp.s:2106   .text.HAL_CAN_TxMailbox2CompleteCallback:00000000 $t
C:\Users\Rick\AppData\Local\Temp\ccbuSalp.s:2112   .text.HAL_CAN_TxMailbox2CompleteCallback:00000000 HAL_CAN_TxMailbox2CompleteCallback
C:\Users\Rick\AppData\Local\Temp\ccbuSalp.s:2127   .text.HAL_CAN_TxMailbox0AbortCallback:00000000 $t
C:\Users\Rick\AppData\Local\Temp\ccbuSalp.s:2133   .text.HAL_CAN_TxMailbox0AbortCallback:00000000 HAL_CAN_TxMailbox0AbortCallback
C:\Users\Rick\AppData\Local\Temp\ccbuSalp.s:2148   .text.HAL_CAN_TxMailbox1AbortCallback:00000000 $t
C:\Users\Rick\AppData\Local\Temp\ccbuSalp.s:2154   .text.HAL_CAN_TxMailbox1AbortCallback:00000000 HAL_CAN_TxMailbox1AbortCallback
C:\Users\Rick\AppData\Local\Temp\ccbuSalp.s:2169   .text.HAL_CAN_TxMailbox2AbortCallback:00000000 $t
C:\Users\Rick\AppData\Local\Temp\ccbuSalp.s:2175   .text.HAL_CAN_TxMailbox2AbortCallback:00000000 HAL_CAN_TxMailbox2AbortCallback
C:\Users\Rick\AppData\Local\Temp\ccbuSalp.s:2190   .text.HAL_CAN_RxFifo0MsgPendingCallback:00000000 $t
C:\Users\Rick\AppData\Local\Temp\ccbuSalp.s:2196   .text.HAL_CAN_RxFifo0MsgPendingCallback:00000000 HAL_CAN_RxFifo0MsgPendingCallback
C:\Users\Rick\AppData\Local\Temp\ccbuSalp.s:2211   .text.HAL_CAN_RxFifo0FullCallback:00000000 $t
C:\Users\Rick\AppData\Local\Temp\ccbuSalp.s:2217   .text.HAL_CAN_RxFifo0FullCallback:00000000 HAL_CAN_RxFifo0FullCallback
ARM GAS  C:\Users\Rick\AppData\Local\Temp\ccbuSalp.s 			page 123


C:\Users\Rick\AppData\Local\Temp\ccbuSalp.s:2232   .text.HAL_CAN_RxFifo1MsgPendingCallback:00000000 $t
C:\Users\Rick\AppData\Local\Temp\ccbuSalp.s:2238   .text.HAL_CAN_RxFifo1MsgPendingCallback:00000000 HAL_CAN_RxFifo1MsgPendingCallback
C:\Users\Rick\AppData\Local\Temp\ccbuSalp.s:2253   .text.HAL_CAN_RxFifo1FullCallback:00000000 $t
C:\Users\Rick\AppData\Local\Temp\ccbuSalp.s:2259   .text.HAL_CAN_RxFifo1FullCallback:00000000 HAL_CAN_RxFifo1FullCallback
C:\Users\Rick\AppData\Local\Temp\ccbuSalp.s:2274   .text.HAL_CAN_SleepCallback:00000000 $t
C:\Users\Rick\AppData\Local\Temp\ccbuSalp.s:2280   .text.HAL_CAN_SleepCallback:00000000 HAL_CAN_SleepCallback
C:\Users\Rick\AppData\Local\Temp\ccbuSalp.s:2295   .text.HAL_CAN_WakeUpFromRxMsgCallback:00000000 $t
C:\Users\Rick\AppData\Local\Temp\ccbuSalp.s:2301   .text.HAL_CAN_WakeUpFromRxMsgCallback:00000000 HAL_CAN_WakeUpFromRxMsgCallback
C:\Users\Rick\AppData\Local\Temp\ccbuSalp.s:2316   .text.HAL_CAN_ErrorCallback:00000000 $t
C:\Users\Rick\AppData\Local\Temp\ccbuSalp.s:2322   .text.HAL_CAN_ErrorCallback:00000000 HAL_CAN_ErrorCallback
C:\Users\Rick\AppData\Local\Temp\ccbuSalp.s:2337   .text.HAL_CAN_IRQHandler:00000000 $t
C:\Users\Rick\AppData\Local\Temp\ccbuSalp.s:2343   .text.HAL_CAN_IRQHandler:00000000 HAL_CAN_IRQHandler
C:\Users\Rick\AppData\Local\Temp\ccbuSalp.s:2824   .text.HAL_CAN_GetState:00000000 $t
C:\Users\Rick\AppData\Local\Temp\ccbuSalp.s:2830   .text.HAL_CAN_GetState:00000000 HAL_CAN_GetState
C:\Users\Rick\AppData\Local\Temp\ccbuSalp.s:2891   .text.HAL_CAN_GetError:00000000 $t
C:\Users\Rick\AppData\Local\Temp\ccbuSalp.s:2897   .text.HAL_CAN_GetError:00000000 HAL_CAN_GetError
C:\Users\Rick\AppData\Local\Temp\ccbuSalp.s:2915   .text.HAL_CAN_ResetError:00000000 $t
C:\Users\Rick\AppData\Local\Temp\ccbuSalp.s:2921   .text.HAL_CAN_ResetError:00000000 HAL_CAN_ResetError

UNDEFINED SYMBOLS
HAL_GetTick
